
RTOS-OLED-Xplained-Pro.elf:     file format elf32-littlearm

Sections:
Idx Name          Size      VMA       LMA       File off  Algn
  0 .text         0000a9ec  00400000  00400000  00010000  2**6
                  CONTENTS, ALLOC, LOAD, READONLY, CODE
  1 .ARM.exidx    00000008  0040a9ec  0040a9ec  0001a9ec  2**2
                  CONTENTS, ALLOC, LOAD, READONLY, DATA
  2 .relocate     000009d8  20400000  0040a9f4  00020000  2**3
                  CONTENTS, ALLOC, LOAD, CODE
  3 .bss          0000bc98  204009d8  0040b3cc  000209d8  2**2
                  ALLOC
  4 .stack        00002000  2040c670  00417064  000209d8  2**0
                  ALLOC
  5 .heap         00000200  2040e670  00419064  000209d8  2**0
                  ALLOC
  6 .ARM.attributes 0000002e  00000000  00000000  000209d8  2**0
                  CONTENTS, READONLY
  7 .comment      00000059  00000000  00000000  00020a06  2**0
                  CONTENTS, READONLY
  8 .debug_info   0002b252  00000000  00000000  00020a5f  2**0
                  CONTENTS, READONLY, DEBUGGING
  9 .debug_abbrev 00005e33  00000000  00000000  0004bcb1  2**0
                  CONTENTS, READONLY, DEBUGGING
 10 .debug_loc    00011d74  00000000  00000000  00051ae4  2**0
                  CONTENTS, READONLY, DEBUGGING
 11 .debug_aranges 00001260  00000000  00000000  00063858  2**0
                  CONTENTS, READONLY, DEBUGGING
 12 .debug_ranges 00001840  00000000  00000000  00064ab8  2**0
                  CONTENTS, READONLY, DEBUGGING
 13 .debug_macro  00027246  00000000  00000000  000662f8  2**0
                  CONTENTS, READONLY, DEBUGGING
 14 .debug_line   0001913f  00000000  00000000  0008d53e  2**0
                  CONTENTS, READONLY, DEBUGGING
 15 .debug_str    0009b92b  00000000  00000000  000a667d  2**0
                  CONTENTS, READONLY, DEBUGGING
 16 .debug_frame  00004208  00000000  00000000  00141fa8  2**2
                  CONTENTS, READONLY, DEBUGGING

Disassembly of section .text:

00400000 <exception_table>:
  400000:	70 e6 40 20 25 39 40 00 23 39 40 00 23 39 40 00     p.@ %9@.#9@.#9@.
  400010:	23 39 40 00 23 39 40 00 23 39 40 00 00 00 00 00     #9@.#9@.#9@.....
	...
  40002c:	23 39 40 00 23 39 40 00 00 00 00 00 23 39 40 00     #9@.#9@.....#9@.
  40003c:	23 39 40 00 23 39 40 00 23 39 40 00 23 39 40 00     #9@.#9@.#9@.#9@.
  40004c:	23 39 40 00 23 39 40 00 23 39 40 00 23 39 40 00     #9@.#9@.#9@.#9@.
  40005c:	23 39 40 00 23 39 40 00 00 00 00 00 15 36 40 00     #9@.#9@......6@.
  40006c:	29 36 40 00 3d 36 40 00 23 39 40 00 23 39 40 00     )6@.=6@.#9@.#9@.
  40007c:	23 39 40 00 51 36 40 00 65 36 40 00 23 39 40 00     #9@.Q6@.e6@.#9@.
  40008c:	23 39 40 00 23 39 40 00 23 39 40 00 23 39 40 00     #9@.#9@.#9@.#9@.
  40009c:	23 39 40 00 23 39 40 00 23 39 40 00 23 39 40 00     #9@.#9@.#9@.#9@.
  4000ac:	23 39 40 00 23 39 40 00 23 39 40 00 23 39 40 00     #9@.#9@.#9@.#9@.
  4000bc:	23 39 40 00 23 39 40 00 23 39 40 00 23 39 40 00     #9@.#9@.#9@.#9@.
  4000cc:	23 39 40 00 00 00 00 00 23 39 40 00 00 00 00 00     #9@.....#9@.....
  4000dc:	23 39 40 00 23 39 40 00 23 39 40 00 23 39 40 00     #9@.#9@.#9@.#9@.
  4000ec:	23 39 40 00 23 39 40 00 23 39 40 00 23 39 40 00     #9@.#9@.#9@.#9@.
  4000fc:	23 39 40 00 23 39 40 00 23 39 40 00 23 39 40 00     #9@.#9@.#9@.#9@.
  40010c:	23 39 40 00 23 39 40 00 00 00 00 00 00 00 00 00     #9@.#9@.........
  40011c:	00 00 00 00 23 39 40 00 23 39 40 00 23 39 40 00     ....#9@.#9@.#9@.
  40012c:	23 39 40 00 23 39 40 00 00 00 00 00 23 39 40 00     #9@.#9@.....#9@.
  40013c:	23 39 40 00                                         #9@.

00400140 <__do_global_dtors_aux>:
  400140:	b510      	push	{r4, lr}
  400142:	4c05      	ldr	r4, [pc, #20]	; (400158 <__do_global_dtors_aux+0x18>)
  400144:	7823      	ldrb	r3, [r4, #0]
  400146:	b933      	cbnz	r3, 400156 <__do_global_dtors_aux+0x16>
  400148:	4b04      	ldr	r3, [pc, #16]	; (40015c <__do_global_dtors_aux+0x1c>)
  40014a:	b113      	cbz	r3, 400152 <__do_global_dtors_aux+0x12>
  40014c:	4804      	ldr	r0, [pc, #16]	; (400160 <__do_global_dtors_aux+0x20>)
  40014e:	f3af 8000 	nop.w
  400152:	2301      	movs	r3, #1
  400154:	7023      	strb	r3, [r4, #0]
  400156:	bd10      	pop	{r4, pc}
  400158:	204009d8 	.word	0x204009d8
  40015c:	00000000 	.word	0x00000000
  400160:	0040a9f4 	.word	0x0040a9f4

00400164 <frame_dummy>:
  400164:	4b0c      	ldr	r3, [pc, #48]	; (400198 <frame_dummy+0x34>)
  400166:	b143      	cbz	r3, 40017a <frame_dummy+0x16>
  400168:	480c      	ldr	r0, [pc, #48]	; (40019c <frame_dummy+0x38>)
  40016a:	490d      	ldr	r1, [pc, #52]	; (4001a0 <frame_dummy+0x3c>)
  40016c:	b510      	push	{r4, lr}
  40016e:	f3af 8000 	nop.w
  400172:	480c      	ldr	r0, [pc, #48]	; (4001a4 <frame_dummy+0x40>)
  400174:	6803      	ldr	r3, [r0, #0]
  400176:	b923      	cbnz	r3, 400182 <frame_dummy+0x1e>
  400178:	bd10      	pop	{r4, pc}
  40017a:	480a      	ldr	r0, [pc, #40]	; (4001a4 <frame_dummy+0x40>)
  40017c:	6803      	ldr	r3, [r0, #0]
  40017e:	b933      	cbnz	r3, 40018e <frame_dummy+0x2a>
  400180:	4770      	bx	lr
  400182:	4b09      	ldr	r3, [pc, #36]	; (4001a8 <frame_dummy+0x44>)
  400184:	2b00      	cmp	r3, #0
  400186:	d0f7      	beq.n	400178 <frame_dummy+0x14>
  400188:	e8bd 4010 	ldmia.w	sp!, {r4, lr}
  40018c:	4718      	bx	r3
  40018e:	4b06      	ldr	r3, [pc, #24]	; (4001a8 <frame_dummy+0x44>)
  400190:	2b00      	cmp	r3, #0
  400192:	d0f5      	beq.n	400180 <frame_dummy+0x1c>
  400194:	4718      	bx	r3
  400196:	bf00      	nop
  400198:	00000000 	.word	0x00000000
  40019c:	0040a9f4 	.word	0x0040a9f4
  4001a0:	204009dc 	.word	0x204009dc
  4001a4:	0040a9f4 	.word	0x0040a9f4
  4001a8:	00000000 	.word	0x00000000

004001ac <spi_enable_clock>:
  4001ac:	b508      	push	{r3, lr}
  4001ae:	4b07      	ldr	r3, [pc, #28]	; (4001cc <spi_enable_clock+0x20>)
  4001b0:	4298      	cmp	r0, r3
  4001b2:	d003      	beq.n	4001bc <spi_enable_clock+0x10>
  4001b4:	4b06      	ldr	r3, [pc, #24]	; (4001d0 <spi_enable_clock+0x24>)
  4001b6:	4298      	cmp	r0, r3
  4001b8:	d004      	beq.n	4001c4 <spi_enable_clock+0x18>
  4001ba:	bd08      	pop	{r3, pc}
  4001bc:	2015      	movs	r0, #21
  4001be:	4b05      	ldr	r3, [pc, #20]	; (4001d4 <spi_enable_clock+0x28>)
  4001c0:	4798      	blx	r3
  4001c2:	bd08      	pop	{r3, pc}
  4001c4:	202a      	movs	r0, #42	; 0x2a
  4001c6:	4b03      	ldr	r3, [pc, #12]	; (4001d4 <spi_enable_clock+0x28>)
  4001c8:	4798      	blx	r3
  4001ca:	e7f6      	b.n	4001ba <spi_enable_clock+0xe>
  4001cc:	40008000 	.word	0x40008000
  4001d0:	40058000 	.word	0x40058000
  4001d4:	00403799 	.word	0x00403799

004001d8 <spi_set_peripheral_chip_select_value>:
  4001d8:	6843      	ldr	r3, [r0, #4]
  4001da:	f423 2370 	bic.w	r3, r3, #983040	; 0xf0000
  4001de:	6043      	str	r3, [r0, #4]
  4001e0:	6843      	ldr	r3, [r0, #4]
  4001e2:	0409      	lsls	r1, r1, #16
  4001e4:	f401 2170 	and.w	r1, r1, #983040	; 0xf0000
  4001e8:	4319      	orrs	r1, r3
  4001ea:	6041      	str	r1, [r0, #4]
  4001ec:	4770      	bx	lr

004001ee <spi_write>:
  4001ee:	b430      	push	{r4, r5}
  4001f0:	f643 2499 	movw	r4, #15001	; 0x3a99
  4001f4:	6905      	ldr	r5, [r0, #16]
  4001f6:	f015 0f02 	tst.w	r5, #2
  4001fa:	d103      	bne.n	400204 <spi_write+0x16>
  4001fc:	3c01      	subs	r4, #1
  4001fe:	d1f9      	bne.n	4001f4 <spi_write+0x6>
  400200:	2001      	movs	r0, #1
  400202:	e00c      	b.n	40021e <spi_write+0x30>
  400204:	6844      	ldr	r4, [r0, #4]
  400206:	f014 0f02 	tst.w	r4, #2
  40020a:	d006      	beq.n	40021a <spi_write+0x2c>
  40020c:	0412      	lsls	r2, r2, #16
  40020e:	f402 2270 	and.w	r2, r2, #983040	; 0xf0000
  400212:	4311      	orrs	r1, r2
  400214:	b10b      	cbz	r3, 40021a <spi_write+0x2c>
  400216:	f041 7180 	orr.w	r1, r1, #16777216	; 0x1000000
  40021a:	60c1      	str	r1, [r0, #12]
  40021c:	2000      	movs	r0, #0
  40021e:	bc30      	pop	{r4, r5}
  400220:	4770      	bx	lr

00400222 <spi_set_clock_polarity>:
  400222:	b932      	cbnz	r2, 400232 <spi_set_clock_polarity+0x10>
  400224:	eb00 0081 	add.w	r0, r0, r1, lsl #2
  400228:	6b03      	ldr	r3, [r0, #48]	; 0x30
  40022a:	f023 0301 	bic.w	r3, r3, #1
  40022e:	6303      	str	r3, [r0, #48]	; 0x30
  400230:	4770      	bx	lr
  400232:	eb00 0081 	add.w	r0, r0, r1, lsl #2
  400236:	6b03      	ldr	r3, [r0, #48]	; 0x30
  400238:	f043 0301 	orr.w	r3, r3, #1
  40023c:	6303      	str	r3, [r0, #48]	; 0x30
  40023e:	4770      	bx	lr

00400240 <spi_set_clock_phase>:
  400240:	b932      	cbnz	r2, 400250 <spi_set_clock_phase+0x10>
  400242:	eb00 0081 	add.w	r0, r0, r1, lsl #2
  400246:	6b03      	ldr	r3, [r0, #48]	; 0x30
  400248:	f023 0302 	bic.w	r3, r3, #2
  40024c:	6303      	str	r3, [r0, #48]	; 0x30
  40024e:	4770      	bx	lr
  400250:	eb00 0081 	add.w	r0, r0, r1, lsl #2
  400254:	6b03      	ldr	r3, [r0, #48]	; 0x30
  400256:	f043 0302 	orr.w	r3, r3, #2
  40025a:	6303      	str	r3, [r0, #48]	; 0x30
  40025c:	4770      	bx	lr

0040025e <spi_configure_cs_behavior>:
  40025e:	2a04      	cmp	r2, #4
  400260:	d003      	beq.n	40026a <spi_configure_cs_behavior+0xc>
  400262:	b16a      	cbz	r2, 400280 <spi_configure_cs_behavior+0x22>
  400264:	2a08      	cmp	r2, #8
  400266:	d016      	beq.n	400296 <spi_configure_cs_behavior+0x38>
  400268:	4770      	bx	lr
  40026a:	eb00 0081 	add.w	r0, r0, r1, lsl #2
  40026e:	6b03      	ldr	r3, [r0, #48]	; 0x30
  400270:	f023 0308 	bic.w	r3, r3, #8
  400274:	6303      	str	r3, [r0, #48]	; 0x30
  400276:	6b03      	ldr	r3, [r0, #48]	; 0x30
  400278:	f043 0304 	orr.w	r3, r3, #4
  40027c:	6303      	str	r3, [r0, #48]	; 0x30
  40027e:	4770      	bx	lr
  400280:	eb00 0081 	add.w	r0, r0, r1, lsl #2
  400284:	6b03      	ldr	r3, [r0, #48]	; 0x30
  400286:	f023 0308 	bic.w	r3, r3, #8
  40028a:	6303      	str	r3, [r0, #48]	; 0x30
  40028c:	6b03      	ldr	r3, [r0, #48]	; 0x30
  40028e:	f023 0304 	bic.w	r3, r3, #4
  400292:	6303      	str	r3, [r0, #48]	; 0x30
  400294:	4770      	bx	lr
  400296:	eb00 0081 	add.w	r0, r0, r1, lsl #2
  40029a:	6b03      	ldr	r3, [r0, #48]	; 0x30
  40029c:	f043 0308 	orr.w	r3, r3, #8
  4002a0:	6303      	str	r3, [r0, #48]	; 0x30
  4002a2:	e7e1      	b.n	400268 <spi_configure_cs_behavior+0xa>

004002a4 <spi_set_bits_per_transfer>:
  4002a4:	eb00 0181 	add.w	r1, r0, r1, lsl #2
  4002a8:	6b0b      	ldr	r3, [r1, #48]	; 0x30
  4002aa:	f023 03f0 	bic.w	r3, r3, #240	; 0xf0
  4002ae:	630b      	str	r3, [r1, #48]	; 0x30
  4002b0:	6b0b      	ldr	r3, [r1, #48]	; 0x30
  4002b2:	431a      	orrs	r2, r3
  4002b4:	630a      	str	r2, [r1, #48]	; 0x30
  4002b6:	4770      	bx	lr

004002b8 <spi_calc_baudrate_div>:
  4002b8:	1e43      	subs	r3, r0, #1
  4002ba:	4419      	add	r1, r3
  4002bc:	fbb1 f0f0 	udiv	r0, r1, r0
  4002c0:	1e43      	subs	r3, r0, #1
  4002c2:	2bfe      	cmp	r3, #254	; 0xfe
  4002c4:	bf94      	ite	ls
  4002c6:	b200      	sxthls	r0, r0
  4002c8:	f04f 30ff 	movhi.w	r0, #4294967295
  4002cc:	4770      	bx	lr

004002ce <spi_set_baudrate_div>:
  4002ce:	b17a      	cbz	r2, 4002f0 <spi_set_baudrate_div+0x22>
  4002d0:	b410      	push	{r4}
  4002d2:	4614      	mov	r4, r2
  4002d4:	eb00 0181 	add.w	r1, r0, r1, lsl #2
  4002d8:	6b0b      	ldr	r3, [r1, #48]	; 0x30
  4002da:	f423 437f 	bic.w	r3, r3, #65280	; 0xff00
  4002de:	630b      	str	r3, [r1, #48]	; 0x30
  4002e0:	6b0a      	ldr	r2, [r1, #48]	; 0x30
  4002e2:	ea42 2204 	orr.w	r2, r2, r4, lsl #8
  4002e6:	630a      	str	r2, [r1, #48]	; 0x30
  4002e8:	2000      	movs	r0, #0
  4002ea:	f85d 4b04 	ldr.w	r4, [sp], #4
  4002ee:	4770      	bx	lr
  4002f0:	f04f 30ff 	mov.w	r0, #4294967295
  4002f4:	4770      	bx	lr
	...

004002f8 <twihs_set_speed>:
  4002f8:	4b28      	ldr	r3, [pc, #160]	; (40039c <twihs_set_speed+0xa4>)
  4002fa:	4299      	cmp	r1, r3
  4002fc:	d84b      	bhi.n	400396 <twihs_set_speed+0x9e>
  4002fe:	f5a3 537a 	sub.w	r3, r3, #16000	; 0x3e80
  400302:	4299      	cmp	r1, r3
  400304:	d92d      	bls.n	400362 <twihs_set_speed+0x6a>
  400306:	b410      	push	{r4}
  400308:	4c25      	ldr	r4, [pc, #148]	; (4003a0 <twihs_set_speed+0xa8>)
  40030a:	fba4 3402 	umull	r3, r4, r4, r2
  40030e:	0ba4      	lsrs	r4, r4, #14
  400310:	3c03      	subs	r4, #3
  400312:	4b24      	ldr	r3, [pc, #144]	; (4003a4 <twihs_set_speed+0xac>)
  400314:	440b      	add	r3, r1
  400316:	009b      	lsls	r3, r3, #2
  400318:	fbb2 f2f3 	udiv	r2, r2, r3
  40031c:	3a03      	subs	r2, #3
  40031e:	2cff      	cmp	r4, #255	; 0xff
  400320:	d91d      	bls.n	40035e <twihs_set_speed+0x66>
  400322:	2100      	movs	r1, #0
  400324:	3101      	adds	r1, #1
  400326:	0864      	lsrs	r4, r4, #1
  400328:	2cff      	cmp	r4, #255	; 0xff
  40032a:	d901      	bls.n	400330 <twihs_set_speed+0x38>
  40032c:	2906      	cmp	r1, #6
  40032e:	d9f9      	bls.n	400324 <twihs_set_speed+0x2c>
  400330:	2aff      	cmp	r2, #255	; 0xff
  400332:	d907      	bls.n	400344 <twihs_set_speed+0x4c>
  400334:	2906      	cmp	r1, #6
  400336:	d805      	bhi.n	400344 <twihs_set_speed+0x4c>
  400338:	3101      	adds	r1, #1
  40033a:	0852      	lsrs	r2, r2, #1
  40033c:	2aff      	cmp	r2, #255	; 0xff
  40033e:	d901      	bls.n	400344 <twihs_set_speed+0x4c>
  400340:	2906      	cmp	r1, #6
  400342:	d9f9      	bls.n	400338 <twihs_set_speed+0x40>
  400344:	0213      	lsls	r3, r2, #8
  400346:	b29b      	uxth	r3, r3
  400348:	0409      	lsls	r1, r1, #16
  40034a:	f401 21e0 	and.w	r1, r1, #458752	; 0x70000
  40034e:	430b      	orrs	r3, r1
  400350:	b2e4      	uxtb	r4, r4
  400352:	4323      	orrs	r3, r4
  400354:	6103      	str	r3, [r0, #16]
  400356:	2000      	movs	r0, #0
  400358:	f85d 4b04 	ldr.w	r4, [sp], #4
  40035c:	4770      	bx	lr
  40035e:	2100      	movs	r1, #0
  400360:	e7e6      	b.n	400330 <twihs_set_speed+0x38>
  400362:	0049      	lsls	r1, r1, #1
  400364:	fbb2 f2f1 	udiv	r2, r2, r1
  400368:	3a03      	subs	r2, #3
  40036a:	2aff      	cmp	r2, #255	; 0xff
  40036c:	d911      	bls.n	400392 <twihs_set_speed+0x9a>
  40036e:	2300      	movs	r3, #0
  400370:	3301      	adds	r3, #1
  400372:	0852      	lsrs	r2, r2, #1
  400374:	2aff      	cmp	r2, #255	; 0xff
  400376:	d901      	bls.n	40037c <twihs_set_speed+0x84>
  400378:	2b06      	cmp	r3, #6
  40037a:	d9f9      	bls.n	400370 <twihs_set_speed+0x78>
  40037c:	0211      	lsls	r1, r2, #8
  40037e:	b289      	uxth	r1, r1
  400380:	041b      	lsls	r3, r3, #16
  400382:	f403 23e0 	and.w	r3, r3, #458752	; 0x70000
  400386:	430b      	orrs	r3, r1
  400388:	b2d2      	uxtb	r2, r2
  40038a:	431a      	orrs	r2, r3
  40038c:	6102      	str	r2, [r0, #16]
  40038e:	2000      	movs	r0, #0
  400390:	4770      	bx	lr
  400392:	2300      	movs	r3, #0
  400394:	e7f2      	b.n	40037c <twihs_set_speed+0x84>
  400396:	2001      	movs	r0, #1
  400398:	4770      	bx	lr
  40039a:	bf00      	nop
  40039c:	00061a80 	.word	0x00061a80
  4003a0:	057619f1 	.word	0x057619f1
  4003a4:	3ffd1200 	.word	0x3ffd1200

004003a8 <twihs_master_init>:
  4003a8:	b508      	push	{r3, lr}
  4003aa:	f04f 32ff 	mov.w	r2, #4294967295
  4003ae:	6282      	str	r2, [r0, #40]	; 0x28
  4003b0:	6a02      	ldr	r2, [r0, #32]
  4003b2:	2280      	movs	r2, #128	; 0x80
  4003b4:	6002      	str	r2, [r0, #0]
  4003b6:	6b02      	ldr	r2, [r0, #48]	; 0x30
  4003b8:	2208      	movs	r2, #8
  4003ba:	6002      	str	r2, [r0, #0]
  4003bc:	2220      	movs	r2, #32
  4003be:	6002      	str	r2, [r0, #0]
  4003c0:	2204      	movs	r2, #4
  4003c2:	6002      	str	r2, [r0, #0]
  4003c4:	680a      	ldr	r2, [r1, #0]
  4003c6:	6849      	ldr	r1, [r1, #4]
  4003c8:	4b03      	ldr	r3, [pc, #12]	; (4003d8 <twihs_master_init+0x30>)
  4003ca:	4798      	blx	r3
  4003cc:	2801      	cmp	r0, #1
  4003ce:	bf14      	ite	ne
  4003d0:	2000      	movne	r0, #0
  4003d2:	2001      	moveq	r0, #1
  4003d4:	bd08      	pop	{r3, pc}
  4003d6:	bf00      	nop
  4003d8:	004002f9 	.word	0x004002f9

004003dc <twihs_master_read>:
  4003dc:	68ca      	ldr	r2, [r1, #12]
  4003de:	2a00      	cmp	r2, #0
  4003e0:	d04c      	beq.n	40047c <twihs_master_read+0xa0>
  4003e2:	b470      	push	{r4, r5, r6}
  4003e4:	688c      	ldr	r4, [r1, #8]
  4003e6:	2600      	movs	r6, #0
  4003e8:	6046      	str	r6, [r0, #4]
  4003ea:	684b      	ldr	r3, [r1, #4]
  4003ec:	021b      	lsls	r3, r3, #8
  4003ee:	f403 7340 	and.w	r3, r3, #768	; 0x300
  4003f2:	f443 5380 	orr.w	r3, r3, #4096	; 0x1000
  4003f6:	7c0d      	ldrb	r5, [r1, #16]
  4003f8:	042d      	lsls	r5, r5, #16
  4003fa:	f405 05fe 	and.w	r5, r5, #8323072	; 0x7f0000
  4003fe:	432b      	orrs	r3, r5
  400400:	6043      	str	r3, [r0, #4]
  400402:	60c6      	str	r6, [r0, #12]
  400404:	684d      	ldr	r5, [r1, #4]
  400406:	b15d      	cbz	r5, 400420 <twihs_master_read+0x44>
  400408:	780b      	ldrb	r3, [r1, #0]
  40040a:	2d01      	cmp	r5, #1
  40040c:	dd02      	ble.n	400414 <twihs_master_read+0x38>
  40040e:	784e      	ldrb	r6, [r1, #1]
  400410:	ea46 2303 	orr.w	r3, r6, r3, lsl #8
  400414:	2d02      	cmp	r5, #2
  400416:	dd04      	ble.n	400422 <twihs_master_read+0x46>
  400418:	7889      	ldrb	r1, [r1, #2]
  40041a:	ea41 2303 	orr.w	r3, r1, r3, lsl #8
  40041e:	e000      	b.n	400422 <twihs_master_read+0x46>
  400420:	2300      	movs	r3, #0
  400422:	60c3      	str	r3, [r0, #12]
  400424:	2301      	movs	r3, #1
  400426:	6003      	str	r3, [r0, #0]
  400428:	2502      	movs	r5, #2
  40042a:	e012      	b.n	400452 <twihs_master_read+0x76>
  40042c:	6005      	str	r5, [r0, #0]
  40042e:	f013 0f02 	tst.w	r3, #2
  400432:	d01b      	beq.n	40046c <twihs_master_read+0x90>
  400434:	6b03      	ldr	r3, [r0, #48]	; 0x30
  400436:	7023      	strb	r3, [r4, #0]
  400438:	6a03      	ldr	r3, [r0, #32]
  40043a:	f013 0f01 	tst.w	r3, #1
  40043e:	d0fb      	beq.n	400438 <twihs_master_read+0x5c>
  400440:	6a03      	ldr	r3, [r0, #32]
  400442:	2000      	movs	r0, #0
  400444:	bc70      	pop	{r4, r5, r6}
  400446:	4770      	bx	lr
  400448:	6b03      	ldr	r3, [r0, #48]	; 0x30
  40044a:	f804 3b01 	strb.w	r3, [r4], #1
  40044e:	3a01      	subs	r2, #1
  400450:	d0f2      	beq.n	400438 <twihs_master_read+0x5c>
  400452:	6a03      	ldr	r3, [r0, #32]
  400454:	f413 7f80 	tst.w	r3, #256	; 0x100
  400458:	d114      	bne.n	400484 <twihs_master_read+0xa8>
  40045a:	f247 5130 	movw	r1, #30000	; 0x7530
  40045e:	2a01      	cmp	r2, #1
  400460:	d0e4      	beq.n	40042c <twihs_master_read+0x50>
  400462:	f013 0f02 	tst.w	r3, #2
  400466:	d1ef      	bne.n	400448 <twihs_master_read+0x6c>
  400468:	2a00      	cmp	r2, #0
  40046a:	d0e5      	beq.n	400438 <twihs_master_read+0x5c>
  40046c:	6a03      	ldr	r3, [r0, #32]
  40046e:	f413 7f80 	tst.w	r3, #256	; 0x100
  400472:	d105      	bne.n	400480 <twihs_master_read+0xa4>
  400474:	3901      	subs	r1, #1
  400476:	d1f2      	bne.n	40045e <twihs_master_read+0x82>
  400478:	2009      	movs	r0, #9
  40047a:	e7e3      	b.n	400444 <twihs_master_read+0x68>
  40047c:	2001      	movs	r0, #1
  40047e:	4770      	bx	lr
  400480:	2005      	movs	r0, #5
  400482:	e7df      	b.n	400444 <twihs_master_read+0x68>
  400484:	2005      	movs	r0, #5
  400486:	e7dd      	b.n	400444 <twihs_master_read+0x68>

00400488 <twihs_master_write>:
  400488:	68cb      	ldr	r3, [r1, #12]
  40048a:	2b00      	cmp	r3, #0
  40048c:	d043      	beq.n	400516 <twihs_master_write+0x8e>
  40048e:	b470      	push	{r4, r5, r6}
  400490:	688c      	ldr	r4, [r1, #8]
  400492:	2600      	movs	r6, #0
  400494:	6046      	str	r6, [r0, #4]
  400496:	7c0a      	ldrb	r2, [r1, #16]
  400498:	0412      	lsls	r2, r2, #16
  40049a:	f402 02fe 	and.w	r2, r2, #8323072	; 0x7f0000
  40049e:	684d      	ldr	r5, [r1, #4]
  4004a0:	022d      	lsls	r5, r5, #8
  4004a2:	f405 7540 	and.w	r5, r5, #768	; 0x300
  4004a6:	432a      	orrs	r2, r5
  4004a8:	6042      	str	r2, [r0, #4]
  4004aa:	60c6      	str	r6, [r0, #12]
  4004ac:	684d      	ldr	r5, [r1, #4]
  4004ae:	b15d      	cbz	r5, 4004c8 <twihs_master_write+0x40>
  4004b0:	780a      	ldrb	r2, [r1, #0]
  4004b2:	2d01      	cmp	r5, #1
  4004b4:	dd02      	ble.n	4004bc <twihs_master_write+0x34>
  4004b6:	784e      	ldrb	r6, [r1, #1]
  4004b8:	ea46 2202 	orr.w	r2, r6, r2, lsl #8
  4004bc:	2d02      	cmp	r5, #2
  4004be:	dd04      	ble.n	4004ca <twihs_master_write+0x42>
  4004c0:	7889      	ldrb	r1, [r1, #2]
  4004c2:	ea41 2202 	orr.w	r2, r1, r2, lsl #8
  4004c6:	e000      	b.n	4004ca <twihs_master_write+0x42>
  4004c8:	2200      	movs	r2, #0
  4004ca:	60c2      	str	r2, [r0, #12]
  4004cc:	e004      	b.n	4004d8 <twihs_master_write+0x50>
  4004ce:	f814 2b01 	ldrb.w	r2, [r4], #1
  4004d2:	6342      	str	r2, [r0, #52]	; 0x34
  4004d4:	3b01      	subs	r3, #1
  4004d6:	d00f      	beq.n	4004f8 <twihs_master_write+0x70>
  4004d8:	6a02      	ldr	r2, [r0, #32]
  4004da:	f412 7f80 	tst.w	r2, #256	; 0x100
  4004de:	d11e      	bne.n	40051e <twihs_master_write+0x96>
  4004e0:	f012 0f04 	tst.w	r2, #4
  4004e4:	d1f3      	bne.n	4004ce <twihs_master_write+0x46>
  4004e6:	6a02      	ldr	r2, [r0, #32]
  4004e8:	f412 7f80 	tst.w	r2, #256	; 0x100
  4004ec:	d115      	bne.n	40051a <twihs_master_write+0x92>
  4004ee:	f012 0f04 	tst.w	r2, #4
  4004f2:	d1ec      	bne.n	4004ce <twihs_master_write+0x46>
  4004f4:	2b00      	cmp	r3, #0
  4004f6:	d1f6      	bne.n	4004e6 <twihs_master_write+0x5e>
  4004f8:	6a03      	ldr	r3, [r0, #32]
  4004fa:	f413 7f80 	tst.w	r3, #256	; 0x100
  4004fe:	d111      	bne.n	400524 <twihs_master_write+0x9c>
  400500:	f013 0f04 	tst.w	r3, #4
  400504:	d0f8      	beq.n	4004f8 <twihs_master_write+0x70>
  400506:	2302      	movs	r3, #2
  400508:	6003      	str	r3, [r0, #0]
  40050a:	6a03      	ldr	r3, [r0, #32]
  40050c:	f013 0f01 	tst.w	r3, #1
  400510:	d0fb      	beq.n	40050a <twihs_master_write+0x82>
  400512:	2000      	movs	r0, #0
  400514:	e004      	b.n	400520 <twihs_master_write+0x98>
  400516:	2001      	movs	r0, #1
  400518:	4770      	bx	lr
  40051a:	2005      	movs	r0, #5
  40051c:	e000      	b.n	400520 <twihs_master_write+0x98>
  40051e:	2005      	movs	r0, #5
  400520:	bc70      	pop	{r4, r5, r6}
  400522:	4770      	bx	lr
  400524:	2005      	movs	r0, #5
  400526:	e7fb      	b.n	400520 <twihs_master_write+0x98>

00400528 <twihs_probe>:
  400528:	b500      	push	{lr}
  40052a:	b087      	sub	sp, #28
  40052c:	2300      	movs	r3, #0
  40052e:	aa06      	add	r2, sp, #24
  400530:	f802 3d15 	strb.w	r3, [r2, #-21]!
  400534:	9203      	str	r2, [sp, #12]
  400536:	2201      	movs	r2, #1
  400538:	9204      	str	r2, [sp, #16]
  40053a:	f88d 1014 	strb.w	r1, [sp, #20]
  40053e:	f88d 3004 	strb.w	r3, [sp, #4]
  400542:	9302      	str	r3, [sp, #8]
  400544:	a901      	add	r1, sp, #4
  400546:	4b02      	ldr	r3, [pc, #8]	; (400550 <twihs_probe+0x28>)
  400548:	4798      	blx	r3
  40054a:	b007      	add	sp, #28
  40054c:	f85d fb04 	ldr.w	pc, [sp], #4
  400550:	00400489 	.word	0x00400489

00400554 <vListInitialise>:
  400554:	f100 0308 	add.w	r3, r0, #8
  400558:	6043      	str	r3, [r0, #4]
  40055a:	f04f 32ff 	mov.w	r2, #4294967295
  40055e:	6082      	str	r2, [r0, #8]
  400560:	60c3      	str	r3, [r0, #12]
  400562:	6103      	str	r3, [r0, #16]
  400564:	2300      	movs	r3, #0
  400566:	6003      	str	r3, [r0, #0]
  400568:	4770      	bx	lr

0040056a <vListInitialiseItem>:
  40056a:	2300      	movs	r3, #0
  40056c:	6103      	str	r3, [r0, #16]
  40056e:	4770      	bx	lr

00400570 <vListInsertEnd>:
  400570:	6843      	ldr	r3, [r0, #4]
  400572:	604b      	str	r3, [r1, #4]
  400574:	689a      	ldr	r2, [r3, #8]
  400576:	608a      	str	r2, [r1, #8]
  400578:	689a      	ldr	r2, [r3, #8]
  40057a:	6051      	str	r1, [r2, #4]
  40057c:	6099      	str	r1, [r3, #8]
  40057e:	6108      	str	r0, [r1, #16]
  400580:	6803      	ldr	r3, [r0, #0]
  400582:	3301      	adds	r3, #1
  400584:	6003      	str	r3, [r0, #0]
  400586:	4770      	bx	lr

00400588 <vListInsert>:
  400588:	b430      	push	{r4, r5}
  40058a:	680d      	ldr	r5, [r1, #0]
  40058c:	f1b5 3fff 	cmp.w	r5, #4294967295
  400590:	d002      	beq.n	400598 <vListInsert+0x10>
  400592:	f100 0208 	add.w	r2, r0, #8
  400596:	e002      	b.n	40059e <vListInsert+0x16>
  400598:	6902      	ldr	r2, [r0, #16]
  40059a:	e004      	b.n	4005a6 <vListInsert+0x1e>
  40059c:	461a      	mov	r2, r3
  40059e:	6853      	ldr	r3, [r2, #4]
  4005a0:	681c      	ldr	r4, [r3, #0]
  4005a2:	42a5      	cmp	r5, r4
  4005a4:	d2fa      	bcs.n	40059c <vListInsert+0x14>
  4005a6:	6853      	ldr	r3, [r2, #4]
  4005a8:	604b      	str	r3, [r1, #4]
  4005aa:	6099      	str	r1, [r3, #8]
  4005ac:	608a      	str	r2, [r1, #8]
  4005ae:	6051      	str	r1, [r2, #4]
  4005b0:	6108      	str	r0, [r1, #16]
  4005b2:	6803      	ldr	r3, [r0, #0]
  4005b4:	3301      	adds	r3, #1
  4005b6:	6003      	str	r3, [r0, #0]
  4005b8:	bc30      	pop	{r4, r5}
  4005ba:	4770      	bx	lr

004005bc <uxListRemove>:
  4005bc:	6903      	ldr	r3, [r0, #16]
  4005be:	6842      	ldr	r2, [r0, #4]
  4005c0:	6881      	ldr	r1, [r0, #8]
  4005c2:	6091      	str	r1, [r2, #8]
  4005c4:	6882      	ldr	r2, [r0, #8]
  4005c6:	6841      	ldr	r1, [r0, #4]
  4005c8:	6051      	str	r1, [r2, #4]
  4005ca:	685a      	ldr	r2, [r3, #4]
  4005cc:	4290      	cmp	r0, r2
  4005ce:	d006      	beq.n	4005de <uxListRemove+0x22>
  4005d0:	2200      	movs	r2, #0
  4005d2:	6102      	str	r2, [r0, #16]
  4005d4:	681a      	ldr	r2, [r3, #0]
  4005d6:	3a01      	subs	r2, #1
  4005d8:	601a      	str	r2, [r3, #0]
  4005da:	6818      	ldr	r0, [r3, #0]
  4005dc:	4770      	bx	lr
  4005de:	6882      	ldr	r2, [r0, #8]
  4005e0:	605a      	str	r2, [r3, #4]
  4005e2:	e7f5      	b.n	4005d0 <uxListRemove+0x14>

004005e4 <prvTaskExitError>:
  4005e4:	b082      	sub	sp, #8
  4005e6:	2300      	movs	r3, #0
  4005e8:	9301      	str	r3, [sp, #4]
  4005ea:	4b0f      	ldr	r3, [pc, #60]	; (400628 <prvTaskExitError+0x44>)
  4005ec:	681b      	ldr	r3, [r3, #0]
  4005ee:	f1b3 3fff 	cmp.w	r3, #4294967295
  4005f2:	d00a      	beq.n	40060a <prvTaskExitError+0x26>
  4005f4:	f04f 0380 	mov.w	r3, #128	; 0x80
  4005f8:	b672      	cpsid	i
  4005fa:	f383 8811 	msr	BASEPRI, r3
  4005fe:	f3bf 8f6f 	isb	sy
  400602:	f3bf 8f4f 	dsb	sy
  400606:	b662      	cpsie	i
  400608:	e7fe      	b.n	400608 <prvTaskExitError+0x24>
  40060a:	f04f 0380 	mov.w	r3, #128	; 0x80
  40060e:	b672      	cpsid	i
  400610:	f383 8811 	msr	BASEPRI, r3
  400614:	f3bf 8f6f 	isb	sy
  400618:	f3bf 8f4f 	dsb	sy
  40061c:	b662      	cpsie	i
  40061e:	9b01      	ldr	r3, [sp, #4]
  400620:	2b00      	cmp	r3, #0
  400622:	d0fc      	beq.n	40061e <prvTaskExitError+0x3a>
  400624:	b002      	add	sp, #8
  400626:	4770      	bx	lr
  400628:	2040000c 	.word	0x2040000c

0040062c <prvPortStartFirstTask>:
  40062c:	4808      	ldr	r0, [pc, #32]	; (400650 <prvPortStartFirstTask+0x24>)
  40062e:	6800      	ldr	r0, [r0, #0]
  400630:	6800      	ldr	r0, [r0, #0]
  400632:	f380 8808 	msr	MSP, r0
  400636:	f04f 0000 	mov.w	r0, #0
  40063a:	f380 8814 	msr	CONTROL, r0
  40063e:	b662      	cpsie	i
  400640:	b661      	cpsie	f
  400642:	f3bf 8f4f 	dsb	sy
  400646:	f3bf 8f6f 	isb	sy
  40064a:	df00      	svc	0
  40064c:	bf00      	nop
  40064e:	0000      	.short	0x0000
  400650:	e000ed08 	.word	0xe000ed08

00400654 <vPortEnableVFP>:
  400654:	f8df 000c 	ldr.w	r0, [pc, #12]	; 400664 <vPortEnableVFP+0x10>
  400658:	6801      	ldr	r1, [r0, #0]
  40065a:	f441 0170 	orr.w	r1, r1, #15728640	; 0xf00000
  40065e:	6001      	str	r1, [r0, #0]
  400660:	4770      	bx	lr
  400662:	0000      	.short	0x0000
  400664:	e000ed88 	.word	0xe000ed88

00400668 <pxPortInitialiseStack>:
  400668:	f04f 7380 	mov.w	r3, #16777216	; 0x1000000
  40066c:	f840 3c04 	str.w	r3, [r0, #-4]
  400670:	f021 0101 	bic.w	r1, r1, #1
  400674:	f840 1c08 	str.w	r1, [r0, #-8]
  400678:	4b05      	ldr	r3, [pc, #20]	; (400690 <pxPortInitialiseStack+0x28>)
  40067a:	f840 3c0c 	str.w	r3, [r0, #-12]
  40067e:	f840 2c20 	str.w	r2, [r0, #-32]
  400682:	f06f 0302 	mvn.w	r3, #2
  400686:	f840 3c24 	str.w	r3, [r0, #-36]
  40068a:	3844      	subs	r0, #68	; 0x44
  40068c:	4770      	bx	lr
  40068e:	bf00      	nop
  400690:	004005e5 	.word	0x004005e5

00400694 <vPortEnterCritical>:
  400694:	f04f 0380 	mov.w	r3, #128	; 0x80
  400698:	b672      	cpsid	i
  40069a:	f383 8811 	msr	BASEPRI, r3
  40069e:	f3bf 8f6f 	isb	sy
  4006a2:	f3bf 8f4f 	dsb	sy
  4006a6:	b662      	cpsie	i
  4006a8:	4a0b      	ldr	r2, [pc, #44]	; (4006d8 <vPortEnterCritical+0x44>)
  4006aa:	6813      	ldr	r3, [r2, #0]
  4006ac:	3301      	adds	r3, #1
  4006ae:	6013      	str	r3, [r2, #0]
  4006b0:	2b01      	cmp	r3, #1
  4006b2:	d10f      	bne.n	4006d4 <vPortEnterCritical+0x40>
  4006b4:	4b09      	ldr	r3, [pc, #36]	; (4006dc <vPortEnterCritical+0x48>)
  4006b6:	681b      	ldr	r3, [r3, #0]
  4006b8:	f013 0fff 	tst.w	r3, #255	; 0xff
  4006bc:	d00a      	beq.n	4006d4 <vPortEnterCritical+0x40>
  4006be:	f04f 0380 	mov.w	r3, #128	; 0x80
  4006c2:	b672      	cpsid	i
  4006c4:	f383 8811 	msr	BASEPRI, r3
  4006c8:	f3bf 8f6f 	isb	sy
  4006cc:	f3bf 8f4f 	dsb	sy
  4006d0:	b662      	cpsie	i
  4006d2:	e7fe      	b.n	4006d2 <vPortEnterCritical+0x3e>
  4006d4:	4770      	bx	lr
  4006d6:	bf00      	nop
  4006d8:	2040000c 	.word	0x2040000c
  4006dc:	e000ed04 	.word	0xe000ed04

004006e0 <vPortExitCritical>:
  4006e0:	4b0a      	ldr	r3, [pc, #40]	; (40070c <vPortExitCritical+0x2c>)
  4006e2:	681b      	ldr	r3, [r3, #0]
  4006e4:	b953      	cbnz	r3, 4006fc <vPortExitCritical+0x1c>
  4006e6:	f04f 0380 	mov.w	r3, #128	; 0x80
  4006ea:	b672      	cpsid	i
  4006ec:	f383 8811 	msr	BASEPRI, r3
  4006f0:	f3bf 8f6f 	isb	sy
  4006f4:	f3bf 8f4f 	dsb	sy
  4006f8:	b662      	cpsie	i
  4006fa:	e7fe      	b.n	4006fa <vPortExitCritical+0x1a>
  4006fc:	3b01      	subs	r3, #1
  4006fe:	4a03      	ldr	r2, [pc, #12]	; (40070c <vPortExitCritical+0x2c>)
  400700:	6013      	str	r3, [r2, #0]
  400702:	b90b      	cbnz	r3, 400708 <vPortExitCritical+0x28>
  400704:	f383 8811 	msr	BASEPRI, r3
  400708:	4770      	bx	lr
  40070a:	bf00      	nop
  40070c:	2040000c 	.word	0x2040000c

00400710 <vPortSetupTimerInterrupt>:
  400710:	4b05      	ldr	r3, [pc, #20]	; (400728 <vPortSetupTimerInterrupt+0x18>)
  400712:	2200      	movs	r2, #0
  400714:	601a      	str	r2, [r3, #0]
  400716:	4905      	ldr	r1, [pc, #20]	; (40072c <vPortSetupTimerInterrupt+0x1c>)
  400718:	600a      	str	r2, [r1, #0]
  40071a:	f641 713f 	movw	r1, #7999	; 0x1f3f
  40071e:	4a04      	ldr	r2, [pc, #16]	; (400730 <vPortSetupTimerInterrupt+0x20>)
  400720:	6011      	str	r1, [r2, #0]
  400722:	2207      	movs	r2, #7
  400724:	601a      	str	r2, [r3, #0]
  400726:	4770      	bx	lr
  400728:	e000e010 	.word	0xe000e010
  40072c:	e000e018 	.word	0xe000e018
  400730:	e000e014 	.word	0xe000e014

00400734 <xPortStartScheduler>:
  400734:	b510      	push	{r4, lr}
  400736:	b082      	sub	sp, #8
  400738:	4b2e      	ldr	r3, [pc, #184]	; (4007f4 <xPortStartScheduler+0xc0>)
  40073a:	781a      	ldrb	r2, [r3, #0]
  40073c:	b2d2      	uxtb	r2, r2
  40073e:	9201      	str	r2, [sp, #4]
  400740:	22ff      	movs	r2, #255	; 0xff
  400742:	701a      	strb	r2, [r3, #0]
  400744:	781b      	ldrb	r3, [r3, #0]
  400746:	b2db      	uxtb	r3, r3
  400748:	f88d 3003 	strb.w	r3, [sp, #3]
  40074c:	f89d 3003 	ldrb.w	r3, [sp, #3]
  400750:	f003 0380 	and.w	r3, r3, #128	; 0x80
  400754:	4a28      	ldr	r2, [pc, #160]	; (4007f8 <xPortStartScheduler+0xc4>)
  400756:	7013      	strb	r3, [r2, #0]
  400758:	2207      	movs	r2, #7
  40075a:	4b28      	ldr	r3, [pc, #160]	; (4007fc <xPortStartScheduler+0xc8>)
  40075c:	601a      	str	r2, [r3, #0]
  40075e:	f89d 3003 	ldrb.w	r3, [sp, #3]
  400762:	f013 0f80 	tst.w	r3, #128	; 0x80
  400766:	d012      	beq.n	40078e <xPortStartScheduler+0x5a>
  400768:	2306      	movs	r3, #6
  40076a:	e000      	b.n	40076e <xPortStartScheduler+0x3a>
  40076c:	460b      	mov	r3, r1
  40076e:	f89d 2003 	ldrb.w	r2, [sp, #3]
  400772:	0052      	lsls	r2, r2, #1
  400774:	b2d2      	uxtb	r2, r2
  400776:	f88d 2003 	strb.w	r2, [sp, #3]
  40077a:	f89d 2003 	ldrb.w	r2, [sp, #3]
  40077e:	1e59      	subs	r1, r3, #1
  400780:	f012 0f80 	tst.w	r2, #128	; 0x80
  400784:	d1f2      	bne.n	40076c <xPortStartScheduler+0x38>
  400786:	4a1d      	ldr	r2, [pc, #116]	; (4007fc <xPortStartScheduler+0xc8>)
  400788:	6013      	str	r3, [r2, #0]
  40078a:	2b04      	cmp	r3, #4
  40078c:	d00a      	beq.n	4007a4 <xPortStartScheduler+0x70>
  40078e:	f04f 0380 	mov.w	r3, #128	; 0x80
  400792:	b672      	cpsid	i
  400794:	f383 8811 	msr	BASEPRI, r3
  400798:	f3bf 8f6f 	isb	sy
  40079c:	f3bf 8f4f 	dsb	sy
  4007a0:	b662      	cpsie	i
  4007a2:	e7fe      	b.n	4007a2 <xPortStartScheduler+0x6e>
  4007a4:	021b      	lsls	r3, r3, #8
  4007a6:	f403 63e0 	and.w	r3, r3, #1792	; 0x700
  4007aa:	4a14      	ldr	r2, [pc, #80]	; (4007fc <xPortStartScheduler+0xc8>)
  4007ac:	6013      	str	r3, [r2, #0]
  4007ae:	9b01      	ldr	r3, [sp, #4]
  4007b0:	b2db      	uxtb	r3, r3
  4007b2:	4a10      	ldr	r2, [pc, #64]	; (4007f4 <xPortStartScheduler+0xc0>)
  4007b4:	7013      	strb	r3, [r2, #0]
  4007b6:	4b12      	ldr	r3, [pc, #72]	; (400800 <xPortStartScheduler+0xcc>)
  4007b8:	681a      	ldr	r2, [r3, #0]
  4007ba:	f442 0260 	orr.w	r2, r2, #14680064	; 0xe00000
  4007be:	601a      	str	r2, [r3, #0]
  4007c0:	681a      	ldr	r2, [r3, #0]
  4007c2:	f042 4260 	orr.w	r2, r2, #3758096384	; 0xe0000000
  4007c6:	601a      	str	r2, [r3, #0]
  4007c8:	4b0e      	ldr	r3, [pc, #56]	; (400804 <xPortStartScheduler+0xd0>)
  4007ca:	4798      	blx	r3
  4007cc:	2400      	movs	r4, #0
  4007ce:	4b0e      	ldr	r3, [pc, #56]	; (400808 <xPortStartScheduler+0xd4>)
  4007d0:	601c      	str	r4, [r3, #0]
  4007d2:	4b0e      	ldr	r3, [pc, #56]	; (40080c <xPortStartScheduler+0xd8>)
  4007d4:	4798      	blx	r3
  4007d6:	4a0e      	ldr	r2, [pc, #56]	; (400810 <xPortStartScheduler+0xdc>)
  4007d8:	6813      	ldr	r3, [r2, #0]
  4007da:	f043 4340 	orr.w	r3, r3, #3221225472	; 0xc0000000
  4007de:	6013      	str	r3, [r2, #0]
  4007e0:	4b0c      	ldr	r3, [pc, #48]	; (400814 <xPortStartScheduler+0xe0>)
  4007e2:	4798      	blx	r3
  4007e4:	4b0c      	ldr	r3, [pc, #48]	; (400818 <xPortStartScheduler+0xe4>)
  4007e6:	4798      	blx	r3
  4007e8:	4b0c      	ldr	r3, [pc, #48]	; (40081c <xPortStartScheduler+0xe8>)
  4007ea:	4798      	blx	r3
  4007ec:	4620      	mov	r0, r4
  4007ee:	b002      	add	sp, #8
  4007f0:	bd10      	pop	{r4, pc}
  4007f2:	bf00      	nop
  4007f4:	e000e400 	.word	0xe000e400
  4007f8:	204009f4 	.word	0x204009f4
  4007fc:	204009f8 	.word	0x204009f8
  400800:	e000ed20 	.word	0xe000ed20
  400804:	00400711 	.word	0x00400711
  400808:	2040000c 	.word	0x2040000c
  40080c:	00400655 	.word	0x00400655
  400810:	e000ef34 	.word	0xe000ef34
  400814:	0040062d 	.word	0x0040062d
  400818:	004019cd 	.word	0x004019cd
  40081c:	004005e5 	.word	0x004005e5

00400820 <vPortValidateInterruptPriority>:
  400820:	f3ef 8305 	mrs	r3, IPSR
  400824:	2b0f      	cmp	r3, #15
  400826:	d911      	bls.n	40084c <vPortValidateInterruptPriority+0x2c>
  400828:	4a12      	ldr	r2, [pc, #72]	; (400874 <vPortValidateInterruptPriority+0x54>)
  40082a:	5c9b      	ldrb	r3, [r3, r2]
  40082c:	b2db      	uxtb	r3, r3
  40082e:	4a12      	ldr	r2, [pc, #72]	; (400878 <vPortValidateInterruptPriority+0x58>)
  400830:	7812      	ldrb	r2, [r2, #0]
  400832:	429a      	cmp	r2, r3
  400834:	d90a      	bls.n	40084c <vPortValidateInterruptPriority+0x2c>
  400836:	f04f 0380 	mov.w	r3, #128	; 0x80
  40083a:	b672      	cpsid	i
  40083c:	f383 8811 	msr	BASEPRI, r3
  400840:	f3bf 8f6f 	isb	sy
  400844:	f3bf 8f4f 	dsb	sy
  400848:	b662      	cpsie	i
  40084a:	e7fe      	b.n	40084a <vPortValidateInterruptPriority+0x2a>
  40084c:	4b0b      	ldr	r3, [pc, #44]	; (40087c <vPortValidateInterruptPriority+0x5c>)
  40084e:	681b      	ldr	r3, [r3, #0]
  400850:	f403 63e0 	and.w	r3, r3, #1792	; 0x700
  400854:	4a0a      	ldr	r2, [pc, #40]	; (400880 <vPortValidateInterruptPriority+0x60>)
  400856:	6812      	ldr	r2, [r2, #0]
  400858:	4293      	cmp	r3, r2
  40085a:	d90a      	bls.n	400872 <vPortValidateInterruptPriority+0x52>
  40085c:	f04f 0380 	mov.w	r3, #128	; 0x80
  400860:	b672      	cpsid	i
  400862:	f383 8811 	msr	BASEPRI, r3
  400866:	f3bf 8f6f 	isb	sy
  40086a:	f3bf 8f4f 	dsb	sy
  40086e:	b662      	cpsie	i
  400870:	e7fe      	b.n	400870 <vPortValidateInterruptPriority+0x50>
  400872:	4770      	bx	lr
  400874:	e000e3f0 	.word	0xe000e3f0
  400878:	204009f4 	.word	0x204009f4
  40087c:	e000ed0c 	.word	0xe000ed0c
  400880:	204009f8 	.word	0x204009f8

00400884 <pvPortMalloc>:
  400884:	b538      	push	{r3, r4, r5, lr}
  400886:	4604      	mov	r4, r0
  400888:	f010 0f07 	tst.w	r0, #7
  40088c:	d002      	beq.n	400894 <pvPortMalloc+0x10>
  40088e:	f020 0407 	bic.w	r4, r0, #7
  400892:	3408      	adds	r4, #8
  400894:	4b11      	ldr	r3, [pc, #68]	; (4008dc <pvPortMalloc+0x58>)
  400896:	4798      	blx	r3
  400898:	4b11      	ldr	r3, [pc, #68]	; (4008e0 <pvPortMalloc+0x5c>)
  40089a:	681b      	ldr	r3, [r3, #0]
  40089c:	b193      	cbz	r3, 4008c4 <pvPortMalloc+0x40>
  40089e:	4b11      	ldr	r3, [pc, #68]	; (4008e4 <pvPortMalloc+0x60>)
  4008a0:	681b      	ldr	r3, [r3, #0]
  4008a2:	441c      	add	r4, r3
  4008a4:	42a3      	cmp	r3, r4
  4008a6:	d213      	bcs.n	4008d0 <pvPortMalloc+0x4c>
  4008a8:	f24b 72f7 	movw	r2, #47095	; 0xb7f7
  4008ac:	4294      	cmp	r4, r2
  4008ae:	d80f      	bhi.n	4008d0 <pvPortMalloc+0x4c>
  4008b0:	4a0b      	ldr	r2, [pc, #44]	; (4008e0 <pvPortMalloc+0x5c>)
  4008b2:	6815      	ldr	r5, [r2, #0]
  4008b4:	441d      	add	r5, r3
  4008b6:	4b0b      	ldr	r3, [pc, #44]	; (4008e4 <pvPortMalloc+0x60>)
  4008b8:	601c      	str	r4, [r3, #0]
  4008ba:	4b0b      	ldr	r3, [pc, #44]	; (4008e8 <pvPortMalloc+0x64>)
  4008bc:	4798      	blx	r3
  4008be:	b14d      	cbz	r5, 4008d4 <pvPortMalloc+0x50>
  4008c0:	4628      	mov	r0, r5
  4008c2:	bd38      	pop	{r3, r4, r5, pc}
  4008c4:	4b09      	ldr	r3, [pc, #36]	; (4008ec <pvPortMalloc+0x68>)
  4008c6:	f023 0307 	bic.w	r3, r3, #7
  4008ca:	4a05      	ldr	r2, [pc, #20]	; (4008e0 <pvPortMalloc+0x5c>)
  4008cc:	6013      	str	r3, [r2, #0]
  4008ce:	e7e6      	b.n	40089e <pvPortMalloc+0x1a>
  4008d0:	4b05      	ldr	r3, [pc, #20]	; (4008e8 <pvPortMalloc+0x64>)
  4008d2:	4798      	blx	r3
  4008d4:	4b06      	ldr	r3, [pc, #24]	; (4008f0 <pvPortMalloc+0x6c>)
  4008d6:	4798      	blx	r3
  4008d8:	2500      	movs	r5, #0
  4008da:	e7f1      	b.n	4008c0 <pvPortMalloc+0x3c>
  4008dc:	004016f5 	.word	0x004016f5
  4008e0:	204009fc 	.word	0x204009fc
  4008e4:	2040c200 	.word	0x2040c200
  4008e8:	00401859 	.word	0x00401859
  4008ec:	20400a08 	.word	0x20400a08
  4008f0:	00403dd3 	.word	0x00403dd3

004008f4 <vPortFree>:
  4008f4:	b150      	cbz	r0, 40090c <vPortFree+0x18>
  4008f6:	f04f 0380 	mov.w	r3, #128	; 0x80
  4008fa:	b672      	cpsid	i
  4008fc:	f383 8811 	msr	BASEPRI, r3
  400900:	f3bf 8f6f 	isb	sy
  400904:	f3bf 8f4f 	dsb	sy
  400908:	b662      	cpsie	i
  40090a:	e7fe      	b.n	40090a <vPortFree+0x16>
  40090c:	4770      	bx	lr
	...

00400910 <prvIsQueueEmpty>:
  400910:	b510      	push	{r4, lr}
  400912:	4604      	mov	r4, r0
  400914:	4b04      	ldr	r3, [pc, #16]	; (400928 <prvIsQueueEmpty+0x18>)
  400916:	4798      	blx	r3
  400918:	6ba4      	ldr	r4, [r4, #56]	; 0x38
  40091a:	4b04      	ldr	r3, [pc, #16]	; (40092c <prvIsQueueEmpty+0x1c>)
  40091c:	4798      	blx	r3
  40091e:	fab4 f084 	clz	r0, r4
  400922:	0940      	lsrs	r0, r0, #5
  400924:	bd10      	pop	{r4, pc}
  400926:	bf00      	nop
  400928:	00400695 	.word	0x00400695
  40092c:	004006e1 	.word	0x004006e1

00400930 <prvCopyDataToQueue>:
  400930:	b570      	push	{r4, r5, r6, lr}
  400932:	4604      	mov	r4, r0
  400934:	4616      	mov	r6, r2
  400936:	6b85      	ldr	r5, [r0, #56]	; 0x38
  400938:	6c02      	ldr	r2, [r0, #64]	; 0x40
  40093a:	b952      	cbnz	r2, 400952 <prvCopyDataToQueue+0x22>
  40093c:	6803      	ldr	r3, [r0, #0]
  40093e:	2b00      	cmp	r3, #0
  400940:	d12a      	bne.n	400998 <prvCopyDataToQueue+0x68>
  400942:	6840      	ldr	r0, [r0, #4]
  400944:	4b17      	ldr	r3, [pc, #92]	; (4009a4 <prvCopyDataToQueue+0x74>)
  400946:	4798      	blx	r3
  400948:	2300      	movs	r3, #0
  40094a:	6063      	str	r3, [r4, #4]
  40094c:	3501      	adds	r5, #1
  40094e:	63a5      	str	r5, [r4, #56]	; 0x38
  400950:	bd70      	pop	{r4, r5, r6, pc}
  400952:	b96e      	cbnz	r6, 400970 <prvCopyDataToQueue+0x40>
  400954:	6880      	ldr	r0, [r0, #8]
  400956:	4b14      	ldr	r3, [pc, #80]	; (4009a8 <prvCopyDataToQueue+0x78>)
  400958:	4798      	blx	r3
  40095a:	68a3      	ldr	r3, [r4, #8]
  40095c:	6c22      	ldr	r2, [r4, #64]	; 0x40
  40095e:	4413      	add	r3, r2
  400960:	60a3      	str	r3, [r4, #8]
  400962:	6862      	ldr	r2, [r4, #4]
  400964:	4293      	cmp	r3, r2
  400966:	d319      	bcc.n	40099c <prvCopyDataToQueue+0x6c>
  400968:	6823      	ldr	r3, [r4, #0]
  40096a:	60a3      	str	r3, [r4, #8]
  40096c:	2000      	movs	r0, #0
  40096e:	e7ed      	b.n	40094c <prvCopyDataToQueue+0x1c>
  400970:	68c0      	ldr	r0, [r0, #12]
  400972:	4b0d      	ldr	r3, [pc, #52]	; (4009a8 <prvCopyDataToQueue+0x78>)
  400974:	4798      	blx	r3
  400976:	6c23      	ldr	r3, [r4, #64]	; 0x40
  400978:	425b      	negs	r3, r3
  40097a:	68e2      	ldr	r2, [r4, #12]
  40097c:	441a      	add	r2, r3
  40097e:	60e2      	str	r2, [r4, #12]
  400980:	6821      	ldr	r1, [r4, #0]
  400982:	428a      	cmp	r2, r1
  400984:	d202      	bcs.n	40098c <prvCopyDataToQueue+0x5c>
  400986:	6862      	ldr	r2, [r4, #4]
  400988:	4413      	add	r3, r2
  40098a:	60e3      	str	r3, [r4, #12]
  40098c:	b145      	cbz	r5, 4009a0 <prvCopyDataToQueue+0x70>
  40098e:	2e02      	cmp	r6, #2
  400990:	d106      	bne.n	4009a0 <prvCopyDataToQueue+0x70>
  400992:	3d01      	subs	r5, #1
  400994:	2000      	movs	r0, #0
  400996:	e7d9      	b.n	40094c <prvCopyDataToQueue+0x1c>
  400998:	2000      	movs	r0, #0
  40099a:	e7d7      	b.n	40094c <prvCopyDataToQueue+0x1c>
  40099c:	2000      	movs	r0, #0
  40099e:	e7d5      	b.n	40094c <prvCopyDataToQueue+0x1c>
  4009a0:	2000      	movs	r0, #0
  4009a2:	e7d3      	b.n	40094c <prvCopyDataToQueue+0x1c>
  4009a4:	00401d51 	.word	0x00401d51
  4009a8:	004070ad 	.word	0x004070ad

004009ac <prvNotifyQueueSetContainer>:
  4009ac:	b570      	push	{r4, r5, r6, lr}
  4009ae:	b082      	sub	sp, #8
  4009b0:	9001      	str	r0, [sp, #4]
  4009b2:	6c84      	ldr	r4, [r0, #72]	; 0x48
  4009b4:	b174      	cbz	r4, 4009d4 <prvNotifyQueueSetContainer+0x28>
  4009b6:	6ba2      	ldr	r2, [r4, #56]	; 0x38
  4009b8:	6be3      	ldr	r3, [r4, #60]	; 0x3c
  4009ba:	429a      	cmp	r2, r3
  4009bc:	d315      	bcc.n	4009ea <prvNotifyQueueSetContainer+0x3e>
  4009be:	f04f 0380 	mov.w	r3, #128	; 0x80
  4009c2:	b672      	cpsid	i
  4009c4:	f383 8811 	msr	BASEPRI, r3
  4009c8:	f3bf 8f6f 	isb	sy
  4009cc:	f3bf 8f4f 	dsb	sy
  4009d0:	b662      	cpsie	i
  4009d2:	e7fe      	b.n	4009d2 <prvNotifyQueueSetContainer+0x26>
  4009d4:	f04f 0380 	mov.w	r3, #128	; 0x80
  4009d8:	b672      	cpsid	i
  4009da:	f383 8811 	msr	BASEPRI, r3
  4009de:	f3bf 8f6f 	isb	sy
  4009e2:	f3bf 8f4f 	dsb	sy
  4009e6:	b662      	cpsie	i
  4009e8:	e7fe      	b.n	4009e8 <prvNotifyQueueSetContainer+0x3c>
  4009ea:	6ba2      	ldr	r2, [r4, #56]	; 0x38
  4009ec:	4293      	cmp	r3, r2
  4009ee:	d803      	bhi.n	4009f8 <prvNotifyQueueSetContainer+0x4c>
  4009f0:	2600      	movs	r6, #0
  4009f2:	4630      	mov	r0, r6
  4009f4:	b002      	add	sp, #8
  4009f6:	bd70      	pop	{r4, r5, r6, pc}
  4009f8:	460a      	mov	r2, r1
  4009fa:	f894 5045 	ldrb.w	r5, [r4, #69]	; 0x45
  4009fe:	b26d      	sxtb	r5, r5
  400a00:	a901      	add	r1, sp, #4
  400a02:	4620      	mov	r0, r4
  400a04:	4b0a      	ldr	r3, [pc, #40]	; (400a30 <prvNotifyQueueSetContainer+0x84>)
  400a06:	4798      	blx	r3
  400a08:	4606      	mov	r6, r0
  400a0a:	f1b5 3fff 	cmp.w	r5, #4294967295
  400a0e:	d10a      	bne.n	400a26 <prvNotifyQueueSetContainer+0x7a>
  400a10:	6a63      	ldr	r3, [r4, #36]	; 0x24
  400a12:	2b00      	cmp	r3, #0
  400a14:	d0ed      	beq.n	4009f2 <prvNotifyQueueSetContainer+0x46>
  400a16:	f104 0024 	add.w	r0, r4, #36	; 0x24
  400a1a:	4b06      	ldr	r3, [pc, #24]	; (400a34 <prvNotifyQueueSetContainer+0x88>)
  400a1c:	4798      	blx	r3
  400a1e:	2800      	cmp	r0, #0
  400a20:	bf18      	it	ne
  400a22:	2601      	movne	r6, #1
  400a24:	e7e5      	b.n	4009f2 <prvNotifyQueueSetContainer+0x46>
  400a26:	1c6b      	adds	r3, r5, #1
  400a28:	b25b      	sxtb	r3, r3
  400a2a:	f884 3045 	strb.w	r3, [r4, #69]	; 0x45
  400a2e:	e7e0      	b.n	4009f2 <prvNotifyQueueSetContainer+0x46>
  400a30:	00400931 	.word	0x00400931
  400a34:	00401b21 	.word	0x00401b21

00400a38 <prvCopyDataFromQueue>:
  400a38:	6c02      	ldr	r2, [r0, #64]	; 0x40
  400a3a:	b172      	cbz	r2, 400a5a <prvCopyDataFromQueue+0x22>
  400a3c:	b510      	push	{r4, lr}
  400a3e:	4603      	mov	r3, r0
  400a40:	68c4      	ldr	r4, [r0, #12]
  400a42:	4414      	add	r4, r2
  400a44:	60c4      	str	r4, [r0, #12]
  400a46:	6840      	ldr	r0, [r0, #4]
  400a48:	4284      	cmp	r4, r0
  400a4a:	d301      	bcc.n	400a50 <prvCopyDataFromQueue+0x18>
  400a4c:	6818      	ldr	r0, [r3, #0]
  400a4e:	60d8      	str	r0, [r3, #12]
  400a50:	4608      	mov	r0, r1
  400a52:	68d9      	ldr	r1, [r3, #12]
  400a54:	4b01      	ldr	r3, [pc, #4]	; (400a5c <prvCopyDataFromQueue+0x24>)
  400a56:	4798      	blx	r3
  400a58:	bd10      	pop	{r4, pc}
  400a5a:	4770      	bx	lr
  400a5c:	004070ad 	.word	0x004070ad

00400a60 <prvUnlockQueue>:
  400a60:	e92d 41f0 	stmdb	sp!, {r4, r5, r6, r7, r8, lr}
  400a64:	4605      	mov	r5, r0
  400a66:	4b23      	ldr	r3, [pc, #140]	; (400af4 <prvUnlockQueue+0x94>)
  400a68:	4798      	blx	r3
  400a6a:	f895 4045 	ldrb.w	r4, [r5, #69]	; 0x45
  400a6e:	b264      	sxtb	r4, r4
  400a70:	2c00      	cmp	r4, #0
  400a72:	dd19      	ble.n	400aa8 <prvUnlockQueue+0x48>
  400a74:	4e20      	ldr	r6, [pc, #128]	; (400af8 <prvUnlockQueue+0x98>)
  400a76:	f8df 808c 	ldr.w	r8, [pc, #140]	; 400b04 <prvUnlockQueue+0xa4>
  400a7a:	4f20      	ldr	r7, [pc, #128]	; (400afc <prvUnlockQueue+0x9c>)
  400a7c:	e008      	b.n	400a90 <prvUnlockQueue+0x30>
  400a7e:	6a6b      	ldr	r3, [r5, #36]	; 0x24
  400a80:	b193      	cbz	r3, 400aa8 <prvUnlockQueue+0x48>
  400a82:	f105 0024 	add.w	r0, r5, #36	; 0x24
  400a86:	47b8      	blx	r7
  400a88:	b960      	cbnz	r0, 400aa4 <prvUnlockQueue+0x44>
  400a8a:	3c01      	subs	r4, #1
  400a8c:	b264      	sxtb	r4, r4
  400a8e:	b15c      	cbz	r4, 400aa8 <prvUnlockQueue+0x48>
  400a90:	6cab      	ldr	r3, [r5, #72]	; 0x48
  400a92:	2b00      	cmp	r3, #0
  400a94:	d0f3      	beq.n	400a7e <prvUnlockQueue+0x1e>
  400a96:	2100      	movs	r1, #0
  400a98:	4628      	mov	r0, r5
  400a9a:	47b0      	blx	r6
  400a9c:	2800      	cmp	r0, #0
  400a9e:	d0f4      	beq.n	400a8a <prvUnlockQueue+0x2a>
  400aa0:	47c0      	blx	r8
  400aa2:	e7f2      	b.n	400a8a <prvUnlockQueue+0x2a>
  400aa4:	47c0      	blx	r8
  400aa6:	e7f0      	b.n	400a8a <prvUnlockQueue+0x2a>
  400aa8:	23ff      	movs	r3, #255	; 0xff
  400aaa:	f885 3045 	strb.w	r3, [r5, #69]	; 0x45
  400aae:	4b14      	ldr	r3, [pc, #80]	; (400b00 <prvUnlockQueue+0xa0>)
  400ab0:	4798      	blx	r3
  400ab2:	4b10      	ldr	r3, [pc, #64]	; (400af4 <prvUnlockQueue+0x94>)
  400ab4:	4798      	blx	r3
  400ab6:	f895 4044 	ldrb.w	r4, [r5, #68]	; 0x44
  400aba:	b264      	sxtb	r4, r4
  400abc:	2c00      	cmp	r4, #0
  400abe:	dd12      	ble.n	400ae6 <prvUnlockQueue+0x86>
  400ac0:	692b      	ldr	r3, [r5, #16]
  400ac2:	b183      	cbz	r3, 400ae6 <prvUnlockQueue+0x86>
  400ac4:	f105 0710 	add.w	r7, r5, #16
  400ac8:	4e0c      	ldr	r6, [pc, #48]	; (400afc <prvUnlockQueue+0x9c>)
  400aca:	f8df 8038 	ldr.w	r8, [pc, #56]	; 400b04 <prvUnlockQueue+0xa4>
  400ace:	e004      	b.n	400ada <prvUnlockQueue+0x7a>
  400ad0:	3c01      	subs	r4, #1
  400ad2:	b264      	sxtb	r4, r4
  400ad4:	b13c      	cbz	r4, 400ae6 <prvUnlockQueue+0x86>
  400ad6:	692b      	ldr	r3, [r5, #16]
  400ad8:	b12b      	cbz	r3, 400ae6 <prvUnlockQueue+0x86>
  400ada:	4638      	mov	r0, r7
  400adc:	47b0      	blx	r6
  400ade:	2800      	cmp	r0, #0
  400ae0:	d0f6      	beq.n	400ad0 <prvUnlockQueue+0x70>
  400ae2:	47c0      	blx	r8
  400ae4:	e7f4      	b.n	400ad0 <prvUnlockQueue+0x70>
  400ae6:	23ff      	movs	r3, #255	; 0xff
  400ae8:	f885 3044 	strb.w	r3, [r5, #68]	; 0x44
  400aec:	4b04      	ldr	r3, [pc, #16]	; (400b00 <prvUnlockQueue+0xa0>)
  400aee:	4798      	blx	r3
  400af0:	e8bd 81f0 	ldmia.w	sp!, {r4, r5, r6, r7, r8, pc}
  400af4:	00400695 	.word	0x00400695
  400af8:	004009ad 	.word	0x004009ad
  400afc:	00401b21 	.word	0x00401b21
  400b00:	004006e1 	.word	0x004006e1
  400b04:	00401c65 	.word	0x00401c65

00400b08 <xQueueGenericReset>:
  400b08:	b538      	push	{r3, r4, r5, lr}
  400b0a:	b330      	cbz	r0, 400b5a <xQueueGenericReset+0x52>
  400b0c:	4604      	mov	r4, r0
  400b0e:	460d      	mov	r5, r1
  400b10:	4b1d      	ldr	r3, [pc, #116]	; (400b88 <xQueueGenericReset+0x80>)
  400b12:	4798      	blx	r3
  400b14:	6822      	ldr	r2, [r4, #0]
  400b16:	6c21      	ldr	r1, [r4, #64]	; 0x40
  400b18:	6be3      	ldr	r3, [r4, #60]	; 0x3c
  400b1a:	fb03 f301 	mul.w	r3, r3, r1
  400b1e:	18d0      	adds	r0, r2, r3
  400b20:	6060      	str	r0, [r4, #4]
  400b22:	2000      	movs	r0, #0
  400b24:	63a0      	str	r0, [r4, #56]	; 0x38
  400b26:	60a2      	str	r2, [r4, #8]
  400b28:	1a5b      	subs	r3, r3, r1
  400b2a:	4413      	add	r3, r2
  400b2c:	60e3      	str	r3, [r4, #12]
  400b2e:	23ff      	movs	r3, #255	; 0xff
  400b30:	f884 3044 	strb.w	r3, [r4, #68]	; 0x44
  400b34:	f884 3045 	strb.w	r3, [r4, #69]	; 0x45
  400b38:	b9d5      	cbnz	r5, 400b70 <xQueueGenericReset+0x68>
  400b3a:	6923      	ldr	r3, [r4, #16]
  400b3c:	b1fb      	cbz	r3, 400b7e <xQueueGenericReset+0x76>
  400b3e:	f104 0010 	add.w	r0, r4, #16
  400b42:	4b12      	ldr	r3, [pc, #72]	; (400b8c <xQueueGenericReset+0x84>)
  400b44:	4798      	blx	r3
  400b46:	b1d0      	cbz	r0, 400b7e <xQueueGenericReset+0x76>
  400b48:	f04f 5280 	mov.w	r2, #268435456	; 0x10000000
  400b4c:	4b10      	ldr	r3, [pc, #64]	; (400b90 <xQueueGenericReset+0x88>)
  400b4e:	601a      	str	r2, [r3, #0]
  400b50:	f3bf 8f4f 	dsb	sy
  400b54:	f3bf 8f6f 	isb	sy
  400b58:	e011      	b.n	400b7e <xQueueGenericReset+0x76>
  400b5a:	f04f 0380 	mov.w	r3, #128	; 0x80
  400b5e:	b672      	cpsid	i
  400b60:	f383 8811 	msr	BASEPRI, r3
  400b64:	f3bf 8f6f 	isb	sy
  400b68:	f3bf 8f4f 	dsb	sy
  400b6c:	b662      	cpsie	i
  400b6e:	e7fe      	b.n	400b6e <xQueueGenericReset+0x66>
  400b70:	f104 0010 	add.w	r0, r4, #16
  400b74:	4d07      	ldr	r5, [pc, #28]	; (400b94 <xQueueGenericReset+0x8c>)
  400b76:	47a8      	blx	r5
  400b78:	f104 0024 	add.w	r0, r4, #36	; 0x24
  400b7c:	47a8      	blx	r5
  400b7e:	4b06      	ldr	r3, [pc, #24]	; (400b98 <xQueueGenericReset+0x90>)
  400b80:	4798      	blx	r3
  400b82:	2001      	movs	r0, #1
  400b84:	bd38      	pop	{r3, r4, r5, pc}
  400b86:	bf00      	nop
  400b88:	00400695 	.word	0x00400695
  400b8c:	00401b21 	.word	0x00401b21
  400b90:	e000ed04 	.word	0xe000ed04
  400b94:	00400555 	.word	0x00400555
  400b98:	004006e1 	.word	0x004006e1

00400b9c <xQueueGenericCreate>:
  400b9c:	b5f8      	push	{r3, r4, r5, r6, r7, lr}
  400b9e:	b950      	cbnz	r0, 400bb6 <xQueueGenericCreate+0x1a>
  400ba0:	f04f 0380 	mov.w	r3, #128	; 0x80
  400ba4:	b672      	cpsid	i
  400ba6:	f383 8811 	msr	BASEPRI, r3
  400baa:	f3bf 8f6f 	isb	sy
  400bae:	f3bf 8f4f 	dsb	sy
  400bb2:	b662      	cpsie	i
  400bb4:	e7fe      	b.n	400bb4 <xQueueGenericCreate+0x18>
  400bb6:	4606      	mov	r6, r0
  400bb8:	4617      	mov	r7, r2
  400bba:	460d      	mov	r5, r1
  400bbc:	fb01 f000 	mul.w	r0, r1, r0
  400bc0:	3054      	adds	r0, #84	; 0x54
  400bc2:	4b0b      	ldr	r3, [pc, #44]	; (400bf0 <xQueueGenericCreate+0x54>)
  400bc4:	4798      	blx	r3
  400bc6:	4604      	mov	r4, r0
  400bc8:	b178      	cbz	r0, 400bea <xQueueGenericCreate+0x4e>
  400bca:	b11d      	cbz	r5, 400bd4 <xQueueGenericCreate+0x38>
  400bcc:	f100 0354 	add.w	r3, r0, #84	; 0x54
  400bd0:	6003      	str	r3, [r0, #0]
  400bd2:	e000      	b.n	400bd6 <xQueueGenericCreate+0x3a>
  400bd4:	6020      	str	r0, [r4, #0]
  400bd6:	63e6      	str	r6, [r4, #60]	; 0x3c
  400bd8:	6425      	str	r5, [r4, #64]	; 0x40
  400bda:	2101      	movs	r1, #1
  400bdc:	4620      	mov	r0, r4
  400bde:	4b05      	ldr	r3, [pc, #20]	; (400bf4 <xQueueGenericCreate+0x58>)
  400be0:	4798      	blx	r3
  400be2:	f884 7050 	strb.w	r7, [r4, #80]	; 0x50
  400be6:	2300      	movs	r3, #0
  400be8:	64a3      	str	r3, [r4, #72]	; 0x48
  400bea:	4620      	mov	r0, r4
  400bec:	bdf8      	pop	{r3, r4, r5, r6, r7, pc}
  400bee:	bf00      	nop
  400bf0:	00400885 	.word	0x00400885
  400bf4:	00400b09 	.word	0x00400b09

00400bf8 <xQueueGenericSend>:
  400bf8:	e92d 4ff0 	stmdb	sp!, {r4, r5, r6, r7, r8, r9, sl, fp, lr}
  400bfc:	b085      	sub	sp, #20
  400bfe:	9201      	str	r2, [sp, #4]
  400c00:	b1b8      	cbz	r0, 400c32 <xQueueGenericSend+0x3a>
  400c02:	4604      	mov	r4, r0
  400c04:	b301      	cbz	r1, 400c48 <xQueueGenericSend+0x50>
  400c06:	2b02      	cmp	r3, #2
  400c08:	d02c      	beq.n	400c64 <xQueueGenericSend+0x6c>
  400c0a:	461e      	mov	r6, r3
  400c0c:	460f      	mov	r7, r1
  400c0e:	4b69      	ldr	r3, [pc, #420]	; (400db4 <xQueueGenericSend+0x1bc>)
  400c10:	4798      	blx	r3
  400c12:	2800      	cmp	r0, #0
  400c14:	d134      	bne.n	400c80 <xQueueGenericSend+0x88>
  400c16:	9b01      	ldr	r3, [sp, #4]
  400c18:	2b00      	cmp	r3, #0
  400c1a:	d039      	beq.n	400c90 <xQueueGenericSend+0x98>
  400c1c:	f04f 0380 	mov.w	r3, #128	; 0x80
  400c20:	b672      	cpsid	i
  400c22:	f383 8811 	msr	BASEPRI, r3
  400c26:	f3bf 8f6f 	isb	sy
  400c2a:	f3bf 8f4f 	dsb	sy
  400c2e:	b662      	cpsie	i
  400c30:	e7fe      	b.n	400c30 <xQueueGenericSend+0x38>
  400c32:	f04f 0380 	mov.w	r3, #128	; 0x80
  400c36:	b672      	cpsid	i
  400c38:	f383 8811 	msr	BASEPRI, r3
  400c3c:	f3bf 8f6f 	isb	sy
  400c40:	f3bf 8f4f 	dsb	sy
  400c44:	b662      	cpsie	i
  400c46:	e7fe      	b.n	400c46 <xQueueGenericSend+0x4e>
  400c48:	6c02      	ldr	r2, [r0, #64]	; 0x40
  400c4a:	2a00      	cmp	r2, #0
  400c4c:	d0db      	beq.n	400c06 <xQueueGenericSend+0xe>
  400c4e:	f04f 0380 	mov.w	r3, #128	; 0x80
  400c52:	b672      	cpsid	i
  400c54:	f383 8811 	msr	BASEPRI, r3
  400c58:	f3bf 8f6f 	isb	sy
  400c5c:	f3bf 8f4f 	dsb	sy
  400c60:	b662      	cpsie	i
  400c62:	e7fe      	b.n	400c62 <xQueueGenericSend+0x6a>
  400c64:	6be2      	ldr	r2, [r4, #60]	; 0x3c
  400c66:	2a01      	cmp	r2, #1
  400c68:	d0cf      	beq.n	400c0a <xQueueGenericSend+0x12>
  400c6a:	f04f 0380 	mov.w	r3, #128	; 0x80
  400c6e:	b672      	cpsid	i
  400c70:	f383 8811 	msr	BASEPRI, r3
  400c74:	f3bf 8f6f 	isb	sy
  400c78:	f3bf 8f4f 	dsb	sy
  400c7c:	b662      	cpsie	i
  400c7e:	e7fe      	b.n	400c7e <xQueueGenericSend+0x86>
  400c80:	2500      	movs	r5, #0
  400c82:	f8df 815c 	ldr.w	r8, [pc, #348]	; 400de0 <xQueueGenericSend+0x1e8>
  400c86:	f8df a15c 	ldr.w	sl, [pc, #348]	; 400de4 <xQueueGenericSend+0x1ec>
  400c8a:	f8df 9134 	ldr.w	r9, [pc, #308]	; 400dc0 <xQueueGenericSend+0x1c8>
  400c8e:	e041      	b.n	400d14 <xQueueGenericSend+0x11c>
  400c90:	2500      	movs	r5, #0
  400c92:	e7f6      	b.n	400c82 <xQueueGenericSend+0x8a>
  400c94:	4632      	mov	r2, r6
  400c96:	4639      	mov	r1, r7
  400c98:	4620      	mov	r0, r4
  400c9a:	4b47      	ldr	r3, [pc, #284]	; (400db8 <xQueueGenericSend+0x1c0>)
  400c9c:	4798      	blx	r3
  400c9e:	6ca3      	ldr	r3, [r4, #72]	; 0x48
  400ca0:	b193      	cbz	r3, 400cc8 <xQueueGenericSend+0xd0>
  400ca2:	4631      	mov	r1, r6
  400ca4:	4620      	mov	r0, r4
  400ca6:	4b45      	ldr	r3, [pc, #276]	; (400dbc <xQueueGenericSend+0x1c4>)
  400ca8:	4798      	blx	r3
  400caa:	b138      	cbz	r0, 400cbc <xQueueGenericSend+0xc4>
  400cac:	f04f 5280 	mov.w	r2, #268435456	; 0x10000000
  400cb0:	4b43      	ldr	r3, [pc, #268]	; (400dc0 <xQueueGenericSend+0x1c8>)
  400cb2:	601a      	str	r2, [r3, #0]
  400cb4:	f3bf 8f4f 	dsb	sy
  400cb8:	f3bf 8f6f 	isb	sy
  400cbc:	4b41      	ldr	r3, [pc, #260]	; (400dc4 <xQueueGenericSend+0x1cc>)
  400cbe:	4798      	blx	r3
  400cc0:	2001      	movs	r0, #1
  400cc2:	b005      	add	sp, #20
  400cc4:	e8bd 8ff0 	ldmia.w	sp!, {r4, r5, r6, r7, r8, r9, sl, fp, pc}
  400cc8:	6a63      	ldr	r3, [r4, #36]	; 0x24
  400cca:	b173      	cbz	r3, 400cea <xQueueGenericSend+0xf2>
  400ccc:	f104 0024 	add.w	r0, r4, #36	; 0x24
  400cd0:	4b3d      	ldr	r3, [pc, #244]	; (400dc8 <xQueueGenericSend+0x1d0>)
  400cd2:	4798      	blx	r3
  400cd4:	2800      	cmp	r0, #0
  400cd6:	d0f1      	beq.n	400cbc <xQueueGenericSend+0xc4>
  400cd8:	f04f 5280 	mov.w	r2, #268435456	; 0x10000000
  400cdc:	4b38      	ldr	r3, [pc, #224]	; (400dc0 <xQueueGenericSend+0x1c8>)
  400cde:	601a      	str	r2, [r3, #0]
  400ce0:	f3bf 8f4f 	dsb	sy
  400ce4:	f3bf 8f6f 	isb	sy
  400ce8:	e7e8      	b.n	400cbc <xQueueGenericSend+0xc4>
  400cea:	2800      	cmp	r0, #0
  400cec:	d0e6      	beq.n	400cbc <xQueueGenericSend+0xc4>
  400cee:	f04f 5280 	mov.w	r2, #268435456	; 0x10000000
  400cf2:	4b33      	ldr	r3, [pc, #204]	; (400dc0 <xQueueGenericSend+0x1c8>)
  400cf4:	601a      	str	r2, [r3, #0]
  400cf6:	f3bf 8f4f 	dsb	sy
  400cfa:	f3bf 8f6f 	isb	sy
  400cfe:	e7dd      	b.n	400cbc <xQueueGenericSend+0xc4>
  400d00:	4b30      	ldr	r3, [pc, #192]	; (400dc4 <xQueueGenericSend+0x1cc>)
  400d02:	4798      	blx	r3
  400d04:	2000      	movs	r0, #0
  400d06:	e7dc      	b.n	400cc2 <xQueueGenericSend+0xca>
  400d08:	4620      	mov	r0, r4
  400d0a:	4b30      	ldr	r3, [pc, #192]	; (400dcc <xQueueGenericSend+0x1d4>)
  400d0c:	4798      	blx	r3
  400d0e:	4b30      	ldr	r3, [pc, #192]	; (400dd0 <xQueueGenericSend+0x1d8>)
  400d10:	4798      	blx	r3
  400d12:	2501      	movs	r5, #1
  400d14:	47c0      	blx	r8
  400d16:	6ba2      	ldr	r2, [r4, #56]	; 0x38
  400d18:	6be3      	ldr	r3, [r4, #60]	; 0x3c
  400d1a:	429a      	cmp	r2, r3
  400d1c:	d3ba      	bcc.n	400c94 <xQueueGenericSend+0x9c>
  400d1e:	2e02      	cmp	r6, #2
  400d20:	d0b8      	beq.n	400c94 <xQueueGenericSend+0x9c>
  400d22:	9b01      	ldr	r3, [sp, #4]
  400d24:	2b00      	cmp	r3, #0
  400d26:	d0eb      	beq.n	400d00 <xQueueGenericSend+0x108>
  400d28:	b90d      	cbnz	r5, 400d2e <xQueueGenericSend+0x136>
  400d2a:	a802      	add	r0, sp, #8
  400d2c:	47d0      	blx	sl
  400d2e:	4b25      	ldr	r3, [pc, #148]	; (400dc4 <xQueueGenericSend+0x1cc>)
  400d30:	4798      	blx	r3
  400d32:	4b28      	ldr	r3, [pc, #160]	; (400dd4 <xQueueGenericSend+0x1dc>)
  400d34:	4798      	blx	r3
  400d36:	47c0      	blx	r8
  400d38:	f894 3044 	ldrb.w	r3, [r4, #68]	; 0x44
  400d3c:	b25b      	sxtb	r3, r3
  400d3e:	f1b3 3fff 	cmp.w	r3, #4294967295
  400d42:	d102      	bne.n	400d4a <xQueueGenericSend+0x152>
  400d44:	2300      	movs	r3, #0
  400d46:	f884 3044 	strb.w	r3, [r4, #68]	; 0x44
  400d4a:	f894 3045 	ldrb.w	r3, [r4, #69]	; 0x45
  400d4e:	b25b      	sxtb	r3, r3
  400d50:	f1b3 3fff 	cmp.w	r3, #4294967295
  400d54:	d102      	bne.n	400d5c <xQueueGenericSend+0x164>
  400d56:	2300      	movs	r3, #0
  400d58:	f884 3045 	strb.w	r3, [r4, #69]	; 0x45
  400d5c:	4b19      	ldr	r3, [pc, #100]	; (400dc4 <xQueueGenericSend+0x1cc>)
  400d5e:	4798      	blx	r3
  400d60:	a901      	add	r1, sp, #4
  400d62:	a802      	add	r0, sp, #8
  400d64:	4b1c      	ldr	r3, [pc, #112]	; (400dd8 <xQueueGenericSend+0x1e0>)
  400d66:	4798      	blx	r3
  400d68:	b9e0      	cbnz	r0, 400da4 <xQueueGenericSend+0x1ac>
  400d6a:	47c0      	blx	r8
  400d6c:	f8d4 b038 	ldr.w	fp, [r4, #56]	; 0x38
  400d70:	6be5      	ldr	r5, [r4, #60]	; 0x3c
  400d72:	4b14      	ldr	r3, [pc, #80]	; (400dc4 <xQueueGenericSend+0x1cc>)
  400d74:	4798      	blx	r3
  400d76:	45ab      	cmp	fp, r5
  400d78:	d1c6      	bne.n	400d08 <xQueueGenericSend+0x110>
  400d7a:	9901      	ldr	r1, [sp, #4]
  400d7c:	f104 0010 	add.w	r0, r4, #16
  400d80:	4b16      	ldr	r3, [pc, #88]	; (400ddc <xQueueGenericSend+0x1e4>)
  400d82:	4798      	blx	r3
  400d84:	4620      	mov	r0, r4
  400d86:	4b11      	ldr	r3, [pc, #68]	; (400dcc <xQueueGenericSend+0x1d4>)
  400d88:	4798      	blx	r3
  400d8a:	4b11      	ldr	r3, [pc, #68]	; (400dd0 <xQueueGenericSend+0x1d8>)
  400d8c:	4798      	blx	r3
  400d8e:	2800      	cmp	r0, #0
  400d90:	d1bf      	bne.n	400d12 <xQueueGenericSend+0x11a>
  400d92:	f04f 5380 	mov.w	r3, #268435456	; 0x10000000
  400d96:	f8c9 3000 	str.w	r3, [r9]
  400d9a:	f3bf 8f4f 	dsb	sy
  400d9e:	f3bf 8f6f 	isb	sy
  400da2:	e7b6      	b.n	400d12 <xQueueGenericSend+0x11a>
  400da4:	4620      	mov	r0, r4
  400da6:	4b09      	ldr	r3, [pc, #36]	; (400dcc <xQueueGenericSend+0x1d4>)
  400da8:	4798      	blx	r3
  400daa:	4b09      	ldr	r3, [pc, #36]	; (400dd0 <xQueueGenericSend+0x1d8>)
  400dac:	4798      	blx	r3
  400dae:	2000      	movs	r0, #0
  400db0:	e787      	b.n	400cc2 <xQueueGenericSend+0xca>
  400db2:	bf00      	nop
  400db4:	00401c71 	.word	0x00401c71
  400db8:	00400931 	.word	0x00400931
  400dbc:	004009ad 	.word	0x004009ad
  400dc0:	e000ed04 	.word	0xe000ed04
  400dc4:	004006e1 	.word	0x004006e1
  400dc8:	00401b21 	.word	0x00401b21
  400dcc:	00400a61 	.word	0x00400a61
  400dd0:	00401859 	.word	0x00401859
  400dd4:	004016f5 	.word	0x004016f5
  400dd8:	00401bd1 	.word	0x00401bd1
  400ddc:	00401a9d 	.word	0x00401a9d
  400de0:	00400695 	.word	0x00400695
  400de4:	00401bb9 	.word	0x00401bb9

00400de8 <xQueueGenericSendFromISR>:
  400de8:	e92d 43f8 	stmdb	sp!, {r3, r4, r5, r6, r7, r8, r9, lr}
  400dec:	2800      	cmp	r0, #0
  400dee:	d039      	beq.n	400e64 <xQueueGenericSendFromISR+0x7c>
  400df0:	4604      	mov	r4, r0
  400df2:	2900      	cmp	r1, #0
  400df4:	d041      	beq.n	400e7a <xQueueGenericSendFromISR+0x92>
  400df6:	2b02      	cmp	r3, #2
  400df8:	d04d      	beq.n	400e96 <xQueueGenericSendFromISR+0xae>
  400dfa:	461f      	mov	r7, r3
  400dfc:	4690      	mov	r8, r2
  400dfe:	4689      	mov	r9, r1
  400e00:	4b3a      	ldr	r3, [pc, #232]	; (400eec <xQueueGenericSendFromISR+0x104>)
  400e02:	4798      	blx	r3
  400e04:	f3ef 8611 	mrs	r6, BASEPRI
  400e08:	f04f 0380 	mov.w	r3, #128	; 0x80
  400e0c:	b672      	cpsid	i
  400e0e:	f383 8811 	msr	BASEPRI, r3
  400e12:	f3bf 8f6f 	isb	sy
  400e16:	f3bf 8f4f 	dsb	sy
  400e1a:	b662      	cpsie	i
  400e1c:	6ba2      	ldr	r2, [r4, #56]	; 0x38
  400e1e:	6be3      	ldr	r3, [r4, #60]	; 0x3c
  400e20:	429a      	cmp	r2, r3
  400e22:	d301      	bcc.n	400e28 <xQueueGenericSendFromISR+0x40>
  400e24:	2f02      	cmp	r7, #2
  400e26:	d158      	bne.n	400eda <xQueueGenericSendFromISR+0xf2>
  400e28:	f894 5045 	ldrb.w	r5, [r4, #69]	; 0x45
  400e2c:	b26d      	sxtb	r5, r5
  400e2e:	463a      	mov	r2, r7
  400e30:	4649      	mov	r1, r9
  400e32:	4620      	mov	r0, r4
  400e34:	4b2e      	ldr	r3, [pc, #184]	; (400ef0 <xQueueGenericSendFromISR+0x108>)
  400e36:	4798      	blx	r3
  400e38:	f1b5 3fff 	cmp.w	r5, #4294967295
  400e3c:	d147      	bne.n	400ece <xQueueGenericSendFromISR+0xe6>
  400e3e:	6ca3      	ldr	r3, [r4, #72]	; 0x48
  400e40:	2b00      	cmp	r3, #0
  400e42:	d036      	beq.n	400eb2 <xQueueGenericSendFromISR+0xca>
  400e44:	4639      	mov	r1, r7
  400e46:	4620      	mov	r0, r4
  400e48:	4b2a      	ldr	r3, [pc, #168]	; (400ef4 <xQueueGenericSendFromISR+0x10c>)
  400e4a:	4798      	blx	r3
  400e4c:	f1b8 0f00 	cmp.w	r8, #0
  400e50:	d045      	beq.n	400ede <xQueueGenericSendFromISR+0xf6>
  400e52:	2800      	cmp	r0, #0
  400e54:	d043      	beq.n	400ede <xQueueGenericSendFromISR+0xf6>
  400e56:	2001      	movs	r0, #1
  400e58:	f8c8 0000 	str.w	r0, [r8]
  400e5c:	f386 8811 	msr	BASEPRI, r6
  400e60:	e8bd 83f8 	ldmia.w	sp!, {r3, r4, r5, r6, r7, r8, r9, pc}
  400e64:	f04f 0380 	mov.w	r3, #128	; 0x80
  400e68:	b672      	cpsid	i
  400e6a:	f383 8811 	msr	BASEPRI, r3
  400e6e:	f3bf 8f6f 	isb	sy
  400e72:	f3bf 8f4f 	dsb	sy
  400e76:	b662      	cpsie	i
  400e78:	e7fe      	b.n	400e78 <xQueueGenericSendFromISR+0x90>
  400e7a:	6c00      	ldr	r0, [r0, #64]	; 0x40
  400e7c:	2800      	cmp	r0, #0
  400e7e:	d0ba      	beq.n	400df6 <xQueueGenericSendFromISR+0xe>
  400e80:	f04f 0380 	mov.w	r3, #128	; 0x80
  400e84:	b672      	cpsid	i
  400e86:	f383 8811 	msr	BASEPRI, r3
  400e8a:	f3bf 8f6f 	isb	sy
  400e8e:	f3bf 8f4f 	dsb	sy
  400e92:	b662      	cpsie	i
  400e94:	e7fe      	b.n	400e94 <xQueueGenericSendFromISR+0xac>
  400e96:	6be0      	ldr	r0, [r4, #60]	; 0x3c
  400e98:	2801      	cmp	r0, #1
  400e9a:	d0ae      	beq.n	400dfa <xQueueGenericSendFromISR+0x12>
  400e9c:	f04f 0380 	mov.w	r3, #128	; 0x80
  400ea0:	b672      	cpsid	i
  400ea2:	f383 8811 	msr	BASEPRI, r3
  400ea6:	f3bf 8f6f 	isb	sy
  400eaa:	f3bf 8f4f 	dsb	sy
  400eae:	b662      	cpsie	i
  400eb0:	e7fe      	b.n	400eb0 <xQueueGenericSendFromISR+0xc8>
  400eb2:	6a63      	ldr	r3, [r4, #36]	; 0x24
  400eb4:	b1ab      	cbz	r3, 400ee2 <xQueueGenericSendFromISR+0xfa>
  400eb6:	f104 0024 	add.w	r0, r4, #36	; 0x24
  400eba:	4b0f      	ldr	r3, [pc, #60]	; (400ef8 <xQueueGenericSendFromISR+0x110>)
  400ebc:	4798      	blx	r3
  400ebe:	f1b8 0f00 	cmp.w	r8, #0
  400ec2:	d010      	beq.n	400ee6 <xQueueGenericSendFromISR+0xfe>
  400ec4:	b178      	cbz	r0, 400ee6 <xQueueGenericSendFromISR+0xfe>
  400ec6:	2001      	movs	r0, #1
  400ec8:	f8c8 0000 	str.w	r0, [r8]
  400ecc:	e7c6      	b.n	400e5c <xQueueGenericSendFromISR+0x74>
  400ece:	1c6b      	adds	r3, r5, #1
  400ed0:	b25b      	sxtb	r3, r3
  400ed2:	f884 3045 	strb.w	r3, [r4, #69]	; 0x45
  400ed6:	2001      	movs	r0, #1
  400ed8:	e7c0      	b.n	400e5c <xQueueGenericSendFromISR+0x74>
  400eda:	2000      	movs	r0, #0
  400edc:	e7be      	b.n	400e5c <xQueueGenericSendFromISR+0x74>
  400ede:	2001      	movs	r0, #1
  400ee0:	e7bc      	b.n	400e5c <xQueueGenericSendFromISR+0x74>
  400ee2:	2001      	movs	r0, #1
  400ee4:	e7ba      	b.n	400e5c <xQueueGenericSendFromISR+0x74>
  400ee6:	2001      	movs	r0, #1
  400ee8:	e7b8      	b.n	400e5c <xQueueGenericSendFromISR+0x74>
  400eea:	bf00      	nop
  400eec:	00400821 	.word	0x00400821
  400ef0:	00400931 	.word	0x00400931
  400ef4:	004009ad 	.word	0x004009ad
  400ef8:	00401b21 	.word	0x00401b21

00400efc <xQueueReceive>:
  400efc:	e92d 47f0 	stmdb	sp!, {r4, r5, r6, r7, r8, r9, sl, lr}
  400f00:	b084      	sub	sp, #16
  400f02:	9201      	str	r2, [sp, #4]
  400f04:	b190      	cbz	r0, 400f2c <xQueueReceive+0x30>
  400f06:	4604      	mov	r4, r0
  400f08:	b1d9      	cbz	r1, 400f42 <xQueueReceive+0x46>
  400f0a:	460e      	mov	r6, r1
  400f0c:	4b54      	ldr	r3, [pc, #336]	; (401060 <xQueueReceive+0x164>)
  400f0e:	4798      	blx	r3
  400f10:	bb28      	cbnz	r0, 400f5e <xQueueReceive+0x62>
  400f12:	9b01      	ldr	r3, [sp, #4]
  400f14:	b35b      	cbz	r3, 400f6e <xQueueReceive+0x72>
  400f16:	f04f 0380 	mov.w	r3, #128	; 0x80
  400f1a:	b672      	cpsid	i
  400f1c:	f383 8811 	msr	BASEPRI, r3
  400f20:	f3bf 8f6f 	isb	sy
  400f24:	f3bf 8f4f 	dsb	sy
  400f28:	b662      	cpsie	i
  400f2a:	e7fe      	b.n	400f2a <xQueueReceive+0x2e>
  400f2c:	f04f 0380 	mov.w	r3, #128	; 0x80
  400f30:	b672      	cpsid	i
  400f32:	f383 8811 	msr	BASEPRI, r3
  400f36:	f3bf 8f6f 	isb	sy
  400f3a:	f3bf 8f4f 	dsb	sy
  400f3e:	b662      	cpsie	i
  400f40:	e7fe      	b.n	400f40 <xQueueReceive+0x44>
  400f42:	6c03      	ldr	r3, [r0, #64]	; 0x40
  400f44:	2b00      	cmp	r3, #0
  400f46:	d0e0      	beq.n	400f0a <xQueueReceive+0xe>
  400f48:	f04f 0380 	mov.w	r3, #128	; 0x80
  400f4c:	b672      	cpsid	i
  400f4e:	f383 8811 	msr	BASEPRI, r3
  400f52:	f3bf 8f6f 	isb	sy
  400f56:	f3bf 8f4f 	dsb	sy
  400f5a:	b662      	cpsie	i
  400f5c:	e7fe      	b.n	400f5c <xQueueReceive+0x60>
  400f5e:	2700      	movs	r7, #0
  400f60:	f8df 8128 	ldr.w	r8, [pc, #296]	; 40108c <xQueueReceive+0x190>
  400f64:	f8df a128 	ldr.w	sl, [pc, #296]	; 401090 <xQueueReceive+0x194>
  400f68:	f8df 9100 	ldr.w	r9, [pc, #256]	; 40106c <xQueueReceive+0x170>
  400f6c:	e031      	b.n	400fd2 <xQueueReceive+0xd6>
  400f6e:	2700      	movs	r7, #0
  400f70:	e7f6      	b.n	400f60 <xQueueReceive+0x64>
  400f72:	4631      	mov	r1, r6
  400f74:	4620      	mov	r0, r4
  400f76:	4b3b      	ldr	r3, [pc, #236]	; (401064 <xQueueReceive+0x168>)
  400f78:	4798      	blx	r3
  400f7a:	3d01      	subs	r5, #1
  400f7c:	63a5      	str	r5, [r4, #56]	; 0x38
  400f7e:	6923      	ldr	r3, [r4, #16]
  400f80:	b163      	cbz	r3, 400f9c <xQueueReceive+0xa0>
  400f82:	f104 0010 	add.w	r0, r4, #16
  400f86:	4b38      	ldr	r3, [pc, #224]	; (401068 <xQueueReceive+0x16c>)
  400f88:	4798      	blx	r3
  400f8a:	b138      	cbz	r0, 400f9c <xQueueReceive+0xa0>
  400f8c:	f04f 5280 	mov.w	r2, #268435456	; 0x10000000
  400f90:	4b36      	ldr	r3, [pc, #216]	; (40106c <xQueueReceive+0x170>)
  400f92:	601a      	str	r2, [r3, #0]
  400f94:	f3bf 8f4f 	dsb	sy
  400f98:	f3bf 8f6f 	isb	sy
  400f9c:	4b34      	ldr	r3, [pc, #208]	; (401070 <xQueueReceive+0x174>)
  400f9e:	4798      	blx	r3
  400fa0:	2001      	movs	r0, #1
  400fa2:	b004      	add	sp, #16
  400fa4:	e8bd 87f0 	ldmia.w	sp!, {r4, r5, r6, r7, r8, r9, sl, pc}
  400fa8:	4b31      	ldr	r3, [pc, #196]	; (401070 <xQueueReceive+0x174>)
  400faa:	4798      	blx	r3
  400fac:	2000      	movs	r0, #0
  400fae:	e7f8      	b.n	400fa2 <xQueueReceive+0xa6>
  400fb0:	a802      	add	r0, sp, #8
  400fb2:	47d0      	blx	sl
  400fb4:	e016      	b.n	400fe4 <xQueueReceive+0xe8>
  400fb6:	2300      	movs	r3, #0
  400fb8:	f884 3044 	strb.w	r3, [r4, #68]	; 0x44
  400fbc:	e01d      	b.n	400ffa <xQueueReceive+0xfe>
  400fbe:	2300      	movs	r3, #0
  400fc0:	f884 3045 	strb.w	r3, [r4, #69]	; 0x45
  400fc4:	e01f      	b.n	401006 <xQueueReceive+0x10a>
  400fc6:	4620      	mov	r0, r4
  400fc8:	4b2a      	ldr	r3, [pc, #168]	; (401074 <xQueueReceive+0x178>)
  400fca:	4798      	blx	r3
  400fcc:	4b2a      	ldr	r3, [pc, #168]	; (401078 <xQueueReceive+0x17c>)
  400fce:	4798      	blx	r3
  400fd0:	2701      	movs	r7, #1
  400fd2:	47c0      	blx	r8
  400fd4:	6ba5      	ldr	r5, [r4, #56]	; 0x38
  400fd6:	2d00      	cmp	r5, #0
  400fd8:	d1cb      	bne.n	400f72 <xQueueReceive+0x76>
  400fda:	9b01      	ldr	r3, [sp, #4]
  400fdc:	2b00      	cmp	r3, #0
  400fde:	d0e3      	beq.n	400fa8 <xQueueReceive+0xac>
  400fe0:	2f00      	cmp	r7, #0
  400fe2:	d0e5      	beq.n	400fb0 <xQueueReceive+0xb4>
  400fe4:	4b22      	ldr	r3, [pc, #136]	; (401070 <xQueueReceive+0x174>)
  400fe6:	4798      	blx	r3
  400fe8:	4b24      	ldr	r3, [pc, #144]	; (40107c <xQueueReceive+0x180>)
  400fea:	4798      	blx	r3
  400fec:	47c0      	blx	r8
  400fee:	f894 3044 	ldrb.w	r3, [r4, #68]	; 0x44
  400ff2:	b25b      	sxtb	r3, r3
  400ff4:	f1b3 3fff 	cmp.w	r3, #4294967295
  400ff8:	d0dd      	beq.n	400fb6 <xQueueReceive+0xba>
  400ffa:	f894 3045 	ldrb.w	r3, [r4, #69]	; 0x45
  400ffe:	b25b      	sxtb	r3, r3
  401000:	f1b3 3fff 	cmp.w	r3, #4294967295
  401004:	d0db      	beq.n	400fbe <xQueueReceive+0xc2>
  401006:	4b1a      	ldr	r3, [pc, #104]	; (401070 <xQueueReceive+0x174>)
  401008:	4798      	blx	r3
  40100a:	a901      	add	r1, sp, #4
  40100c:	a802      	add	r0, sp, #8
  40100e:	4b1c      	ldr	r3, [pc, #112]	; (401080 <xQueueReceive+0x184>)
  401010:	4798      	blx	r3
  401012:	b9c8      	cbnz	r0, 401048 <xQueueReceive+0x14c>
  401014:	4620      	mov	r0, r4
  401016:	4b1b      	ldr	r3, [pc, #108]	; (401084 <xQueueReceive+0x188>)
  401018:	4798      	blx	r3
  40101a:	2800      	cmp	r0, #0
  40101c:	d0d3      	beq.n	400fc6 <xQueueReceive+0xca>
  40101e:	9901      	ldr	r1, [sp, #4]
  401020:	f104 0024 	add.w	r0, r4, #36	; 0x24
  401024:	4b18      	ldr	r3, [pc, #96]	; (401088 <xQueueReceive+0x18c>)
  401026:	4798      	blx	r3
  401028:	4620      	mov	r0, r4
  40102a:	4b12      	ldr	r3, [pc, #72]	; (401074 <xQueueReceive+0x178>)
  40102c:	4798      	blx	r3
  40102e:	4b12      	ldr	r3, [pc, #72]	; (401078 <xQueueReceive+0x17c>)
  401030:	4798      	blx	r3
  401032:	2800      	cmp	r0, #0
  401034:	d1cc      	bne.n	400fd0 <xQueueReceive+0xd4>
  401036:	f04f 5380 	mov.w	r3, #268435456	; 0x10000000
  40103a:	f8c9 3000 	str.w	r3, [r9]
  40103e:	f3bf 8f4f 	dsb	sy
  401042:	f3bf 8f6f 	isb	sy
  401046:	e7c3      	b.n	400fd0 <xQueueReceive+0xd4>
  401048:	4620      	mov	r0, r4
  40104a:	4b0a      	ldr	r3, [pc, #40]	; (401074 <xQueueReceive+0x178>)
  40104c:	4798      	blx	r3
  40104e:	4b0a      	ldr	r3, [pc, #40]	; (401078 <xQueueReceive+0x17c>)
  401050:	4798      	blx	r3
  401052:	4620      	mov	r0, r4
  401054:	4b0b      	ldr	r3, [pc, #44]	; (401084 <xQueueReceive+0x188>)
  401056:	4798      	blx	r3
  401058:	2800      	cmp	r0, #0
  40105a:	d0b9      	beq.n	400fd0 <xQueueReceive+0xd4>
  40105c:	2000      	movs	r0, #0
  40105e:	e7a0      	b.n	400fa2 <xQueueReceive+0xa6>
  401060:	00401c71 	.word	0x00401c71
  401064:	00400a39 	.word	0x00400a39
  401068:	00401b21 	.word	0x00401b21
  40106c:	e000ed04 	.word	0xe000ed04
  401070:	004006e1 	.word	0x004006e1
  401074:	00400a61 	.word	0x00400a61
  401078:	00401859 	.word	0x00401859
  40107c:	004016f5 	.word	0x004016f5
  401080:	00401bd1 	.word	0x00401bd1
  401084:	00400911 	.word	0x00400911
  401088:	00401a9d 	.word	0x00401a9d
  40108c:	00400695 	.word	0x00400695
  401090:	00401bb9 	.word	0x00401bb9

00401094 <xQueueSemaphoreTake>:
  401094:	e92d 43f0 	stmdb	sp!, {r4, r5, r6, r7, r8, r9, lr}
  401098:	b085      	sub	sp, #20
  40109a:	9101      	str	r1, [sp, #4]
  40109c:	b168      	cbz	r0, 4010ba <xQueueSemaphoreTake+0x26>
  40109e:	4604      	mov	r4, r0
  4010a0:	6c03      	ldr	r3, [r0, #64]	; 0x40
  4010a2:	b1ab      	cbz	r3, 4010d0 <xQueueSemaphoreTake+0x3c>
  4010a4:	f04f 0380 	mov.w	r3, #128	; 0x80
  4010a8:	b672      	cpsid	i
  4010aa:	f383 8811 	msr	BASEPRI, r3
  4010ae:	f3bf 8f6f 	isb	sy
  4010b2:	f3bf 8f4f 	dsb	sy
  4010b6:	b662      	cpsie	i
  4010b8:	e7fe      	b.n	4010b8 <xQueueSemaphoreTake+0x24>
  4010ba:	f04f 0380 	mov.w	r3, #128	; 0x80
  4010be:	b672      	cpsid	i
  4010c0:	f383 8811 	msr	BASEPRI, r3
  4010c4:	f3bf 8f6f 	isb	sy
  4010c8:	f3bf 8f4f 	dsb	sy
  4010cc:	b662      	cpsie	i
  4010ce:	e7fe      	b.n	4010ce <xQueueSemaphoreTake+0x3a>
  4010d0:	4b5e      	ldr	r3, [pc, #376]	; (40124c <xQueueSemaphoreTake+0x1b8>)
  4010d2:	4798      	blx	r3
  4010d4:	b960      	cbnz	r0, 4010f0 <xQueueSemaphoreTake+0x5c>
  4010d6:	9b01      	ldr	r3, [sp, #4]
  4010d8:	b193      	cbz	r3, 401100 <xQueueSemaphoreTake+0x6c>
  4010da:	f04f 0380 	mov.w	r3, #128	; 0x80
  4010de:	b672      	cpsid	i
  4010e0:	f383 8811 	msr	BASEPRI, r3
  4010e4:	f3bf 8f6f 	isb	sy
  4010e8:	f3bf 8f4f 	dsb	sy
  4010ec:	b662      	cpsie	i
  4010ee:	e7fe      	b.n	4010ee <xQueueSemaphoreTake+0x5a>
  4010f0:	2500      	movs	r5, #0
  4010f2:	462f      	mov	r7, r5
  4010f4:	4e56      	ldr	r6, [pc, #344]	; (401250 <xQueueSemaphoreTake+0x1bc>)
  4010f6:	f8df 918c 	ldr.w	r9, [pc, #396]	; 401284 <xQueueSemaphoreTake+0x1f0>
  4010fa:	f8df 8160 	ldr.w	r8, [pc, #352]	; 40125c <xQueueSemaphoreTake+0x1c8>
  4010fe:	e052      	b.n	4011a6 <xQueueSemaphoreTake+0x112>
  401100:	2500      	movs	r5, #0
  401102:	462f      	mov	r7, r5
  401104:	e7f6      	b.n	4010f4 <xQueueSemaphoreTake+0x60>
  401106:	3b01      	subs	r3, #1
  401108:	63a3      	str	r3, [r4, #56]	; 0x38
  40110a:	6823      	ldr	r3, [r4, #0]
  40110c:	b913      	cbnz	r3, 401114 <xQueueSemaphoreTake+0x80>
  40110e:	4b51      	ldr	r3, [pc, #324]	; (401254 <xQueueSemaphoreTake+0x1c0>)
  401110:	4798      	blx	r3
  401112:	6060      	str	r0, [r4, #4]
  401114:	6923      	ldr	r3, [r4, #16]
  401116:	b163      	cbz	r3, 401132 <xQueueSemaphoreTake+0x9e>
  401118:	f104 0010 	add.w	r0, r4, #16
  40111c:	4b4e      	ldr	r3, [pc, #312]	; (401258 <xQueueSemaphoreTake+0x1c4>)
  40111e:	4798      	blx	r3
  401120:	b138      	cbz	r0, 401132 <xQueueSemaphoreTake+0x9e>
  401122:	f04f 5280 	mov.w	r2, #268435456	; 0x10000000
  401126:	4b4d      	ldr	r3, [pc, #308]	; (40125c <xQueueSemaphoreTake+0x1c8>)
  401128:	601a      	str	r2, [r3, #0]
  40112a:	f3bf 8f4f 	dsb	sy
  40112e:	f3bf 8f6f 	isb	sy
  401132:	4b4b      	ldr	r3, [pc, #300]	; (401260 <xQueueSemaphoreTake+0x1cc>)
  401134:	4798      	blx	r3
  401136:	2501      	movs	r5, #1
  401138:	4628      	mov	r0, r5
  40113a:	b005      	add	sp, #20
  40113c:	e8bd 83f0 	ldmia.w	sp!, {r4, r5, r6, r7, r8, r9, pc}
  401140:	b155      	cbz	r5, 401158 <xQueueSemaphoreTake+0xc4>
  401142:	f04f 0380 	mov.w	r3, #128	; 0x80
  401146:	b672      	cpsid	i
  401148:	f383 8811 	msr	BASEPRI, r3
  40114c:	f3bf 8f6f 	isb	sy
  401150:	f3bf 8f4f 	dsb	sy
  401154:	b662      	cpsie	i
  401156:	e7fe      	b.n	401156 <xQueueSemaphoreTake+0xc2>
  401158:	4b41      	ldr	r3, [pc, #260]	; (401260 <xQueueSemaphoreTake+0x1cc>)
  40115a:	4798      	blx	r3
  40115c:	e7ec      	b.n	401138 <xQueueSemaphoreTake+0xa4>
  40115e:	a802      	add	r0, sp, #8
  401160:	47c8      	blx	r9
  401162:	e029      	b.n	4011b8 <xQueueSemaphoreTake+0x124>
  401164:	2300      	movs	r3, #0
  401166:	f884 3044 	strb.w	r3, [r4, #68]	; 0x44
  40116a:	e030      	b.n	4011ce <xQueueSemaphoreTake+0x13a>
  40116c:	2300      	movs	r3, #0
  40116e:	f884 3045 	strb.w	r3, [r4, #69]	; 0x45
  401172:	e032      	b.n	4011da <xQueueSemaphoreTake+0x146>
  401174:	47b0      	blx	r6
  401176:	6860      	ldr	r0, [r4, #4]
  401178:	4b3a      	ldr	r3, [pc, #232]	; (401264 <xQueueSemaphoreTake+0x1d0>)
  40117a:	4798      	blx	r3
  40117c:	4605      	mov	r5, r0
  40117e:	4b38      	ldr	r3, [pc, #224]	; (401260 <xQueueSemaphoreTake+0x1cc>)
  401180:	4798      	blx	r3
  401182:	e03a      	b.n	4011fa <xQueueSemaphoreTake+0x166>
  401184:	4620      	mov	r0, r4
  401186:	4b38      	ldr	r3, [pc, #224]	; (401268 <xQueueSemaphoreTake+0x1d4>)
  401188:	4798      	blx	r3
  40118a:	4b38      	ldr	r3, [pc, #224]	; (40126c <xQueueSemaphoreTake+0x1d8>)
  40118c:	4798      	blx	r3
  40118e:	e009      	b.n	4011a4 <xQueueSemaphoreTake+0x110>
  401190:	4620      	mov	r0, r4
  401192:	4b35      	ldr	r3, [pc, #212]	; (401268 <xQueueSemaphoreTake+0x1d4>)
  401194:	4798      	blx	r3
  401196:	4b35      	ldr	r3, [pc, #212]	; (40126c <xQueueSemaphoreTake+0x1d8>)
  401198:	4798      	blx	r3
  40119a:	4620      	mov	r0, r4
  40119c:	4b34      	ldr	r3, [pc, #208]	; (401270 <xQueueSemaphoreTake+0x1dc>)
  40119e:	4798      	blx	r3
  4011a0:	2800      	cmp	r0, #0
  4011a2:	d13f      	bne.n	401224 <xQueueSemaphoreTake+0x190>
  4011a4:	2701      	movs	r7, #1
  4011a6:	47b0      	blx	r6
  4011a8:	6ba3      	ldr	r3, [r4, #56]	; 0x38
  4011aa:	2b00      	cmp	r3, #0
  4011ac:	d1ab      	bne.n	401106 <xQueueSemaphoreTake+0x72>
  4011ae:	9b01      	ldr	r3, [sp, #4]
  4011b0:	2b00      	cmp	r3, #0
  4011b2:	d0c5      	beq.n	401140 <xQueueSemaphoreTake+0xac>
  4011b4:	2f00      	cmp	r7, #0
  4011b6:	d0d2      	beq.n	40115e <xQueueSemaphoreTake+0xca>
  4011b8:	4b29      	ldr	r3, [pc, #164]	; (401260 <xQueueSemaphoreTake+0x1cc>)
  4011ba:	4798      	blx	r3
  4011bc:	4b2d      	ldr	r3, [pc, #180]	; (401274 <xQueueSemaphoreTake+0x1e0>)
  4011be:	4798      	blx	r3
  4011c0:	47b0      	blx	r6
  4011c2:	f894 3044 	ldrb.w	r3, [r4, #68]	; 0x44
  4011c6:	b25b      	sxtb	r3, r3
  4011c8:	f1b3 3fff 	cmp.w	r3, #4294967295
  4011cc:	d0ca      	beq.n	401164 <xQueueSemaphoreTake+0xd0>
  4011ce:	f894 3045 	ldrb.w	r3, [r4, #69]	; 0x45
  4011d2:	b25b      	sxtb	r3, r3
  4011d4:	f1b3 3fff 	cmp.w	r3, #4294967295
  4011d8:	d0c8      	beq.n	40116c <xQueueSemaphoreTake+0xd8>
  4011da:	4b21      	ldr	r3, [pc, #132]	; (401260 <xQueueSemaphoreTake+0x1cc>)
  4011dc:	4798      	blx	r3
  4011de:	a901      	add	r1, sp, #4
  4011e0:	a802      	add	r0, sp, #8
  4011e2:	4b25      	ldr	r3, [pc, #148]	; (401278 <xQueueSemaphoreTake+0x1e4>)
  4011e4:	4798      	blx	r3
  4011e6:	2800      	cmp	r0, #0
  4011e8:	d1d2      	bne.n	401190 <xQueueSemaphoreTake+0xfc>
  4011ea:	4620      	mov	r0, r4
  4011ec:	4b20      	ldr	r3, [pc, #128]	; (401270 <xQueueSemaphoreTake+0x1dc>)
  4011ee:	4798      	blx	r3
  4011f0:	2800      	cmp	r0, #0
  4011f2:	d0c7      	beq.n	401184 <xQueueSemaphoreTake+0xf0>
  4011f4:	6823      	ldr	r3, [r4, #0]
  4011f6:	2b00      	cmp	r3, #0
  4011f8:	d0bc      	beq.n	401174 <xQueueSemaphoreTake+0xe0>
  4011fa:	9901      	ldr	r1, [sp, #4]
  4011fc:	f104 0024 	add.w	r0, r4, #36	; 0x24
  401200:	4b1e      	ldr	r3, [pc, #120]	; (40127c <xQueueSemaphoreTake+0x1e8>)
  401202:	4798      	blx	r3
  401204:	4620      	mov	r0, r4
  401206:	4b18      	ldr	r3, [pc, #96]	; (401268 <xQueueSemaphoreTake+0x1d4>)
  401208:	4798      	blx	r3
  40120a:	4b18      	ldr	r3, [pc, #96]	; (40126c <xQueueSemaphoreTake+0x1d8>)
  40120c:	4798      	blx	r3
  40120e:	2800      	cmp	r0, #0
  401210:	d1c8      	bne.n	4011a4 <xQueueSemaphoreTake+0x110>
  401212:	f04f 5380 	mov.w	r3, #268435456	; 0x10000000
  401216:	f8c8 3000 	str.w	r3, [r8]
  40121a:	f3bf 8f4f 	dsb	sy
  40121e:	f3bf 8f6f 	isb	sy
  401222:	e7bf      	b.n	4011a4 <xQueueSemaphoreTake+0x110>
  401224:	2d00      	cmp	r5, #0
  401226:	d087      	beq.n	401138 <xQueueSemaphoreTake+0xa4>
  401228:	4b09      	ldr	r3, [pc, #36]	; (401250 <xQueueSemaphoreTake+0x1bc>)
  40122a:	4798      	blx	r3
  40122c:	6a63      	ldr	r3, [r4, #36]	; 0x24
  40122e:	b153      	cbz	r3, 401246 <xQueueSemaphoreTake+0x1b2>
  401230:	6b23      	ldr	r3, [r4, #48]	; 0x30
  401232:	6819      	ldr	r1, [r3, #0]
  401234:	f1c1 0105 	rsb	r1, r1, #5
  401238:	6860      	ldr	r0, [r4, #4]
  40123a:	4b11      	ldr	r3, [pc, #68]	; (401280 <xQueueSemaphoreTake+0x1ec>)
  40123c:	4798      	blx	r3
  40123e:	4b08      	ldr	r3, [pc, #32]	; (401260 <xQueueSemaphoreTake+0x1cc>)
  401240:	4798      	blx	r3
  401242:	2500      	movs	r5, #0
  401244:	e778      	b.n	401138 <xQueueSemaphoreTake+0xa4>
  401246:	2100      	movs	r1, #0
  401248:	e7f6      	b.n	401238 <xQueueSemaphoreTake+0x1a4>
  40124a:	bf00      	nop
  40124c:	00401c71 	.word	0x00401c71
  401250:	00400695 	.word	0x00400695
  401254:	00401ed9 	.word	0x00401ed9
  401258:	00401b21 	.word	0x00401b21
  40125c:	e000ed04 	.word	0xe000ed04
  401260:	004006e1 	.word	0x004006e1
  401264:	00401c91 	.word	0x00401c91
  401268:	00400a61 	.word	0x00400a61
  40126c:	00401859 	.word	0x00401859
  401270:	00400911 	.word	0x00400911
  401274:	004016f5 	.word	0x004016f5
  401278:	00401bd1 	.word	0x00401bd1
  40127c:	00401a9d 	.word	0x00401a9d
  401280:	00401e0d 	.word	0x00401e0d
  401284:	00401bb9 	.word	0x00401bb9

00401288 <vQueueAddToRegistry>:
  401288:	b410      	push	{r4}
  40128a:	4b0b      	ldr	r3, [pc, #44]	; (4012b8 <vQueueAddToRegistry+0x30>)
  40128c:	681b      	ldr	r3, [r3, #0]
  40128e:	b153      	cbz	r3, 4012a6 <vQueueAddToRegistry+0x1e>
  401290:	2301      	movs	r3, #1
  401292:	4c09      	ldr	r4, [pc, #36]	; (4012b8 <vQueueAddToRegistry+0x30>)
  401294:	f854 2033 	ldr.w	r2, [r4, r3, lsl #3]
  401298:	b132      	cbz	r2, 4012a8 <vQueueAddToRegistry+0x20>
  40129a:	3301      	adds	r3, #1
  40129c:	2b08      	cmp	r3, #8
  40129e:	d1f9      	bne.n	401294 <vQueueAddToRegistry+0xc>
  4012a0:	f85d 4b04 	ldr.w	r4, [sp], #4
  4012a4:	4770      	bx	lr
  4012a6:	2300      	movs	r3, #0
  4012a8:	4a03      	ldr	r2, [pc, #12]	; (4012b8 <vQueueAddToRegistry+0x30>)
  4012aa:	f842 1033 	str.w	r1, [r2, r3, lsl #3]
  4012ae:	eb02 03c3 	add.w	r3, r2, r3, lsl #3
  4012b2:	6058      	str	r0, [r3, #4]
  4012b4:	e7f4      	b.n	4012a0 <vQueueAddToRegistry+0x18>
  4012b6:	bf00      	nop
  4012b8:	2040c5f4 	.word	0x2040c5f4

004012bc <vQueueWaitForMessageRestricted>:
  4012bc:	b570      	push	{r4, r5, r6, lr}
  4012be:	4604      	mov	r4, r0
  4012c0:	460d      	mov	r5, r1
  4012c2:	4616      	mov	r6, r2
  4012c4:	4b12      	ldr	r3, [pc, #72]	; (401310 <vQueueWaitForMessageRestricted+0x54>)
  4012c6:	4798      	blx	r3
  4012c8:	f894 3044 	ldrb.w	r3, [r4, #68]	; 0x44
  4012cc:	b25b      	sxtb	r3, r3
  4012ce:	f1b3 3fff 	cmp.w	r3, #4294967295
  4012d2:	d00d      	beq.n	4012f0 <vQueueWaitForMessageRestricted+0x34>
  4012d4:	f894 3045 	ldrb.w	r3, [r4, #69]	; 0x45
  4012d8:	b25b      	sxtb	r3, r3
  4012da:	f1b3 3fff 	cmp.w	r3, #4294967295
  4012de:	d00b      	beq.n	4012f8 <vQueueWaitForMessageRestricted+0x3c>
  4012e0:	4b0c      	ldr	r3, [pc, #48]	; (401314 <vQueueWaitForMessageRestricted+0x58>)
  4012e2:	4798      	blx	r3
  4012e4:	6ba3      	ldr	r3, [r4, #56]	; 0x38
  4012e6:	b15b      	cbz	r3, 401300 <vQueueWaitForMessageRestricted+0x44>
  4012e8:	4620      	mov	r0, r4
  4012ea:	4b0b      	ldr	r3, [pc, #44]	; (401318 <vQueueWaitForMessageRestricted+0x5c>)
  4012ec:	4798      	blx	r3
  4012ee:	bd70      	pop	{r4, r5, r6, pc}
  4012f0:	2300      	movs	r3, #0
  4012f2:	f884 3044 	strb.w	r3, [r4, #68]	; 0x44
  4012f6:	e7ed      	b.n	4012d4 <vQueueWaitForMessageRestricted+0x18>
  4012f8:	2300      	movs	r3, #0
  4012fa:	f884 3045 	strb.w	r3, [r4, #69]	; 0x45
  4012fe:	e7ef      	b.n	4012e0 <vQueueWaitForMessageRestricted+0x24>
  401300:	4632      	mov	r2, r6
  401302:	4629      	mov	r1, r5
  401304:	f104 0024 	add.w	r0, r4, #36	; 0x24
  401308:	4b04      	ldr	r3, [pc, #16]	; (40131c <vQueueWaitForMessageRestricted+0x60>)
  40130a:	4798      	blx	r3
  40130c:	e7ec      	b.n	4012e8 <vQueueWaitForMessageRestricted+0x2c>
  40130e:	bf00      	nop
  401310:	00400695 	.word	0x00400695
  401314:	004006e1 	.word	0x004006e1
  401318:	00400a61 	.word	0x00400a61
  40131c:	00401ad9 	.word	0x00401ad9

00401320 <prvResetNextTaskUnblockTime>:
  401320:	4b08      	ldr	r3, [pc, #32]	; (401344 <prvResetNextTaskUnblockTime+0x24>)
  401322:	681b      	ldr	r3, [r3, #0]
  401324:	681b      	ldr	r3, [r3, #0]
  401326:	b13b      	cbz	r3, 401338 <prvResetNextTaskUnblockTime+0x18>
  401328:	4b06      	ldr	r3, [pc, #24]	; (401344 <prvResetNextTaskUnblockTime+0x24>)
  40132a:	681b      	ldr	r3, [r3, #0]
  40132c:	68db      	ldr	r3, [r3, #12]
  40132e:	68db      	ldr	r3, [r3, #12]
  401330:	685a      	ldr	r2, [r3, #4]
  401332:	4b05      	ldr	r3, [pc, #20]	; (401348 <prvResetNextTaskUnblockTime+0x28>)
  401334:	601a      	str	r2, [r3, #0]
  401336:	4770      	bx	lr
  401338:	f04f 32ff 	mov.w	r2, #4294967295
  40133c:	4b02      	ldr	r3, [pc, #8]	; (401348 <prvResetNextTaskUnblockTime+0x28>)
  40133e:	601a      	str	r2, [r3, #0]
  401340:	4770      	bx	lr
  401342:	bf00      	nop
  401344:	2040c208 	.word	0x2040c208
  401348:	2040c2b8 	.word	0x2040c2b8

0040134c <prvIdleTask>:
  40134c:	b580      	push	{r7, lr}
  40134e:	4d16      	ldr	r5, [pc, #88]	; (4013a8 <prvIdleTask+0x5c>)
  401350:	f8df 806c 	ldr.w	r8, [pc, #108]	; 4013c0 <prvIdleTask+0x74>
  401354:	4f15      	ldr	r7, [pc, #84]	; (4013ac <prvIdleTask+0x60>)
  401356:	f8df 906c 	ldr.w	r9, [pc, #108]	; 4013c4 <prvIdleTask+0x78>
  40135a:	682b      	ldr	r3, [r5, #0]
  40135c:	b1bb      	cbz	r3, 40138e <prvIdleTask+0x42>
  40135e:	4e14      	ldr	r6, [pc, #80]	; (4013b0 <prvIdleTask+0x64>)
  401360:	47c0      	blx	r8
  401362:	68fb      	ldr	r3, [r7, #12]
  401364:	68dc      	ldr	r4, [r3, #12]
  401366:	1d20      	adds	r0, r4, #4
  401368:	47b0      	blx	r6
  40136a:	4a12      	ldr	r2, [pc, #72]	; (4013b4 <prvIdleTask+0x68>)
  40136c:	6813      	ldr	r3, [r2, #0]
  40136e:	3b01      	subs	r3, #1
  401370:	6013      	str	r3, [r2, #0]
  401372:	682b      	ldr	r3, [r5, #0]
  401374:	3b01      	subs	r3, #1
  401376:	602b      	str	r3, [r5, #0]
  401378:	4b0f      	ldr	r3, [pc, #60]	; (4013b8 <prvIdleTask+0x6c>)
  40137a:	4798      	blx	r3
  40137c:	6b20      	ldr	r0, [r4, #48]	; 0x30
  40137e:	f8df a048 	ldr.w	sl, [pc, #72]	; 4013c8 <prvIdleTask+0x7c>
  401382:	47d0      	blx	sl
  401384:	4620      	mov	r0, r4
  401386:	47d0      	blx	sl
  401388:	682b      	ldr	r3, [r5, #0]
  40138a:	2b00      	cmp	r3, #0
  40138c:	d1e8      	bne.n	401360 <prvIdleTask+0x14>
  40138e:	4b0b      	ldr	r3, [pc, #44]	; (4013bc <prvIdleTask+0x70>)
  401390:	681b      	ldr	r3, [r3, #0]
  401392:	2b01      	cmp	r3, #1
  401394:	d9e1      	bls.n	40135a <prvIdleTask+0xe>
  401396:	f04f 5380 	mov.w	r3, #268435456	; 0x10000000
  40139a:	f8c9 3000 	str.w	r3, [r9]
  40139e:	f3bf 8f4f 	dsb	sy
  4013a2:	f3bf 8f6f 	isb	sy
  4013a6:	e7d8      	b.n	40135a <prvIdleTask+0xe>
  4013a8:	2040c278 	.word	0x2040c278
  4013ac:	2040c2ec 	.word	0x2040c2ec
  4013b0:	004005bd 	.word	0x004005bd
  4013b4:	2040c274 	.word	0x2040c274
  4013b8:	004006e1 	.word	0x004006e1
  4013bc:	2040c210 	.word	0x2040c210
  4013c0:	00400695 	.word	0x00400695
  4013c4:	e000ed04 	.word	0xe000ed04
  4013c8:	004008f5 	.word	0x004008f5

004013cc <prvAddCurrentTaskToDelayedList>:
  4013cc:	b570      	push	{r4, r5, r6, lr}
  4013ce:	4604      	mov	r4, r0
  4013d0:	460e      	mov	r6, r1
  4013d2:	4b1c      	ldr	r3, [pc, #112]	; (401444 <prvAddCurrentTaskToDelayedList+0x78>)
  4013d4:	681d      	ldr	r5, [r3, #0]
  4013d6:	4b1c      	ldr	r3, [pc, #112]	; (401448 <prvAddCurrentTaskToDelayedList+0x7c>)
  4013d8:	6818      	ldr	r0, [r3, #0]
  4013da:	3004      	adds	r0, #4
  4013dc:	4b1b      	ldr	r3, [pc, #108]	; (40144c <prvAddCurrentTaskToDelayedList+0x80>)
  4013de:	4798      	blx	r3
  4013e0:	b948      	cbnz	r0, 4013f6 <prvAddCurrentTaskToDelayedList+0x2a>
  4013e2:	4b19      	ldr	r3, [pc, #100]	; (401448 <prvAddCurrentTaskToDelayedList+0x7c>)
  4013e4:	681a      	ldr	r2, [r3, #0]
  4013e6:	491a      	ldr	r1, [pc, #104]	; (401450 <prvAddCurrentTaskToDelayedList+0x84>)
  4013e8:	680b      	ldr	r3, [r1, #0]
  4013ea:	6ad0      	ldr	r0, [r2, #44]	; 0x2c
  4013ec:	2201      	movs	r2, #1
  4013ee:	4082      	lsls	r2, r0
  4013f0:	ea23 0302 	bic.w	r3, r3, r2
  4013f4:	600b      	str	r3, [r1, #0]
  4013f6:	f1b4 3fff 	cmp.w	r4, #4294967295
  4013fa:	d100      	bne.n	4013fe <prvAddCurrentTaskToDelayedList+0x32>
  4013fc:	b99e      	cbnz	r6, 401426 <prvAddCurrentTaskToDelayedList+0x5a>
  4013fe:	442c      	add	r4, r5
  401400:	4b11      	ldr	r3, [pc, #68]	; (401448 <prvAddCurrentTaskToDelayedList+0x7c>)
  401402:	681b      	ldr	r3, [r3, #0]
  401404:	605c      	str	r4, [r3, #4]
  401406:	42a5      	cmp	r5, r4
  401408:	d814      	bhi.n	401434 <prvAddCurrentTaskToDelayedList+0x68>
  40140a:	4b12      	ldr	r3, [pc, #72]	; (401454 <prvAddCurrentTaskToDelayedList+0x88>)
  40140c:	6818      	ldr	r0, [r3, #0]
  40140e:	4b0e      	ldr	r3, [pc, #56]	; (401448 <prvAddCurrentTaskToDelayedList+0x7c>)
  401410:	6819      	ldr	r1, [r3, #0]
  401412:	3104      	adds	r1, #4
  401414:	4b10      	ldr	r3, [pc, #64]	; (401458 <prvAddCurrentTaskToDelayedList+0x8c>)
  401416:	4798      	blx	r3
  401418:	4b10      	ldr	r3, [pc, #64]	; (40145c <prvAddCurrentTaskToDelayedList+0x90>)
  40141a:	681b      	ldr	r3, [r3, #0]
  40141c:	429c      	cmp	r4, r3
  40141e:	d201      	bcs.n	401424 <prvAddCurrentTaskToDelayedList+0x58>
  401420:	4b0e      	ldr	r3, [pc, #56]	; (40145c <prvAddCurrentTaskToDelayedList+0x90>)
  401422:	601c      	str	r4, [r3, #0]
  401424:	bd70      	pop	{r4, r5, r6, pc}
  401426:	4b08      	ldr	r3, [pc, #32]	; (401448 <prvAddCurrentTaskToDelayedList+0x7c>)
  401428:	6819      	ldr	r1, [r3, #0]
  40142a:	3104      	adds	r1, #4
  40142c:	480c      	ldr	r0, [pc, #48]	; (401460 <prvAddCurrentTaskToDelayedList+0x94>)
  40142e:	4b0d      	ldr	r3, [pc, #52]	; (401464 <prvAddCurrentTaskToDelayedList+0x98>)
  401430:	4798      	blx	r3
  401432:	bd70      	pop	{r4, r5, r6, pc}
  401434:	4b0c      	ldr	r3, [pc, #48]	; (401468 <prvAddCurrentTaskToDelayedList+0x9c>)
  401436:	6818      	ldr	r0, [r3, #0]
  401438:	4b03      	ldr	r3, [pc, #12]	; (401448 <prvAddCurrentTaskToDelayedList+0x7c>)
  40143a:	6819      	ldr	r1, [r3, #0]
  40143c:	3104      	adds	r1, #4
  40143e:	4b06      	ldr	r3, [pc, #24]	; (401458 <prvAddCurrentTaskToDelayedList+0x8c>)
  401440:	4798      	blx	r3
  401442:	bd70      	pop	{r4, r5, r6, pc}
  401444:	2040c300 	.word	0x2040c300
  401448:	2040c204 	.word	0x2040c204
  40144c:	004005bd 	.word	0x004005bd
  401450:	2040c288 	.word	0x2040c288
  401454:	2040c208 	.word	0x2040c208
  401458:	00400589 	.word	0x00400589
  40145c:	2040c2b8 	.word	0x2040c2b8
  401460:	2040c2d8 	.word	0x2040c2d8
  401464:	00400571 	.word	0x00400571
  401468:	2040c20c 	.word	0x2040c20c

0040146c <xTaskCreate>:
  40146c:	e92d 4ff0 	stmdb	sp!, {r4, r5, r6, r7, r8, r9, sl, fp, lr}
  401470:	b083      	sub	sp, #12
  401472:	4683      	mov	fp, r0
  401474:	460d      	mov	r5, r1
  401476:	9301      	str	r3, [sp, #4]
  401478:	f8dd a034 	ldr.w	sl, [sp, #52]	; 0x34
  40147c:	0096      	lsls	r6, r2, #2
  40147e:	4630      	mov	r0, r6
  401480:	4b60      	ldr	r3, [pc, #384]	; (401604 <xTaskCreate+0x198>)
  401482:	4798      	blx	r3
  401484:	2800      	cmp	r0, #0
  401486:	f000 808d 	beq.w	4015a4 <xTaskCreate+0x138>
  40148a:	4607      	mov	r7, r0
  40148c:	2058      	movs	r0, #88	; 0x58
  40148e:	4b5d      	ldr	r3, [pc, #372]	; (401604 <xTaskCreate+0x198>)
  401490:	4798      	blx	r3
  401492:	4604      	mov	r4, r0
  401494:	2800      	cmp	r0, #0
  401496:	f000 8082 	beq.w	40159e <xTaskCreate+0x132>
  40149a:	6307      	str	r7, [r0, #48]	; 0x30
  40149c:	4632      	mov	r2, r6
  40149e:	21a5      	movs	r1, #165	; 0xa5
  4014a0:	4638      	mov	r0, r7
  4014a2:	4b59      	ldr	r3, [pc, #356]	; (401608 <xTaskCreate+0x19c>)
  4014a4:	4798      	blx	r3
  4014a6:	3e04      	subs	r6, #4
  4014a8:	6b23      	ldr	r3, [r4, #48]	; 0x30
  4014aa:	441e      	add	r6, r3
  4014ac:	f026 0607 	bic.w	r6, r6, #7
  4014b0:	782b      	ldrb	r3, [r5, #0]
  4014b2:	f884 3034 	strb.w	r3, [r4, #52]	; 0x34
  4014b6:	782b      	ldrb	r3, [r5, #0]
  4014b8:	b163      	cbz	r3, 4014d4 <xTaskCreate+0x68>
  4014ba:	462b      	mov	r3, r5
  4014bc:	f104 0234 	add.w	r2, r4, #52	; 0x34
  4014c0:	f105 0109 	add.w	r1, r5, #9
  4014c4:	7858      	ldrb	r0, [r3, #1]
  4014c6:	f802 0f01 	strb.w	r0, [r2, #1]!
  4014ca:	f813 0f01 	ldrb.w	r0, [r3, #1]!
  4014ce:	b108      	cbz	r0, 4014d4 <xTaskCreate+0x68>
  4014d0:	428b      	cmp	r3, r1
  4014d2:	d1f7      	bne.n	4014c4 <xTaskCreate+0x58>
  4014d4:	2700      	movs	r7, #0
  4014d6:	f884 703d 	strb.w	r7, [r4, #61]	; 0x3d
  4014da:	9d0c      	ldr	r5, [sp, #48]	; 0x30
  4014dc:	2d04      	cmp	r5, #4
  4014de:	bf28      	it	cs
  4014e0:	2504      	movcs	r5, #4
  4014e2:	62e5      	str	r5, [r4, #44]	; 0x2c
  4014e4:	64a5      	str	r5, [r4, #72]	; 0x48
  4014e6:	64e7      	str	r7, [r4, #76]	; 0x4c
  4014e8:	f104 0804 	add.w	r8, r4, #4
  4014ec:	4640      	mov	r0, r8
  4014ee:	f8df 916c 	ldr.w	r9, [pc, #364]	; 40165c <xTaskCreate+0x1f0>
  4014f2:	47c8      	blx	r9
  4014f4:	f104 0018 	add.w	r0, r4, #24
  4014f8:	47c8      	blx	r9
  4014fa:	6124      	str	r4, [r4, #16]
  4014fc:	f1c5 0505 	rsb	r5, r5, #5
  401500:	61a5      	str	r5, [r4, #24]
  401502:	6264      	str	r4, [r4, #36]	; 0x24
  401504:	6527      	str	r7, [r4, #80]	; 0x50
  401506:	f884 7054 	strb.w	r7, [r4, #84]	; 0x54
  40150a:	9a01      	ldr	r2, [sp, #4]
  40150c:	4659      	mov	r1, fp
  40150e:	4630      	mov	r0, r6
  401510:	4b3e      	ldr	r3, [pc, #248]	; (40160c <xTaskCreate+0x1a0>)
  401512:	4798      	blx	r3
  401514:	6020      	str	r0, [r4, #0]
  401516:	f1ba 0f00 	cmp.w	sl, #0
  40151a:	d001      	beq.n	401520 <xTaskCreate+0xb4>
  40151c:	f8ca 4000 	str.w	r4, [sl]
  401520:	4b3b      	ldr	r3, [pc, #236]	; (401610 <xTaskCreate+0x1a4>)
  401522:	4798      	blx	r3
  401524:	4a3b      	ldr	r2, [pc, #236]	; (401614 <xTaskCreate+0x1a8>)
  401526:	6813      	ldr	r3, [r2, #0]
  401528:	3301      	adds	r3, #1
  40152a:	6013      	str	r3, [r2, #0]
  40152c:	4b3a      	ldr	r3, [pc, #232]	; (401618 <xTaskCreate+0x1ac>)
  40152e:	681b      	ldr	r3, [r3, #0]
  401530:	2b00      	cmp	r3, #0
  401532:	d03a      	beq.n	4015aa <xTaskCreate+0x13e>
  401534:	4b39      	ldr	r3, [pc, #228]	; (40161c <xTaskCreate+0x1b0>)
  401536:	681b      	ldr	r3, [r3, #0]
  401538:	b93b      	cbnz	r3, 40154a <xTaskCreate+0xde>
  40153a:	4b37      	ldr	r3, [pc, #220]	; (401618 <xTaskCreate+0x1ac>)
  40153c:	681b      	ldr	r3, [r3, #0]
  40153e:	6ada      	ldr	r2, [r3, #44]	; 0x2c
  401540:	6ae3      	ldr	r3, [r4, #44]	; 0x2c
  401542:	429a      	cmp	r2, r3
  401544:	d801      	bhi.n	40154a <xTaskCreate+0xde>
  401546:	4b34      	ldr	r3, [pc, #208]	; (401618 <xTaskCreate+0x1ac>)
  401548:	601c      	str	r4, [r3, #0]
  40154a:	4a35      	ldr	r2, [pc, #212]	; (401620 <xTaskCreate+0x1b4>)
  40154c:	6813      	ldr	r3, [r2, #0]
  40154e:	3301      	adds	r3, #1
  401550:	6013      	str	r3, [r2, #0]
  401552:	6423      	str	r3, [r4, #64]	; 0x40
  401554:	6ae0      	ldr	r0, [r4, #44]	; 0x2c
  401556:	4a33      	ldr	r2, [pc, #204]	; (401624 <xTaskCreate+0x1b8>)
  401558:	6811      	ldr	r1, [r2, #0]
  40155a:	2301      	movs	r3, #1
  40155c:	4083      	lsls	r3, r0
  40155e:	430b      	orrs	r3, r1
  401560:	6013      	str	r3, [r2, #0]
  401562:	eb00 0080 	add.w	r0, r0, r0, lsl #2
  401566:	4641      	mov	r1, r8
  401568:	4b2f      	ldr	r3, [pc, #188]	; (401628 <xTaskCreate+0x1bc>)
  40156a:	eb03 0080 	add.w	r0, r3, r0, lsl #2
  40156e:	4b2f      	ldr	r3, [pc, #188]	; (40162c <xTaskCreate+0x1c0>)
  401570:	4798      	blx	r3
  401572:	4b2f      	ldr	r3, [pc, #188]	; (401630 <xTaskCreate+0x1c4>)
  401574:	4798      	blx	r3
  401576:	4b29      	ldr	r3, [pc, #164]	; (40161c <xTaskCreate+0x1b0>)
  401578:	681b      	ldr	r3, [r3, #0]
  40157a:	2b00      	cmp	r3, #0
  40157c:	d03b      	beq.n	4015f6 <xTaskCreate+0x18a>
  40157e:	4b26      	ldr	r3, [pc, #152]	; (401618 <xTaskCreate+0x1ac>)
  401580:	681b      	ldr	r3, [r3, #0]
  401582:	6ada      	ldr	r2, [r3, #44]	; 0x2c
  401584:	6ae3      	ldr	r3, [r4, #44]	; 0x2c
  401586:	429a      	cmp	r2, r3
  401588:	d239      	bcs.n	4015fe <xTaskCreate+0x192>
  40158a:	f04f 5280 	mov.w	r2, #268435456	; 0x10000000
  40158e:	4b29      	ldr	r3, [pc, #164]	; (401634 <xTaskCreate+0x1c8>)
  401590:	601a      	str	r2, [r3, #0]
  401592:	f3bf 8f4f 	dsb	sy
  401596:	f3bf 8f6f 	isb	sy
  40159a:	2001      	movs	r0, #1
  40159c:	e02c      	b.n	4015f8 <xTaskCreate+0x18c>
  40159e:	4638      	mov	r0, r7
  4015a0:	4b25      	ldr	r3, [pc, #148]	; (401638 <xTaskCreate+0x1cc>)
  4015a2:	4798      	blx	r3
  4015a4:	f04f 30ff 	mov.w	r0, #4294967295
  4015a8:	e026      	b.n	4015f8 <xTaskCreate+0x18c>
  4015aa:	4b1b      	ldr	r3, [pc, #108]	; (401618 <xTaskCreate+0x1ac>)
  4015ac:	601c      	str	r4, [r3, #0]
  4015ae:	6813      	ldr	r3, [r2, #0]
  4015b0:	2b01      	cmp	r3, #1
  4015b2:	d1ca      	bne.n	40154a <xTaskCreate+0xde>
  4015b4:	4e1c      	ldr	r6, [pc, #112]	; (401628 <xTaskCreate+0x1bc>)
  4015b6:	4630      	mov	r0, r6
  4015b8:	4d20      	ldr	r5, [pc, #128]	; (40163c <xTaskCreate+0x1d0>)
  4015ba:	47a8      	blx	r5
  4015bc:	f106 0014 	add.w	r0, r6, #20
  4015c0:	47a8      	blx	r5
  4015c2:	f106 0028 	add.w	r0, r6, #40	; 0x28
  4015c6:	47a8      	blx	r5
  4015c8:	f106 003c 	add.w	r0, r6, #60	; 0x3c
  4015cc:	47a8      	blx	r5
  4015ce:	f106 0050 	add.w	r0, r6, #80	; 0x50
  4015d2:	47a8      	blx	r5
  4015d4:	4f1a      	ldr	r7, [pc, #104]	; (401640 <xTaskCreate+0x1d4>)
  4015d6:	4638      	mov	r0, r7
  4015d8:	47a8      	blx	r5
  4015da:	4e1a      	ldr	r6, [pc, #104]	; (401644 <xTaskCreate+0x1d8>)
  4015dc:	4630      	mov	r0, r6
  4015de:	47a8      	blx	r5
  4015e0:	4819      	ldr	r0, [pc, #100]	; (401648 <xTaskCreate+0x1dc>)
  4015e2:	47a8      	blx	r5
  4015e4:	4819      	ldr	r0, [pc, #100]	; (40164c <xTaskCreate+0x1e0>)
  4015e6:	47a8      	blx	r5
  4015e8:	4819      	ldr	r0, [pc, #100]	; (401650 <xTaskCreate+0x1e4>)
  4015ea:	47a8      	blx	r5
  4015ec:	4b19      	ldr	r3, [pc, #100]	; (401654 <xTaskCreate+0x1e8>)
  4015ee:	601f      	str	r7, [r3, #0]
  4015f0:	4b19      	ldr	r3, [pc, #100]	; (401658 <xTaskCreate+0x1ec>)
  4015f2:	601e      	str	r6, [r3, #0]
  4015f4:	e7a9      	b.n	40154a <xTaskCreate+0xde>
  4015f6:	2001      	movs	r0, #1
  4015f8:	b003      	add	sp, #12
  4015fa:	e8bd 8ff0 	ldmia.w	sp!, {r4, r5, r6, r7, r8, r9, sl, fp, pc}
  4015fe:	2001      	movs	r0, #1
  401600:	e7fa      	b.n	4015f8 <xTaskCreate+0x18c>
  401602:	bf00      	nop
  401604:	00400885 	.word	0x00400885
  401608:	004071e1 	.word	0x004071e1
  40160c:	00400669 	.word	0x00400669
  401610:	00400695 	.word	0x00400695
  401614:	2040c274 	.word	0x2040c274
  401618:	2040c204 	.word	0x2040c204
  40161c:	2040c2d4 	.word	0x2040c2d4
  401620:	2040c284 	.word	0x2040c284
  401624:	2040c288 	.word	0x2040c288
  401628:	2040c210 	.word	0x2040c210
  40162c:	00400571 	.word	0x00400571
  401630:	004006e1 	.word	0x004006e1
  401634:	e000ed04 	.word	0xe000ed04
  401638:	004008f5 	.word	0x004008f5
  40163c:	00400555 	.word	0x00400555
  401640:	2040c28c 	.word	0x2040c28c
  401644:	2040c2a0 	.word	0x2040c2a0
  401648:	2040c2c0 	.word	0x2040c2c0
  40164c:	2040c2ec 	.word	0x2040c2ec
  401650:	2040c2d8 	.word	0x2040c2d8
  401654:	2040c208 	.word	0x2040c208
  401658:	2040c20c 	.word	0x2040c20c
  40165c:	0040056b 	.word	0x0040056b

00401660 <vTaskStartScheduler>:
  401660:	b510      	push	{r4, lr}
  401662:	b082      	sub	sp, #8
  401664:	4b1a      	ldr	r3, [pc, #104]	; (4016d0 <vTaskStartScheduler+0x70>)
  401666:	9301      	str	r3, [sp, #4]
  401668:	2300      	movs	r3, #0
  40166a:	9300      	str	r3, [sp, #0]
  40166c:	2282      	movs	r2, #130	; 0x82
  40166e:	4919      	ldr	r1, [pc, #100]	; (4016d4 <vTaskStartScheduler+0x74>)
  401670:	4819      	ldr	r0, [pc, #100]	; (4016d8 <vTaskStartScheduler+0x78>)
  401672:	4c1a      	ldr	r4, [pc, #104]	; (4016dc <vTaskStartScheduler+0x7c>)
  401674:	47a0      	blx	r4
  401676:	2801      	cmp	r0, #1
  401678:	d004      	beq.n	401684 <vTaskStartScheduler+0x24>
  40167a:	f1b0 3fff 	cmp.w	r0, #4294967295
  40167e:	d01c      	beq.n	4016ba <vTaskStartScheduler+0x5a>
  401680:	b002      	add	sp, #8
  401682:	bd10      	pop	{r4, pc}
  401684:	4b16      	ldr	r3, [pc, #88]	; (4016e0 <vTaskStartScheduler+0x80>)
  401686:	4798      	blx	r3
  401688:	2801      	cmp	r0, #1
  40168a:	d1f6      	bne.n	40167a <vTaskStartScheduler+0x1a>
  40168c:	f04f 0380 	mov.w	r3, #128	; 0x80
  401690:	b672      	cpsid	i
  401692:	f383 8811 	msr	BASEPRI, r3
  401696:	f3bf 8f6f 	isb	sy
  40169a:	f3bf 8f4f 	dsb	sy
  40169e:	b662      	cpsie	i
  4016a0:	f04f 32ff 	mov.w	r2, #4294967295
  4016a4:	4b0f      	ldr	r3, [pc, #60]	; (4016e4 <vTaskStartScheduler+0x84>)
  4016a6:	601a      	str	r2, [r3, #0]
  4016a8:	2201      	movs	r2, #1
  4016aa:	4b0f      	ldr	r3, [pc, #60]	; (4016e8 <vTaskStartScheduler+0x88>)
  4016ac:	601a      	str	r2, [r3, #0]
  4016ae:	2200      	movs	r2, #0
  4016b0:	4b0e      	ldr	r3, [pc, #56]	; (4016ec <vTaskStartScheduler+0x8c>)
  4016b2:	601a      	str	r2, [r3, #0]
  4016b4:	4b0e      	ldr	r3, [pc, #56]	; (4016f0 <vTaskStartScheduler+0x90>)
  4016b6:	4798      	blx	r3
  4016b8:	e7e2      	b.n	401680 <vTaskStartScheduler+0x20>
  4016ba:	f04f 0380 	mov.w	r3, #128	; 0x80
  4016be:	b672      	cpsid	i
  4016c0:	f383 8811 	msr	BASEPRI, r3
  4016c4:	f3bf 8f6f 	isb	sy
  4016c8:	f3bf 8f4f 	dsb	sy
  4016cc:	b662      	cpsie	i
  4016ce:	e7fe      	b.n	4016ce <vTaskStartScheduler+0x6e>
  4016d0:	2040c2b4 	.word	0x2040c2b4
  4016d4:	00409fc4 	.word	0x00409fc4
  4016d8:	0040134d 	.word	0x0040134d
  4016dc:	0040146d 	.word	0x0040146d
  4016e0:	00401fb1 	.word	0x00401fb1
  4016e4:	2040c2b8 	.word	0x2040c2b8
  4016e8:	2040c2d4 	.word	0x2040c2d4
  4016ec:	2040c300 	.word	0x2040c300
  4016f0:	00400735 	.word	0x00400735

004016f4 <vTaskSuspendAll>:
  4016f4:	4a02      	ldr	r2, [pc, #8]	; (401700 <vTaskSuspendAll+0xc>)
  4016f6:	6813      	ldr	r3, [r2, #0]
  4016f8:	3301      	adds	r3, #1
  4016fa:	6013      	str	r3, [r2, #0]
  4016fc:	4770      	bx	lr
  4016fe:	bf00      	nop
  401700:	2040c280 	.word	0x2040c280

00401704 <xTaskGetTickCount>:
  401704:	4b01      	ldr	r3, [pc, #4]	; (40170c <xTaskGetTickCount+0x8>)
  401706:	6818      	ldr	r0, [r3, #0]
  401708:	4770      	bx	lr
  40170a:	bf00      	nop
  40170c:	2040c300 	.word	0x2040c300

00401710 <xTaskIncrementTick>:
  401710:	e92d 47f0 	stmdb	sp!, {r4, r5, r6, r7, r8, r9, sl, lr}
  401714:	4b41      	ldr	r3, [pc, #260]	; (40181c <xTaskIncrementTick+0x10c>)
  401716:	681b      	ldr	r3, [r3, #0]
  401718:	2b00      	cmp	r3, #0
  40171a:	d177      	bne.n	40180c <xTaskIncrementTick+0xfc>
  40171c:	4b40      	ldr	r3, [pc, #256]	; (401820 <xTaskIncrementTick+0x110>)
  40171e:	681d      	ldr	r5, [r3, #0]
  401720:	3501      	adds	r5, #1
  401722:	601d      	str	r5, [r3, #0]
  401724:	b9d5      	cbnz	r5, 40175c <xTaskIncrementTick+0x4c>
  401726:	4b3f      	ldr	r3, [pc, #252]	; (401824 <xTaskIncrementTick+0x114>)
  401728:	681b      	ldr	r3, [r3, #0]
  40172a:	681b      	ldr	r3, [r3, #0]
  40172c:	b153      	cbz	r3, 401744 <xTaskIncrementTick+0x34>
  40172e:	f04f 0380 	mov.w	r3, #128	; 0x80
  401732:	b672      	cpsid	i
  401734:	f383 8811 	msr	BASEPRI, r3
  401738:	f3bf 8f6f 	isb	sy
  40173c:	f3bf 8f4f 	dsb	sy
  401740:	b662      	cpsie	i
  401742:	e7fe      	b.n	401742 <xTaskIncrementTick+0x32>
  401744:	4a37      	ldr	r2, [pc, #220]	; (401824 <xTaskIncrementTick+0x114>)
  401746:	6811      	ldr	r1, [r2, #0]
  401748:	4b37      	ldr	r3, [pc, #220]	; (401828 <xTaskIncrementTick+0x118>)
  40174a:	6818      	ldr	r0, [r3, #0]
  40174c:	6010      	str	r0, [r2, #0]
  40174e:	6019      	str	r1, [r3, #0]
  401750:	4a36      	ldr	r2, [pc, #216]	; (40182c <xTaskIncrementTick+0x11c>)
  401752:	6813      	ldr	r3, [r2, #0]
  401754:	3301      	adds	r3, #1
  401756:	6013      	str	r3, [r2, #0]
  401758:	4b35      	ldr	r3, [pc, #212]	; (401830 <xTaskIncrementTick+0x120>)
  40175a:	4798      	blx	r3
  40175c:	4b35      	ldr	r3, [pc, #212]	; (401834 <xTaskIncrementTick+0x124>)
  40175e:	681b      	ldr	r3, [r3, #0]
  401760:	429d      	cmp	r5, r3
  401762:	d218      	bcs.n	401796 <xTaskIncrementTick+0x86>
  401764:	2400      	movs	r4, #0
  401766:	4b34      	ldr	r3, [pc, #208]	; (401838 <xTaskIncrementTick+0x128>)
  401768:	681b      	ldr	r3, [r3, #0]
  40176a:	6adb      	ldr	r3, [r3, #44]	; 0x2c
  40176c:	eb03 0383 	add.w	r3, r3, r3, lsl #2
  401770:	009b      	lsls	r3, r3, #2
  401772:	4a32      	ldr	r2, [pc, #200]	; (40183c <xTaskIncrementTick+0x12c>)
  401774:	58d3      	ldr	r3, [r2, r3]
  401776:	2b02      	cmp	r3, #2
  401778:	bf28      	it	cs
  40177a:	2401      	movcs	r4, #1
  40177c:	4b30      	ldr	r3, [pc, #192]	; (401840 <xTaskIncrementTick+0x130>)
  40177e:	681b      	ldr	r3, [r3, #0]
  401780:	b90b      	cbnz	r3, 401786 <xTaskIncrementTick+0x76>
  401782:	4b30      	ldr	r3, [pc, #192]	; (401844 <xTaskIncrementTick+0x134>)
  401784:	4798      	blx	r3
  401786:	4b30      	ldr	r3, [pc, #192]	; (401848 <xTaskIncrementTick+0x138>)
  401788:	681b      	ldr	r3, [r3, #0]
  40178a:	2b00      	cmp	r3, #0
  40178c:	bf0c      	ite	eq
  40178e:	4620      	moveq	r0, r4
  401790:	2001      	movne	r0, #1
  401792:	e8bd 87f0 	ldmia.w	sp!, {r4, r5, r6, r7, r8, r9, sl, pc}
  401796:	2400      	movs	r4, #0
  401798:	f8df 9088 	ldr.w	r9, [pc, #136]	; 401824 <xTaskIncrementTick+0x114>
  40179c:	f8df 80b4 	ldr.w	r8, [pc, #180]	; 401854 <xTaskIncrementTick+0x144>
  4017a0:	4f2a      	ldr	r7, [pc, #168]	; (40184c <xTaskIncrementTick+0x13c>)
  4017a2:	e01f      	b.n	4017e4 <xTaskIncrementTick+0xd4>
  4017a4:	f04f 32ff 	mov.w	r2, #4294967295
  4017a8:	4b22      	ldr	r3, [pc, #136]	; (401834 <xTaskIncrementTick+0x124>)
  4017aa:	601a      	str	r2, [r3, #0]
  4017ac:	e7db      	b.n	401766 <xTaskIncrementTick+0x56>
  4017ae:	4a21      	ldr	r2, [pc, #132]	; (401834 <xTaskIncrementTick+0x124>)
  4017b0:	6013      	str	r3, [r2, #0]
  4017b2:	e7d8      	b.n	401766 <xTaskIncrementTick+0x56>
  4017b4:	f106 0018 	add.w	r0, r6, #24
  4017b8:	47c0      	blx	r8
  4017ba:	6af0      	ldr	r0, [r6, #44]	; 0x2c
  4017bc:	683a      	ldr	r2, [r7, #0]
  4017be:	2301      	movs	r3, #1
  4017c0:	4083      	lsls	r3, r0
  4017c2:	4313      	orrs	r3, r2
  4017c4:	603b      	str	r3, [r7, #0]
  4017c6:	eb00 0080 	add.w	r0, r0, r0, lsl #2
  4017ca:	4651      	mov	r1, sl
  4017cc:	4b1b      	ldr	r3, [pc, #108]	; (40183c <xTaskIncrementTick+0x12c>)
  4017ce:	eb03 0080 	add.w	r0, r3, r0, lsl #2
  4017d2:	4b1f      	ldr	r3, [pc, #124]	; (401850 <xTaskIncrementTick+0x140>)
  4017d4:	4798      	blx	r3
  4017d6:	4b18      	ldr	r3, [pc, #96]	; (401838 <xTaskIncrementTick+0x128>)
  4017d8:	681b      	ldr	r3, [r3, #0]
  4017da:	6af2      	ldr	r2, [r6, #44]	; 0x2c
  4017dc:	6adb      	ldr	r3, [r3, #44]	; 0x2c
  4017de:	429a      	cmp	r2, r3
  4017e0:	bf28      	it	cs
  4017e2:	2401      	movcs	r4, #1
  4017e4:	f8d9 3000 	ldr.w	r3, [r9]
  4017e8:	681b      	ldr	r3, [r3, #0]
  4017ea:	2b00      	cmp	r3, #0
  4017ec:	d0da      	beq.n	4017a4 <xTaskIncrementTick+0x94>
  4017ee:	f8d9 3000 	ldr.w	r3, [r9]
  4017f2:	68db      	ldr	r3, [r3, #12]
  4017f4:	68de      	ldr	r6, [r3, #12]
  4017f6:	6873      	ldr	r3, [r6, #4]
  4017f8:	429d      	cmp	r5, r3
  4017fa:	d3d8      	bcc.n	4017ae <xTaskIncrementTick+0x9e>
  4017fc:	f106 0a04 	add.w	sl, r6, #4
  401800:	4650      	mov	r0, sl
  401802:	47c0      	blx	r8
  401804:	6ab3      	ldr	r3, [r6, #40]	; 0x28
  401806:	2b00      	cmp	r3, #0
  401808:	d1d4      	bne.n	4017b4 <xTaskIncrementTick+0xa4>
  40180a:	e7d6      	b.n	4017ba <xTaskIncrementTick+0xaa>
  40180c:	4a0c      	ldr	r2, [pc, #48]	; (401840 <xTaskIncrementTick+0x130>)
  40180e:	6813      	ldr	r3, [r2, #0]
  401810:	3301      	adds	r3, #1
  401812:	6013      	str	r3, [r2, #0]
  401814:	4b0b      	ldr	r3, [pc, #44]	; (401844 <xTaskIncrementTick+0x134>)
  401816:	4798      	blx	r3
  401818:	2400      	movs	r4, #0
  40181a:	e7b4      	b.n	401786 <xTaskIncrementTick+0x76>
  40181c:	2040c280 	.word	0x2040c280
  401820:	2040c300 	.word	0x2040c300
  401824:	2040c208 	.word	0x2040c208
  401828:	2040c20c 	.word	0x2040c20c
  40182c:	2040c2bc 	.word	0x2040c2bc
  401830:	00401321 	.word	0x00401321
  401834:	2040c2b8 	.word	0x2040c2b8
  401838:	2040c204 	.word	0x2040c204
  40183c:	2040c210 	.word	0x2040c210
  401840:	2040c27c 	.word	0x2040c27c
  401844:	00403dd1 	.word	0x00403dd1
  401848:	2040c304 	.word	0x2040c304
  40184c:	2040c288 	.word	0x2040c288
  401850:	00400571 	.word	0x00400571
  401854:	004005bd 	.word	0x004005bd

00401858 <xTaskResumeAll>:
  401858:	4b36      	ldr	r3, [pc, #216]	; (401934 <xTaskResumeAll+0xdc>)
  40185a:	681b      	ldr	r3, [r3, #0]
  40185c:	b953      	cbnz	r3, 401874 <xTaskResumeAll+0x1c>
  40185e:	f04f 0380 	mov.w	r3, #128	; 0x80
  401862:	b672      	cpsid	i
  401864:	f383 8811 	msr	BASEPRI, r3
  401868:	f3bf 8f6f 	isb	sy
  40186c:	f3bf 8f4f 	dsb	sy
  401870:	b662      	cpsie	i
  401872:	e7fe      	b.n	401872 <xTaskResumeAll+0x1a>
  401874:	e92d 41f0 	stmdb	sp!, {r4, r5, r6, r7, r8, lr}
  401878:	4b2f      	ldr	r3, [pc, #188]	; (401938 <xTaskResumeAll+0xe0>)
  40187a:	4798      	blx	r3
  40187c:	4b2d      	ldr	r3, [pc, #180]	; (401934 <xTaskResumeAll+0xdc>)
  40187e:	681a      	ldr	r2, [r3, #0]
  401880:	3a01      	subs	r2, #1
  401882:	601a      	str	r2, [r3, #0]
  401884:	681b      	ldr	r3, [r3, #0]
  401886:	2b00      	cmp	r3, #0
  401888:	d150      	bne.n	40192c <xTaskResumeAll+0xd4>
  40188a:	4b2c      	ldr	r3, [pc, #176]	; (40193c <xTaskResumeAll+0xe4>)
  40188c:	681b      	ldr	r3, [r3, #0]
  40188e:	b92b      	cbnz	r3, 40189c <xTaskResumeAll+0x44>
  401890:	2400      	movs	r4, #0
  401892:	4b2b      	ldr	r3, [pc, #172]	; (401940 <xTaskResumeAll+0xe8>)
  401894:	4798      	blx	r3
  401896:	4620      	mov	r0, r4
  401898:	e8bd 81f0 	ldmia.w	sp!, {r4, r5, r6, r7, r8, pc}
  40189c:	2400      	movs	r4, #0
  40189e:	4f29      	ldr	r7, [pc, #164]	; (401944 <xTaskResumeAll+0xec>)
  4018a0:	4e29      	ldr	r6, [pc, #164]	; (401948 <xTaskResumeAll+0xf0>)
  4018a2:	4d2a      	ldr	r5, [pc, #168]	; (40194c <xTaskResumeAll+0xf4>)
  4018a4:	683b      	ldr	r3, [r7, #0]
  4018a6:	b303      	cbz	r3, 4018ea <xTaskResumeAll+0x92>
  4018a8:	68fb      	ldr	r3, [r7, #12]
  4018aa:	68dc      	ldr	r4, [r3, #12]
  4018ac:	f104 0018 	add.w	r0, r4, #24
  4018b0:	47b0      	blx	r6
  4018b2:	f104 0804 	add.w	r8, r4, #4
  4018b6:	4640      	mov	r0, r8
  4018b8:	47b0      	blx	r6
  4018ba:	6ae0      	ldr	r0, [r4, #44]	; 0x2c
  4018bc:	682a      	ldr	r2, [r5, #0]
  4018be:	2301      	movs	r3, #1
  4018c0:	4083      	lsls	r3, r0
  4018c2:	4313      	orrs	r3, r2
  4018c4:	602b      	str	r3, [r5, #0]
  4018c6:	eb00 0080 	add.w	r0, r0, r0, lsl #2
  4018ca:	4641      	mov	r1, r8
  4018cc:	4b20      	ldr	r3, [pc, #128]	; (401950 <xTaskResumeAll+0xf8>)
  4018ce:	eb03 0080 	add.w	r0, r3, r0, lsl #2
  4018d2:	4b20      	ldr	r3, [pc, #128]	; (401954 <xTaskResumeAll+0xfc>)
  4018d4:	4798      	blx	r3
  4018d6:	4b20      	ldr	r3, [pc, #128]	; (401958 <xTaskResumeAll+0x100>)
  4018d8:	681b      	ldr	r3, [r3, #0]
  4018da:	6ae2      	ldr	r2, [r4, #44]	; 0x2c
  4018dc:	6adb      	ldr	r3, [r3, #44]	; 0x2c
  4018de:	429a      	cmp	r2, r3
  4018e0:	d3e0      	bcc.n	4018a4 <xTaskResumeAll+0x4c>
  4018e2:	2201      	movs	r2, #1
  4018e4:	4b1d      	ldr	r3, [pc, #116]	; (40195c <xTaskResumeAll+0x104>)
  4018e6:	601a      	str	r2, [r3, #0]
  4018e8:	e7dc      	b.n	4018a4 <xTaskResumeAll+0x4c>
  4018ea:	b10c      	cbz	r4, 4018f0 <xTaskResumeAll+0x98>
  4018ec:	4b1c      	ldr	r3, [pc, #112]	; (401960 <xTaskResumeAll+0x108>)
  4018ee:	4798      	blx	r3
  4018f0:	4b1c      	ldr	r3, [pc, #112]	; (401964 <xTaskResumeAll+0x10c>)
  4018f2:	681c      	ldr	r4, [r3, #0]
  4018f4:	b16c      	cbz	r4, 401912 <xTaskResumeAll+0xba>
  4018f6:	4f1c      	ldr	r7, [pc, #112]	; (401968 <xTaskResumeAll+0x110>)
  4018f8:	4e18      	ldr	r6, [pc, #96]	; (40195c <xTaskResumeAll+0x104>)
  4018fa:	2501      	movs	r5, #1
  4018fc:	e001      	b.n	401902 <xTaskResumeAll+0xaa>
  4018fe:	3c01      	subs	r4, #1
  401900:	d004      	beq.n	40190c <xTaskResumeAll+0xb4>
  401902:	47b8      	blx	r7
  401904:	2800      	cmp	r0, #0
  401906:	d0fa      	beq.n	4018fe <xTaskResumeAll+0xa6>
  401908:	6035      	str	r5, [r6, #0]
  40190a:	e7f8      	b.n	4018fe <xTaskResumeAll+0xa6>
  40190c:	2200      	movs	r2, #0
  40190e:	4b15      	ldr	r3, [pc, #84]	; (401964 <xTaskResumeAll+0x10c>)
  401910:	601a      	str	r2, [r3, #0]
  401912:	4b12      	ldr	r3, [pc, #72]	; (40195c <xTaskResumeAll+0x104>)
  401914:	681b      	ldr	r3, [r3, #0]
  401916:	b15b      	cbz	r3, 401930 <xTaskResumeAll+0xd8>
  401918:	f04f 5280 	mov.w	r2, #268435456	; 0x10000000
  40191c:	4b13      	ldr	r3, [pc, #76]	; (40196c <xTaskResumeAll+0x114>)
  40191e:	601a      	str	r2, [r3, #0]
  401920:	f3bf 8f4f 	dsb	sy
  401924:	f3bf 8f6f 	isb	sy
  401928:	2401      	movs	r4, #1
  40192a:	e7b2      	b.n	401892 <xTaskResumeAll+0x3a>
  40192c:	2400      	movs	r4, #0
  40192e:	e7b0      	b.n	401892 <xTaskResumeAll+0x3a>
  401930:	2400      	movs	r4, #0
  401932:	e7ae      	b.n	401892 <xTaskResumeAll+0x3a>
  401934:	2040c280 	.word	0x2040c280
  401938:	00400695 	.word	0x00400695
  40193c:	2040c274 	.word	0x2040c274
  401940:	004006e1 	.word	0x004006e1
  401944:	2040c2c0 	.word	0x2040c2c0
  401948:	004005bd 	.word	0x004005bd
  40194c:	2040c288 	.word	0x2040c288
  401950:	2040c210 	.word	0x2040c210
  401954:	00400571 	.word	0x00400571
  401958:	2040c204 	.word	0x2040c204
  40195c:	2040c304 	.word	0x2040c304
  401960:	00401321 	.word	0x00401321
  401964:	2040c27c 	.word	0x2040c27c
  401968:	00401711 	.word	0x00401711
  40196c:	e000ed04 	.word	0xe000ed04

00401970 <vTaskDelay>:
  401970:	b510      	push	{r4, lr}
  401972:	b1b8      	cbz	r0, 4019a4 <vTaskDelay+0x34>
  401974:	4604      	mov	r4, r0
  401976:	4b10      	ldr	r3, [pc, #64]	; (4019b8 <vTaskDelay+0x48>)
  401978:	681b      	ldr	r3, [r3, #0]
  40197a:	b153      	cbz	r3, 401992 <vTaskDelay+0x22>
  40197c:	f04f 0380 	mov.w	r3, #128	; 0x80
  401980:	b672      	cpsid	i
  401982:	f383 8811 	msr	BASEPRI, r3
  401986:	f3bf 8f6f 	isb	sy
  40198a:	f3bf 8f4f 	dsb	sy
  40198e:	b662      	cpsie	i
  401990:	e7fe      	b.n	401990 <vTaskDelay+0x20>
  401992:	4b0a      	ldr	r3, [pc, #40]	; (4019bc <vTaskDelay+0x4c>)
  401994:	4798      	blx	r3
  401996:	2100      	movs	r1, #0
  401998:	4620      	mov	r0, r4
  40199a:	4b09      	ldr	r3, [pc, #36]	; (4019c0 <vTaskDelay+0x50>)
  40199c:	4798      	blx	r3
  40199e:	4b09      	ldr	r3, [pc, #36]	; (4019c4 <vTaskDelay+0x54>)
  4019a0:	4798      	blx	r3
  4019a2:	b938      	cbnz	r0, 4019b4 <vTaskDelay+0x44>
  4019a4:	f04f 5280 	mov.w	r2, #268435456	; 0x10000000
  4019a8:	4b07      	ldr	r3, [pc, #28]	; (4019c8 <vTaskDelay+0x58>)
  4019aa:	601a      	str	r2, [r3, #0]
  4019ac:	f3bf 8f4f 	dsb	sy
  4019b0:	f3bf 8f6f 	isb	sy
  4019b4:	bd10      	pop	{r4, pc}
  4019b6:	bf00      	nop
  4019b8:	2040c280 	.word	0x2040c280
  4019bc:	004016f5 	.word	0x004016f5
  4019c0:	004013cd 	.word	0x004013cd
  4019c4:	00401859 	.word	0x00401859
  4019c8:	e000ed04 	.word	0xe000ed04

004019cc <vTaskSwitchContext>:
  4019cc:	4b2d      	ldr	r3, [pc, #180]	; (401a84 <vTaskSwitchContext+0xb8>)
  4019ce:	681b      	ldr	r3, [r3, #0]
  4019d0:	2b00      	cmp	r3, #0
  4019d2:	d12c      	bne.n	401a2e <vTaskSwitchContext+0x62>
  4019d4:	b510      	push	{r4, lr}
  4019d6:	2200      	movs	r2, #0
  4019d8:	4b2b      	ldr	r3, [pc, #172]	; (401a88 <vTaskSwitchContext+0xbc>)
  4019da:	601a      	str	r2, [r3, #0]
  4019dc:	4b2b      	ldr	r3, [pc, #172]	; (401a8c <vTaskSwitchContext+0xc0>)
  4019de:	681b      	ldr	r3, [r3, #0]
  4019e0:	6b1b      	ldr	r3, [r3, #48]	; 0x30
  4019e2:	681a      	ldr	r2, [r3, #0]
  4019e4:	f1b2 3fa5 	cmp.w	r2, #2779096485	; 0xa5a5a5a5
  4019e8:	d103      	bne.n	4019f2 <vTaskSwitchContext+0x26>
  4019ea:	685a      	ldr	r2, [r3, #4]
  4019ec:	f1b2 3fa5 	cmp.w	r2, #2779096485	; 0xa5a5a5a5
  4019f0:	d021      	beq.n	401a36 <vTaskSwitchContext+0x6a>
  4019f2:	4b26      	ldr	r3, [pc, #152]	; (401a8c <vTaskSwitchContext+0xc0>)
  4019f4:	6818      	ldr	r0, [r3, #0]
  4019f6:	6819      	ldr	r1, [r3, #0]
  4019f8:	3134      	adds	r1, #52	; 0x34
  4019fa:	4b25      	ldr	r3, [pc, #148]	; (401a90 <vTaskSwitchContext+0xc4>)
  4019fc:	4798      	blx	r3
  4019fe:	4b25      	ldr	r3, [pc, #148]	; (401a94 <vTaskSwitchContext+0xc8>)
  401a00:	681b      	ldr	r3, [r3, #0]
  401a02:	fab3 f383 	clz	r3, r3
  401a06:	b2db      	uxtb	r3, r3
  401a08:	f1c3 031f 	rsb	r3, r3, #31
  401a0c:	eb03 0283 	add.w	r2, r3, r3, lsl #2
  401a10:	0092      	lsls	r2, r2, #2
  401a12:	4921      	ldr	r1, [pc, #132]	; (401a98 <vTaskSwitchContext+0xcc>)
  401a14:	588a      	ldr	r2, [r1, r2]
  401a16:	b9ba      	cbnz	r2, 401a48 <vTaskSwitchContext+0x7c>
  401a18:	f04f 0380 	mov.w	r3, #128	; 0x80
  401a1c:	b672      	cpsid	i
  401a1e:	f383 8811 	msr	BASEPRI, r3
  401a22:	f3bf 8f6f 	isb	sy
  401a26:	f3bf 8f4f 	dsb	sy
  401a2a:	b662      	cpsie	i
  401a2c:	e7fe      	b.n	401a2c <vTaskSwitchContext+0x60>
  401a2e:	2201      	movs	r2, #1
  401a30:	4b15      	ldr	r3, [pc, #84]	; (401a88 <vTaskSwitchContext+0xbc>)
  401a32:	601a      	str	r2, [r3, #0]
  401a34:	4770      	bx	lr
  401a36:	689a      	ldr	r2, [r3, #8]
  401a38:	f1b2 3fa5 	cmp.w	r2, #2779096485	; 0xa5a5a5a5
  401a3c:	d1d9      	bne.n	4019f2 <vTaskSwitchContext+0x26>
  401a3e:	68db      	ldr	r3, [r3, #12]
  401a40:	f1b3 3fa5 	cmp.w	r3, #2779096485	; 0xa5a5a5a5
  401a44:	d1d5      	bne.n	4019f2 <vTaskSwitchContext+0x26>
  401a46:	e7da      	b.n	4019fe <vTaskSwitchContext+0x32>
  401a48:	4a13      	ldr	r2, [pc, #76]	; (401a98 <vTaskSwitchContext+0xcc>)
  401a4a:	0099      	lsls	r1, r3, #2
  401a4c:	18c8      	adds	r0, r1, r3
  401a4e:	eb02 0080 	add.w	r0, r2, r0, lsl #2
  401a52:	6844      	ldr	r4, [r0, #4]
  401a54:	6864      	ldr	r4, [r4, #4]
  401a56:	6044      	str	r4, [r0, #4]
  401a58:	4419      	add	r1, r3
  401a5a:	4602      	mov	r2, r0
  401a5c:	3208      	adds	r2, #8
  401a5e:	4294      	cmp	r4, r2
  401a60:	d009      	beq.n	401a76 <vTaskSwitchContext+0xaa>
  401a62:	eb03 0383 	add.w	r3, r3, r3, lsl #2
  401a66:	4a0c      	ldr	r2, [pc, #48]	; (401a98 <vTaskSwitchContext+0xcc>)
  401a68:	eb02 0383 	add.w	r3, r2, r3, lsl #2
  401a6c:	685b      	ldr	r3, [r3, #4]
  401a6e:	68da      	ldr	r2, [r3, #12]
  401a70:	4b06      	ldr	r3, [pc, #24]	; (401a8c <vTaskSwitchContext+0xc0>)
  401a72:	601a      	str	r2, [r3, #0]
  401a74:	bd10      	pop	{r4, pc}
  401a76:	6860      	ldr	r0, [r4, #4]
  401a78:	4a07      	ldr	r2, [pc, #28]	; (401a98 <vTaskSwitchContext+0xcc>)
  401a7a:	eb02 0281 	add.w	r2, r2, r1, lsl #2
  401a7e:	6050      	str	r0, [r2, #4]
  401a80:	e7ef      	b.n	401a62 <vTaskSwitchContext+0x96>
  401a82:	bf00      	nop
  401a84:	2040c280 	.word	0x2040c280
  401a88:	2040c304 	.word	0x2040c304
  401a8c:	2040c204 	.word	0x2040c204
  401a90:	00403db9 	.word	0x00403db9
  401a94:	2040c288 	.word	0x2040c288
  401a98:	2040c210 	.word	0x2040c210

00401a9c <vTaskPlaceOnEventList>:
  401a9c:	b950      	cbnz	r0, 401ab4 <vTaskPlaceOnEventList+0x18>
  401a9e:	f04f 0380 	mov.w	r3, #128	; 0x80
  401aa2:	b672      	cpsid	i
  401aa4:	f383 8811 	msr	BASEPRI, r3
  401aa8:	f3bf 8f6f 	isb	sy
  401aac:	f3bf 8f4f 	dsb	sy
  401ab0:	b662      	cpsie	i
  401ab2:	e7fe      	b.n	401ab2 <vTaskPlaceOnEventList+0x16>
  401ab4:	b510      	push	{r4, lr}
  401ab6:	460c      	mov	r4, r1
  401ab8:	4b04      	ldr	r3, [pc, #16]	; (401acc <vTaskPlaceOnEventList+0x30>)
  401aba:	6819      	ldr	r1, [r3, #0]
  401abc:	3118      	adds	r1, #24
  401abe:	4b04      	ldr	r3, [pc, #16]	; (401ad0 <vTaskPlaceOnEventList+0x34>)
  401ac0:	4798      	blx	r3
  401ac2:	2101      	movs	r1, #1
  401ac4:	4620      	mov	r0, r4
  401ac6:	4b03      	ldr	r3, [pc, #12]	; (401ad4 <vTaskPlaceOnEventList+0x38>)
  401ac8:	4798      	blx	r3
  401aca:	bd10      	pop	{r4, pc}
  401acc:	2040c204 	.word	0x2040c204
  401ad0:	00400589 	.word	0x00400589
  401ad4:	004013cd 	.word	0x004013cd

00401ad8 <vTaskPlaceOnEventListRestricted>:
  401ad8:	b538      	push	{r3, r4, r5, lr}
  401ada:	b178      	cbz	r0, 401afc <vTaskPlaceOnEventListRestricted+0x24>
  401adc:	4614      	mov	r4, r2
  401ade:	460d      	mov	r5, r1
  401ae0:	4b0c      	ldr	r3, [pc, #48]	; (401b14 <vTaskPlaceOnEventListRestricted+0x3c>)
  401ae2:	6819      	ldr	r1, [r3, #0]
  401ae4:	3118      	adds	r1, #24
  401ae6:	4b0c      	ldr	r3, [pc, #48]	; (401b18 <vTaskPlaceOnEventListRestricted+0x40>)
  401ae8:	4798      	blx	r3
  401aea:	2c00      	cmp	r4, #0
  401aec:	4621      	mov	r1, r4
  401aee:	bf0c      	ite	eq
  401af0:	4628      	moveq	r0, r5
  401af2:	f04f 30ff 	movne.w	r0, #4294967295
  401af6:	4b09      	ldr	r3, [pc, #36]	; (401b1c <vTaskPlaceOnEventListRestricted+0x44>)
  401af8:	4798      	blx	r3
  401afa:	bd38      	pop	{r3, r4, r5, pc}
  401afc:	f04f 0380 	mov.w	r3, #128	; 0x80
  401b00:	b672      	cpsid	i
  401b02:	f383 8811 	msr	BASEPRI, r3
  401b06:	f3bf 8f6f 	isb	sy
  401b0a:	f3bf 8f4f 	dsb	sy
  401b0e:	b662      	cpsie	i
  401b10:	e7fe      	b.n	401b10 <vTaskPlaceOnEventListRestricted+0x38>
  401b12:	bf00      	nop
  401b14:	2040c204 	.word	0x2040c204
  401b18:	00400571 	.word	0x00400571
  401b1c:	004013cd 	.word	0x004013cd

00401b20 <xTaskRemoveFromEventList>:
  401b20:	b538      	push	{r3, r4, r5, lr}
  401b22:	68c3      	ldr	r3, [r0, #12]
  401b24:	68dc      	ldr	r4, [r3, #12]
  401b26:	b324      	cbz	r4, 401b72 <xTaskRemoveFromEventList+0x52>
  401b28:	f104 0518 	add.w	r5, r4, #24
  401b2c:	4628      	mov	r0, r5
  401b2e:	4b1a      	ldr	r3, [pc, #104]	; (401b98 <xTaskRemoveFromEventList+0x78>)
  401b30:	4798      	blx	r3
  401b32:	4b1a      	ldr	r3, [pc, #104]	; (401b9c <xTaskRemoveFromEventList+0x7c>)
  401b34:	681b      	ldr	r3, [r3, #0]
  401b36:	bb3b      	cbnz	r3, 401b88 <xTaskRemoveFromEventList+0x68>
  401b38:	1d25      	adds	r5, r4, #4
  401b3a:	4628      	mov	r0, r5
  401b3c:	4b16      	ldr	r3, [pc, #88]	; (401b98 <xTaskRemoveFromEventList+0x78>)
  401b3e:	4798      	blx	r3
  401b40:	6ae0      	ldr	r0, [r4, #44]	; 0x2c
  401b42:	4a17      	ldr	r2, [pc, #92]	; (401ba0 <xTaskRemoveFromEventList+0x80>)
  401b44:	6811      	ldr	r1, [r2, #0]
  401b46:	2301      	movs	r3, #1
  401b48:	4083      	lsls	r3, r0
  401b4a:	430b      	orrs	r3, r1
  401b4c:	6013      	str	r3, [r2, #0]
  401b4e:	eb00 0080 	add.w	r0, r0, r0, lsl #2
  401b52:	4629      	mov	r1, r5
  401b54:	4b13      	ldr	r3, [pc, #76]	; (401ba4 <xTaskRemoveFromEventList+0x84>)
  401b56:	eb03 0080 	add.w	r0, r3, r0, lsl #2
  401b5a:	4b13      	ldr	r3, [pc, #76]	; (401ba8 <xTaskRemoveFromEventList+0x88>)
  401b5c:	4798      	blx	r3
  401b5e:	4b13      	ldr	r3, [pc, #76]	; (401bac <xTaskRemoveFromEventList+0x8c>)
  401b60:	681b      	ldr	r3, [r3, #0]
  401b62:	6ae2      	ldr	r2, [r4, #44]	; 0x2c
  401b64:	6adb      	ldr	r3, [r3, #44]	; 0x2c
  401b66:	429a      	cmp	r2, r3
  401b68:	d913      	bls.n	401b92 <xTaskRemoveFromEventList+0x72>
  401b6a:	2001      	movs	r0, #1
  401b6c:	4b10      	ldr	r3, [pc, #64]	; (401bb0 <xTaskRemoveFromEventList+0x90>)
  401b6e:	6018      	str	r0, [r3, #0]
  401b70:	bd38      	pop	{r3, r4, r5, pc}
  401b72:	f04f 0380 	mov.w	r3, #128	; 0x80
  401b76:	b672      	cpsid	i
  401b78:	f383 8811 	msr	BASEPRI, r3
  401b7c:	f3bf 8f6f 	isb	sy
  401b80:	f3bf 8f4f 	dsb	sy
  401b84:	b662      	cpsie	i
  401b86:	e7fe      	b.n	401b86 <xTaskRemoveFromEventList+0x66>
  401b88:	4629      	mov	r1, r5
  401b8a:	480a      	ldr	r0, [pc, #40]	; (401bb4 <xTaskRemoveFromEventList+0x94>)
  401b8c:	4b06      	ldr	r3, [pc, #24]	; (401ba8 <xTaskRemoveFromEventList+0x88>)
  401b8e:	4798      	blx	r3
  401b90:	e7e5      	b.n	401b5e <xTaskRemoveFromEventList+0x3e>
  401b92:	2000      	movs	r0, #0
  401b94:	bd38      	pop	{r3, r4, r5, pc}
  401b96:	bf00      	nop
  401b98:	004005bd 	.word	0x004005bd
  401b9c:	2040c280 	.word	0x2040c280
  401ba0:	2040c288 	.word	0x2040c288
  401ba4:	2040c210 	.word	0x2040c210
  401ba8:	00400571 	.word	0x00400571
  401bac:	2040c204 	.word	0x2040c204
  401bb0:	2040c304 	.word	0x2040c304
  401bb4:	2040c2c0 	.word	0x2040c2c0

00401bb8 <vTaskInternalSetTimeOutState>:
  401bb8:	4b03      	ldr	r3, [pc, #12]	; (401bc8 <vTaskInternalSetTimeOutState+0x10>)
  401bba:	681b      	ldr	r3, [r3, #0]
  401bbc:	6003      	str	r3, [r0, #0]
  401bbe:	4b03      	ldr	r3, [pc, #12]	; (401bcc <vTaskInternalSetTimeOutState+0x14>)
  401bc0:	681b      	ldr	r3, [r3, #0]
  401bc2:	6043      	str	r3, [r0, #4]
  401bc4:	4770      	bx	lr
  401bc6:	bf00      	nop
  401bc8:	2040c2bc 	.word	0x2040c2bc
  401bcc:	2040c300 	.word	0x2040c300

00401bd0 <xTaskCheckForTimeOut>:
  401bd0:	b1a8      	cbz	r0, 401bfe <xTaskCheckForTimeOut+0x2e>
  401bd2:	b570      	push	{r4, r5, r6, lr}
  401bd4:	4605      	mov	r5, r0
  401bd6:	b1e9      	cbz	r1, 401c14 <xTaskCheckForTimeOut+0x44>
  401bd8:	460c      	mov	r4, r1
  401bda:	4b1d      	ldr	r3, [pc, #116]	; (401c50 <xTaskCheckForTimeOut+0x80>)
  401bdc:	4798      	blx	r3
  401bde:	4b1d      	ldr	r3, [pc, #116]	; (401c54 <xTaskCheckForTimeOut+0x84>)
  401be0:	681a      	ldr	r2, [r3, #0]
  401be2:	6869      	ldr	r1, [r5, #4]
  401be4:	6823      	ldr	r3, [r4, #0]
  401be6:	f1b3 3fff 	cmp.w	r3, #4294967295
  401bea:	d02f      	beq.n	401c4c <xTaskCheckForTimeOut+0x7c>
  401bec:	481a      	ldr	r0, [pc, #104]	; (401c58 <xTaskCheckForTimeOut+0x88>)
  401bee:	6800      	ldr	r0, [r0, #0]
  401bf0:	682e      	ldr	r6, [r5, #0]
  401bf2:	4286      	cmp	r6, r0
  401bf4:	d019      	beq.n	401c2a <xTaskCheckForTimeOut+0x5a>
  401bf6:	428a      	cmp	r2, r1
  401bf8:	d317      	bcc.n	401c2a <xTaskCheckForTimeOut+0x5a>
  401bfa:	2401      	movs	r4, #1
  401bfc:	e01b      	b.n	401c36 <xTaskCheckForTimeOut+0x66>
  401bfe:	f04f 0380 	mov.w	r3, #128	; 0x80
  401c02:	b672      	cpsid	i
  401c04:	f383 8811 	msr	BASEPRI, r3
  401c08:	f3bf 8f6f 	isb	sy
  401c0c:	f3bf 8f4f 	dsb	sy
  401c10:	b662      	cpsie	i
  401c12:	e7fe      	b.n	401c12 <xTaskCheckForTimeOut+0x42>
  401c14:	f04f 0380 	mov.w	r3, #128	; 0x80
  401c18:	b672      	cpsid	i
  401c1a:	f383 8811 	msr	BASEPRI, r3
  401c1e:	f3bf 8f6f 	isb	sy
  401c22:	f3bf 8f4f 	dsb	sy
  401c26:	b662      	cpsie	i
  401c28:	e7fe      	b.n	401c28 <xTaskCheckForTimeOut+0x58>
  401c2a:	1a52      	subs	r2, r2, r1
  401c2c:	429a      	cmp	r2, r3
  401c2e:	d306      	bcc.n	401c3e <xTaskCheckForTimeOut+0x6e>
  401c30:	2300      	movs	r3, #0
  401c32:	6023      	str	r3, [r4, #0]
  401c34:	2401      	movs	r4, #1
  401c36:	4b09      	ldr	r3, [pc, #36]	; (401c5c <xTaskCheckForTimeOut+0x8c>)
  401c38:	4798      	blx	r3
  401c3a:	4620      	mov	r0, r4
  401c3c:	bd70      	pop	{r4, r5, r6, pc}
  401c3e:	1a9b      	subs	r3, r3, r2
  401c40:	6023      	str	r3, [r4, #0]
  401c42:	4628      	mov	r0, r5
  401c44:	4b06      	ldr	r3, [pc, #24]	; (401c60 <xTaskCheckForTimeOut+0x90>)
  401c46:	4798      	blx	r3
  401c48:	2400      	movs	r4, #0
  401c4a:	e7f4      	b.n	401c36 <xTaskCheckForTimeOut+0x66>
  401c4c:	2400      	movs	r4, #0
  401c4e:	e7f2      	b.n	401c36 <xTaskCheckForTimeOut+0x66>
  401c50:	00400695 	.word	0x00400695
  401c54:	2040c300 	.word	0x2040c300
  401c58:	2040c2bc 	.word	0x2040c2bc
  401c5c:	004006e1 	.word	0x004006e1
  401c60:	00401bb9 	.word	0x00401bb9

00401c64 <vTaskMissedYield>:
  401c64:	2201      	movs	r2, #1
  401c66:	4b01      	ldr	r3, [pc, #4]	; (401c6c <vTaskMissedYield+0x8>)
  401c68:	601a      	str	r2, [r3, #0]
  401c6a:	4770      	bx	lr
  401c6c:	2040c304 	.word	0x2040c304

00401c70 <xTaskGetSchedulerState>:
  401c70:	4b05      	ldr	r3, [pc, #20]	; (401c88 <xTaskGetSchedulerState+0x18>)
  401c72:	681b      	ldr	r3, [r3, #0]
  401c74:	b133      	cbz	r3, 401c84 <xTaskGetSchedulerState+0x14>
  401c76:	4b05      	ldr	r3, [pc, #20]	; (401c8c <xTaskGetSchedulerState+0x1c>)
  401c78:	681b      	ldr	r3, [r3, #0]
  401c7a:	2b00      	cmp	r3, #0
  401c7c:	bf0c      	ite	eq
  401c7e:	2002      	moveq	r0, #2
  401c80:	2000      	movne	r0, #0
  401c82:	4770      	bx	lr
  401c84:	2001      	movs	r0, #1
  401c86:	4770      	bx	lr
  401c88:	2040c2d4 	.word	0x2040c2d4
  401c8c:	2040c280 	.word	0x2040c280

00401c90 <xTaskPriorityInherit>:
  401c90:	2800      	cmp	r0, #0
  401c92:	d050      	beq.n	401d36 <xTaskPriorityInherit+0xa6>
  401c94:	b538      	push	{r3, r4, r5, lr}
  401c96:	4604      	mov	r4, r0
  401c98:	6ac2      	ldr	r2, [r0, #44]	; 0x2c
  401c9a:	4928      	ldr	r1, [pc, #160]	; (401d3c <xTaskPriorityInherit+0xac>)
  401c9c:	6809      	ldr	r1, [r1, #0]
  401c9e:	6ac9      	ldr	r1, [r1, #44]	; 0x2c
  401ca0:	428a      	cmp	r2, r1
  401ca2:	d23f      	bcs.n	401d24 <xTaskPriorityInherit+0x94>
  401ca4:	6981      	ldr	r1, [r0, #24]
  401ca6:	2900      	cmp	r1, #0
  401ca8:	db05      	blt.n	401cb6 <xTaskPriorityInherit+0x26>
  401caa:	4924      	ldr	r1, [pc, #144]	; (401d3c <xTaskPriorityInherit+0xac>)
  401cac:	6809      	ldr	r1, [r1, #0]
  401cae:	6ac9      	ldr	r1, [r1, #44]	; 0x2c
  401cb0:	f1c1 0105 	rsb	r1, r1, #5
  401cb4:	6181      	str	r1, [r0, #24]
  401cb6:	eb02 0282 	add.w	r2, r2, r2, lsl #2
  401cba:	4921      	ldr	r1, [pc, #132]	; (401d40 <xTaskPriorityInherit+0xb0>)
  401cbc:	eb01 0282 	add.w	r2, r1, r2, lsl #2
  401cc0:	6961      	ldr	r1, [r4, #20]
  401cc2:	4291      	cmp	r1, r2
  401cc4:	d005      	beq.n	401cd2 <xTaskPriorityInherit+0x42>
  401cc6:	4a1d      	ldr	r2, [pc, #116]	; (401d3c <xTaskPriorityInherit+0xac>)
  401cc8:	6812      	ldr	r2, [r2, #0]
  401cca:	6ad2      	ldr	r2, [r2, #44]	; 0x2c
  401ccc:	62e2      	str	r2, [r4, #44]	; 0x2c
  401cce:	2001      	movs	r0, #1
  401cd0:	bd38      	pop	{r3, r4, r5, pc}
  401cd2:	1d25      	adds	r5, r4, #4
  401cd4:	4628      	mov	r0, r5
  401cd6:	4b1b      	ldr	r3, [pc, #108]	; (401d44 <xTaskPriorityInherit+0xb4>)
  401cd8:	4798      	blx	r3
  401cda:	b970      	cbnz	r0, 401cfa <xTaskPriorityInherit+0x6a>
  401cdc:	6ae2      	ldr	r2, [r4, #44]	; 0x2c
  401cde:	eb02 0382 	add.w	r3, r2, r2, lsl #2
  401ce2:	009b      	lsls	r3, r3, #2
  401ce4:	4916      	ldr	r1, [pc, #88]	; (401d40 <xTaskPriorityInherit+0xb0>)
  401ce6:	58cb      	ldr	r3, [r1, r3]
  401ce8:	b93b      	cbnz	r3, 401cfa <xTaskPriorityInherit+0x6a>
  401cea:	4817      	ldr	r0, [pc, #92]	; (401d48 <xTaskPriorityInherit+0xb8>)
  401cec:	6803      	ldr	r3, [r0, #0]
  401cee:	2101      	movs	r1, #1
  401cf0:	fa01 f202 	lsl.w	r2, r1, r2
  401cf4:	ea23 0202 	bic.w	r2, r3, r2
  401cf8:	6002      	str	r2, [r0, #0]
  401cfa:	4b10      	ldr	r3, [pc, #64]	; (401d3c <xTaskPriorityInherit+0xac>)
  401cfc:	681b      	ldr	r3, [r3, #0]
  401cfe:	6ad8      	ldr	r0, [r3, #44]	; 0x2c
  401d00:	62e0      	str	r0, [r4, #44]	; 0x2c
  401d02:	4a11      	ldr	r2, [pc, #68]	; (401d48 <xTaskPriorityInherit+0xb8>)
  401d04:	6811      	ldr	r1, [r2, #0]
  401d06:	2401      	movs	r4, #1
  401d08:	fa04 f300 	lsl.w	r3, r4, r0
  401d0c:	430b      	orrs	r3, r1
  401d0e:	6013      	str	r3, [r2, #0]
  401d10:	eb00 0080 	add.w	r0, r0, r0, lsl #2
  401d14:	4629      	mov	r1, r5
  401d16:	4b0a      	ldr	r3, [pc, #40]	; (401d40 <xTaskPriorityInherit+0xb0>)
  401d18:	eb03 0080 	add.w	r0, r3, r0, lsl #2
  401d1c:	4b0b      	ldr	r3, [pc, #44]	; (401d4c <xTaskPriorityInherit+0xbc>)
  401d1e:	4798      	blx	r3
  401d20:	4620      	mov	r0, r4
  401d22:	bd38      	pop	{r3, r4, r5, pc}
  401d24:	4a05      	ldr	r2, [pc, #20]	; (401d3c <xTaskPriorityInherit+0xac>)
  401d26:	6812      	ldr	r2, [r2, #0]
  401d28:	6c80      	ldr	r0, [r0, #72]	; 0x48
  401d2a:	6ad3      	ldr	r3, [r2, #44]	; 0x2c
  401d2c:	4298      	cmp	r0, r3
  401d2e:	bf2c      	ite	cs
  401d30:	2000      	movcs	r0, #0
  401d32:	2001      	movcc	r0, #1
  401d34:	bd38      	pop	{r3, r4, r5, pc}
  401d36:	2000      	movs	r0, #0
  401d38:	4770      	bx	lr
  401d3a:	bf00      	nop
  401d3c:	2040c204 	.word	0x2040c204
  401d40:	2040c210 	.word	0x2040c210
  401d44:	004005bd 	.word	0x004005bd
  401d48:	2040c288 	.word	0x2040c288
  401d4c:	00400571 	.word	0x00400571

00401d50 <xTaskPriorityDisinherit>:
  401d50:	2800      	cmp	r0, #0
  401d52:	d04d      	beq.n	401df0 <xTaskPriorityDisinherit+0xa0>
  401d54:	b538      	push	{r3, r4, r5, lr}
  401d56:	4604      	mov	r4, r0
  401d58:	4a27      	ldr	r2, [pc, #156]	; (401df8 <xTaskPriorityDisinherit+0xa8>)
  401d5a:	6812      	ldr	r2, [r2, #0]
  401d5c:	4290      	cmp	r0, r2
  401d5e:	d00a      	beq.n	401d76 <xTaskPriorityDisinherit+0x26>
  401d60:	f04f 0380 	mov.w	r3, #128	; 0x80
  401d64:	b672      	cpsid	i
  401d66:	f383 8811 	msr	BASEPRI, r3
  401d6a:	f3bf 8f6f 	isb	sy
  401d6e:	f3bf 8f4f 	dsb	sy
  401d72:	b662      	cpsie	i
  401d74:	e7fe      	b.n	401d74 <xTaskPriorityDisinherit+0x24>
  401d76:	6cc2      	ldr	r2, [r0, #76]	; 0x4c
  401d78:	b952      	cbnz	r2, 401d90 <xTaskPriorityDisinherit+0x40>
  401d7a:	f04f 0380 	mov.w	r3, #128	; 0x80
  401d7e:	b672      	cpsid	i
  401d80:	f383 8811 	msr	BASEPRI, r3
  401d84:	f3bf 8f6f 	isb	sy
  401d88:	f3bf 8f4f 	dsb	sy
  401d8c:	b662      	cpsie	i
  401d8e:	e7fe      	b.n	401d8e <xTaskPriorityDisinherit+0x3e>
  401d90:	3a01      	subs	r2, #1
  401d92:	64c2      	str	r2, [r0, #76]	; 0x4c
  401d94:	6ac0      	ldr	r0, [r0, #44]	; 0x2c
  401d96:	6ca1      	ldr	r1, [r4, #72]	; 0x48
  401d98:	4288      	cmp	r0, r1
  401d9a:	d02b      	beq.n	401df4 <xTaskPriorityDisinherit+0xa4>
  401d9c:	bb52      	cbnz	r2, 401df4 <xTaskPriorityDisinherit+0xa4>
  401d9e:	1d25      	adds	r5, r4, #4
  401da0:	4628      	mov	r0, r5
  401da2:	4b16      	ldr	r3, [pc, #88]	; (401dfc <xTaskPriorityDisinherit+0xac>)
  401da4:	4798      	blx	r3
  401da6:	b968      	cbnz	r0, 401dc4 <xTaskPriorityDisinherit+0x74>
  401da8:	6ae1      	ldr	r1, [r4, #44]	; 0x2c
  401daa:	eb01 0381 	add.w	r3, r1, r1, lsl #2
  401dae:	009b      	lsls	r3, r3, #2
  401db0:	4a13      	ldr	r2, [pc, #76]	; (401e00 <xTaskPriorityDisinherit+0xb0>)
  401db2:	58d3      	ldr	r3, [r2, r3]
  401db4:	b933      	cbnz	r3, 401dc4 <xTaskPriorityDisinherit+0x74>
  401db6:	4813      	ldr	r0, [pc, #76]	; (401e04 <xTaskPriorityDisinherit+0xb4>)
  401db8:	6803      	ldr	r3, [r0, #0]
  401dba:	2201      	movs	r2, #1
  401dbc:	408a      	lsls	r2, r1
  401dbe:	ea23 0302 	bic.w	r3, r3, r2
  401dc2:	6003      	str	r3, [r0, #0]
  401dc4:	6ca0      	ldr	r0, [r4, #72]	; 0x48
  401dc6:	62e0      	str	r0, [r4, #44]	; 0x2c
  401dc8:	f1c0 0305 	rsb	r3, r0, #5
  401dcc:	61a3      	str	r3, [r4, #24]
  401dce:	4a0d      	ldr	r2, [pc, #52]	; (401e04 <xTaskPriorityDisinherit+0xb4>)
  401dd0:	6811      	ldr	r1, [r2, #0]
  401dd2:	2401      	movs	r4, #1
  401dd4:	fa04 f300 	lsl.w	r3, r4, r0
  401dd8:	430b      	orrs	r3, r1
  401dda:	6013      	str	r3, [r2, #0]
  401ddc:	eb00 0080 	add.w	r0, r0, r0, lsl #2
  401de0:	4629      	mov	r1, r5
  401de2:	4b07      	ldr	r3, [pc, #28]	; (401e00 <xTaskPriorityDisinherit+0xb0>)
  401de4:	eb03 0080 	add.w	r0, r3, r0, lsl #2
  401de8:	4b07      	ldr	r3, [pc, #28]	; (401e08 <xTaskPriorityDisinherit+0xb8>)
  401dea:	4798      	blx	r3
  401dec:	4620      	mov	r0, r4
  401dee:	bd38      	pop	{r3, r4, r5, pc}
  401df0:	2000      	movs	r0, #0
  401df2:	4770      	bx	lr
  401df4:	2000      	movs	r0, #0
  401df6:	bd38      	pop	{r3, r4, r5, pc}
  401df8:	2040c204 	.word	0x2040c204
  401dfc:	004005bd 	.word	0x004005bd
  401e00:	2040c210 	.word	0x2040c210
  401e04:	2040c288 	.word	0x2040c288
  401e08:	00400571 	.word	0x00400571

00401e0c <vTaskPriorityDisinheritAfterTimeout>:
  401e0c:	2800      	cmp	r0, #0
  401e0e:	d058      	beq.n	401ec2 <vTaskPriorityDisinheritAfterTimeout+0xb6>
  401e10:	b538      	push	{r3, r4, r5, lr}
  401e12:	4604      	mov	r4, r0
  401e14:	6cc0      	ldr	r0, [r0, #76]	; 0x4c
  401e16:	b950      	cbnz	r0, 401e2e <vTaskPriorityDisinheritAfterTimeout+0x22>
  401e18:	f04f 0380 	mov.w	r3, #128	; 0x80
  401e1c:	b672      	cpsid	i
  401e1e:	f383 8811 	msr	BASEPRI, r3
  401e22:	f3bf 8f6f 	isb	sy
  401e26:	f3bf 8f4f 	dsb	sy
  401e2a:	b662      	cpsie	i
  401e2c:	e7fe      	b.n	401e2c <vTaskPriorityDisinheritAfterTimeout+0x20>
  401e2e:	6ca2      	ldr	r2, [r4, #72]	; 0x48
  401e30:	428a      	cmp	r2, r1
  401e32:	bf38      	it	cc
  401e34:	460a      	movcc	r2, r1
  401e36:	6ae1      	ldr	r1, [r4, #44]	; 0x2c
  401e38:	2801      	cmp	r0, #1
  401e3a:	d141      	bne.n	401ec0 <vTaskPriorityDisinheritAfterTimeout+0xb4>
  401e3c:	4291      	cmp	r1, r2
  401e3e:	d03f      	beq.n	401ec0 <vTaskPriorityDisinheritAfterTimeout+0xb4>
  401e40:	4820      	ldr	r0, [pc, #128]	; (401ec4 <vTaskPriorityDisinheritAfterTimeout+0xb8>)
  401e42:	6800      	ldr	r0, [r0, #0]
  401e44:	4284      	cmp	r4, r0
  401e46:	d10a      	bne.n	401e5e <vTaskPriorityDisinheritAfterTimeout+0x52>
  401e48:	f04f 0380 	mov.w	r3, #128	; 0x80
  401e4c:	b672      	cpsid	i
  401e4e:	f383 8811 	msr	BASEPRI, r3
  401e52:	f3bf 8f6f 	isb	sy
  401e56:	f3bf 8f4f 	dsb	sy
  401e5a:	b662      	cpsie	i
  401e5c:	e7fe      	b.n	401e5c <vTaskPriorityDisinheritAfterTimeout+0x50>
  401e5e:	62e2      	str	r2, [r4, #44]	; 0x2c
  401e60:	69a0      	ldr	r0, [r4, #24]
  401e62:	2800      	cmp	r0, #0
  401e64:	db02      	blt.n	401e6c <vTaskPriorityDisinheritAfterTimeout+0x60>
  401e66:	f1c2 0205 	rsb	r2, r2, #5
  401e6a:	61a2      	str	r2, [r4, #24]
  401e6c:	eb01 0181 	add.w	r1, r1, r1, lsl #2
  401e70:	4a15      	ldr	r2, [pc, #84]	; (401ec8 <vTaskPriorityDisinheritAfterTimeout+0xbc>)
  401e72:	eb02 0181 	add.w	r1, r2, r1, lsl #2
  401e76:	6962      	ldr	r2, [r4, #20]
  401e78:	428a      	cmp	r2, r1
  401e7a:	d121      	bne.n	401ec0 <vTaskPriorityDisinheritAfterTimeout+0xb4>
  401e7c:	1d25      	adds	r5, r4, #4
  401e7e:	4628      	mov	r0, r5
  401e80:	4b12      	ldr	r3, [pc, #72]	; (401ecc <vTaskPriorityDisinheritAfterTimeout+0xc0>)
  401e82:	4798      	blx	r3
  401e84:	b968      	cbnz	r0, 401ea2 <vTaskPriorityDisinheritAfterTimeout+0x96>
  401e86:	6ae1      	ldr	r1, [r4, #44]	; 0x2c
  401e88:	eb01 0381 	add.w	r3, r1, r1, lsl #2
  401e8c:	009b      	lsls	r3, r3, #2
  401e8e:	4a0e      	ldr	r2, [pc, #56]	; (401ec8 <vTaskPriorityDisinheritAfterTimeout+0xbc>)
  401e90:	58d3      	ldr	r3, [r2, r3]
  401e92:	b933      	cbnz	r3, 401ea2 <vTaskPriorityDisinheritAfterTimeout+0x96>
  401e94:	480e      	ldr	r0, [pc, #56]	; (401ed0 <vTaskPriorityDisinheritAfterTimeout+0xc4>)
  401e96:	6803      	ldr	r3, [r0, #0]
  401e98:	2201      	movs	r2, #1
  401e9a:	408a      	lsls	r2, r1
  401e9c:	ea23 0302 	bic.w	r3, r3, r2
  401ea0:	6003      	str	r3, [r0, #0]
  401ea2:	6ae0      	ldr	r0, [r4, #44]	; 0x2c
  401ea4:	4a0a      	ldr	r2, [pc, #40]	; (401ed0 <vTaskPriorityDisinheritAfterTimeout+0xc4>)
  401ea6:	6811      	ldr	r1, [r2, #0]
  401ea8:	2301      	movs	r3, #1
  401eaa:	4083      	lsls	r3, r0
  401eac:	430b      	orrs	r3, r1
  401eae:	6013      	str	r3, [r2, #0]
  401eb0:	eb00 0080 	add.w	r0, r0, r0, lsl #2
  401eb4:	4629      	mov	r1, r5
  401eb6:	4b04      	ldr	r3, [pc, #16]	; (401ec8 <vTaskPriorityDisinheritAfterTimeout+0xbc>)
  401eb8:	eb03 0080 	add.w	r0, r3, r0, lsl #2
  401ebc:	4b05      	ldr	r3, [pc, #20]	; (401ed4 <vTaskPriorityDisinheritAfterTimeout+0xc8>)
  401ebe:	4798      	blx	r3
  401ec0:	bd38      	pop	{r3, r4, r5, pc}
  401ec2:	4770      	bx	lr
  401ec4:	2040c204 	.word	0x2040c204
  401ec8:	2040c210 	.word	0x2040c210
  401ecc:	004005bd 	.word	0x004005bd
  401ed0:	2040c288 	.word	0x2040c288
  401ed4:	00400571 	.word	0x00400571

00401ed8 <pvTaskIncrementMutexHeldCount>:
  401ed8:	4b05      	ldr	r3, [pc, #20]	; (401ef0 <pvTaskIncrementMutexHeldCount+0x18>)
  401eda:	681b      	ldr	r3, [r3, #0]
  401edc:	b123      	cbz	r3, 401ee8 <pvTaskIncrementMutexHeldCount+0x10>
  401ede:	4b04      	ldr	r3, [pc, #16]	; (401ef0 <pvTaskIncrementMutexHeldCount+0x18>)
  401ee0:	681a      	ldr	r2, [r3, #0]
  401ee2:	6cd3      	ldr	r3, [r2, #76]	; 0x4c
  401ee4:	3301      	adds	r3, #1
  401ee6:	64d3      	str	r3, [r2, #76]	; 0x4c
  401ee8:	4b01      	ldr	r3, [pc, #4]	; (401ef0 <pvTaskIncrementMutexHeldCount+0x18>)
  401eea:	6818      	ldr	r0, [r3, #0]
  401eec:	4770      	bx	lr
  401eee:	bf00      	nop
  401ef0:	2040c204 	.word	0x2040c204

00401ef4 <prvInsertTimerInActiveList>:
  401ef4:	b508      	push	{r3, lr}
  401ef6:	6041      	str	r1, [r0, #4]
  401ef8:	6100      	str	r0, [r0, #16]
  401efa:	4291      	cmp	r1, r2
  401efc:	d80c      	bhi.n	401f18 <prvInsertTimerInActiveList+0x24>
  401efe:	1ad2      	subs	r2, r2, r3
  401f00:	6983      	ldr	r3, [r0, #24]
  401f02:	429a      	cmp	r2, r3
  401f04:	d301      	bcc.n	401f0a <prvInsertTimerInActiveList+0x16>
  401f06:	2001      	movs	r0, #1
  401f08:	bd08      	pop	{r3, pc}
  401f0a:	1d01      	adds	r1, r0, #4
  401f0c:	4b09      	ldr	r3, [pc, #36]	; (401f34 <prvInsertTimerInActiveList+0x40>)
  401f0e:	6818      	ldr	r0, [r3, #0]
  401f10:	4b09      	ldr	r3, [pc, #36]	; (401f38 <prvInsertTimerInActiveList+0x44>)
  401f12:	4798      	blx	r3
  401f14:	2000      	movs	r0, #0
  401f16:	bd08      	pop	{r3, pc}
  401f18:	429a      	cmp	r2, r3
  401f1a:	d203      	bcs.n	401f24 <prvInsertTimerInActiveList+0x30>
  401f1c:	4299      	cmp	r1, r3
  401f1e:	d301      	bcc.n	401f24 <prvInsertTimerInActiveList+0x30>
  401f20:	2001      	movs	r0, #1
  401f22:	bd08      	pop	{r3, pc}
  401f24:	1d01      	adds	r1, r0, #4
  401f26:	4b05      	ldr	r3, [pc, #20]	; (401f3c <prvInsertTimerInActiveList+0x48>)
  401f28:	6818      	ldr	r0, [r3, #0]
  401f2a:	4b03      	ldr	r3, [pc, #12]	; (401f38 <prvInsertTimerInActiveList+0x44>)
  401f2c:	4798      	blx	r3
  401f2e:	2000      	movs	r0, #0
  401f30:	bd08      	pop	{r3, pc}
  401f32:	bf00      	nop
  401f34:	2040c30c 	.word	0x2040c30c
  401f38:	00400589 	.word	0x00400589
  401f3c:	2040c308 	.word	0x2040c308

00401f40 <prvCheckForValidListAndQueue>:
  401f40:	b570      	push	{r4, r5, r6, lr}
  401f42:	4b10      	ldr	r3, [pc, #64]	; (401f84 <prvCheckForValidListAndQueue+0x44>)
  401f44:	4798      	blx	r3
  401f46:	4b10      	ldr	r3, [pc, #64]	; (401f88 <prvCheckForValidListAndQueue+0x48>)
  401f48:	681b      	ldr	r3, [r3, #0]
  401f4a:	b113      	cbz	r3, 401f52 <prvCheckForValidListAndQueue+0x12>
  401f4c:	4b0f      	ldr	r3, [pc, #60]	; (401f8c <prvCheckForValidListAndQueue+0x4c>)
  401f4e:	4798      	blx	r3
  401f50:	bd70      	pop	{r4, r5, r6, pc}
  401f52:	4d0f      	ldr	r5, [pc, #60]	; (401f90 <prvCheckForValidListAndQueue+0x50>)
  401f54:	4628      	mov	r0, r5
  401f56:	4e0f      	ldr	r6, [pc, #60]	; (401f94 <prvCheckForValidListAndQueue+0x54>)
  401f58:	47b0      	blx	r6
  401f5a:	4c0f      	ldr	r4, [pc, #60]	; (401f98 <prvCheckForValidListAndQueue+0x58>)
  401f5c:	4620      	mov	r0, r4
  401f5e:	47b0      	blx	r6
  401f60:	4b0e      	ldr	r3, [pc, #56]	; (401f9c <prvCheckForValidListAndQueue+0x5c>)
  401f62:	601d      	str	r5, [r3, #0]
  401f64:	4b0e      	ldr	r3, [pc, #56]	; (401fa0 <prvCheckForValidListAndQueue+0x60>)
  401f66:	601c      	str	r4, [r3, #0]
  401f68:	2200      	movs	r2, #0
  401f6a:	2110      	movs	r1, #16
  401f6c:	2005      	movs	r0, #5
  401f6e:	4b0d      	ldr	r3, [pc, #52]	; (401fa4 <prvCheckForValidListAndQueue+0x64>)
  401f70:	4798      	blx	r3
  401f72:	4b05      	ldr	r3, [pc, #20]	; (401f88 <prvCheckForValidListAndQueue+0x48>)
  401f74:	6018      	str	r0, [r3, #0]
  401f76:	2800      	cmp	r0, #0
  401f78:	d0e8      	beq.n	401f4c <prvCheckForValidListAndQueue+0xc>
  401f7a:	490b      	ldr	r1, [pc, #44]	; (401fa8 <prvCheckForValidListAndQueue+0x68>)
  401f7c:	4b0b      	ldr	r3, [pc, #44]	; (401fac <prvCheckForValidListAndQueue+0x6c>)
  401f7e:	4798      	blx	r3
  401f80:	e7e4      	b.n	401f4c <prvCheckForValidListAndQueue+0xc>
  401f82:	bf00      	nop
  401f84:	00400695 	.word	0x00400695
  401f88:	2040c33c 	.word	0x2040c33c
  401f8c:	004006e1 	.word	0x004006e1
  401f90:	2040c310 	.word	0x2040c310
  401f94:	00400555 	.word	0x00400555
  401f98:	2040c324 	.word	0x2040c324
  401f9c:	2040c308 	.word	0x2040c308
  401fa0:	2040c30c 	.word	0x2040c30c
  401fa4:	00400b9d 	.word	0x00400b9d
  401fa8:	00409fcc 	.word	0x00409fcc
  401fac:	00401289 	.word	0x00401289

00401fb0 <xTimerCreateTimerTask>:
  401fb0:	b510      	push	{r4, lr}
  401fb2:	b082      	sub	sp, #8
  401fb4:	4b0e      	ldr	r3, [pc, #56]	; (401ff0 <xTimerCreateTimerTask+0x40>)
  401fb6:	4798      	blx	r3
  401fb8:	4b0e      	ldr	r3, [pc, #56]	; (401ff4 <xTimerCreateTimerTask+0x44>)
  401fba:	681b      	ldr	r3, [r3, #0]
  401fbc:	b16b      	cbz	r3, 401fda <xTimerCreateTimerTask+0x2a>
  401fbe:	4b0e      	ldr	r3, [pc, #56]	; (401ff8 <xTimerCreateTimerTask+0x48>)
  401fc0:	9301      	str	r3, [sp, #4]
  401fc2:	2304      	movs	r3, #4
  401fc4:	9300      	str	r3, [sp, #0]
  401fc6:	2300      	movs	r3, #0
  401fc8:	f44f 7282 	mov.w	r2, #260	; 0x104
  401fcc:	490b      	ldr	r1, [pc, #44]	; (401ffc <xTimerCreateTimerTask+0x4c>)
  401fce:	480c      	ldr	r0, [pc, #48]	; (402000 <xTimerCreateTimerTask+0x50>)
  401fd0:	4c0c      	ldr	r4, [pc, #48]	; (402004 <xTimerCreateTimerTask+0x54>)
  401fd2:	47a0      	blx	r4
  401fd4:	b108      	cbz	r0, 401fda <xTimerCreateTimerTask+0x2a>
  401fd6:	b002      	add	sp, #8
  401fd8:	bd10      	pop	{r4, pc}
  401fda:	f04f 0380 	mov.w	r3, #128	; 0x80
  401fde:	b672      	cpsid	i
  401fe0:	f383 8811 	msr	BASEPRI, r3
  401fe4:	f3bf 8f6f 	isb	sy
  401fe8:	f3bf 8f4f 	dsb	sy
  401fec:	b662      	cpsie	i
  401fee:	e7fe      	b.n	401fee <xTimerCreateTimerTask+0x3e>
  401ff0:	00401f41 	.word	0x00401f41
  401ff4:	2040c33c 	.word	0x2040c33c
  401ff8:	2040c340 	.word	0x2040c340
  401ffc:	00409fd4 	.word	0x00409fd4
  402000:	00402131 	.word	0x00402131
  402004:	0040146d 	.word	0x0040146d

00402008 <xTimerGenericCommand>:
  402008:	b1d8      	cbz	r0, 402042 <xTimerGenericCommand+0x3a>
  40200a:	b530      	push	{r4, r5, lr}
  40200c:	b085      	sub	sp, #20
  40200e:	4615      	mov	r5, r2
  402010:	4604      	mov	r4, r0
  402012:	4a15      	ldr	r2, [pc, #84]	; (402068 <xTimerGenericCommand+0x60>)
  402014:	6810      	ldr	r0, [r2, #0]
  402016:	b320      	cbz	r0, 402062 <xTimerGenericCommand+0x5a>
  402018:	461a      	mov	r2, r3
  40201a:	9100      	str	r1, [sp, #0]
  40201c:	9501      	str	r5, [sp, #4]
  40201e:	9402      	str	r4, [sp, #8]
  402020:	2905      	cmp	r1, #5
  402022:	dc19      	bgt.n	402058 <xTimerGenericCommand+0x50>
  402024:	4b11      	ldr	r3, [pc, #68]	; (40206c <xTimerGenericCommand+0x64>)
  402026:	4798      	blx	r3
  402028:	2802      	cmp	r0, #2
  40202a:	f04f 0300 	mov.w	r3, #0
  40202e:	bf0c      	ite	eq
  402030:	9a08      	ldreq	r2, [sp, #32]
  402032:	461a      	movne	r2, r3
  402034:	4669      	mov	r1, sp
  402036:	480c      	ldr	r0, [pc, #48]	; (402068 <xTimerGenericCommand+0x60>)
  402038:	6800      	ldr	r0, [r0, #0]
  40203a:	4c0d      	ldr	r4, [pc, #52]	; (402070 <xTimerGenericCommand+0x68>)
  40203c:	47a0      	blx	r4
  40203e:	b005      	add	sp, #20
  402040:	bd30      	pop	{r4, r5, pc}
  402042:	f04f 0380 	mov.w	r3, #128	; 0x80
  402046:	b672      	cpsid	i
  402048:	f383 8811 	msr	BASEPRI, r3
  40204c:	f3bf 8f6f 	isb	sy
  402050:	f3bf 8f4f 	dsb	sy
  402054:	b662      	cpsie	i
  402056:	e7fe      	b.n	402056 <xTimerGenericCommand+0x4e>
  402058:	2300      	movs	r3, #0
  40205a:	4669      	mov	r1, sp
  40205c:	4c05      	ldr	r4, [pc, #20]	; (402074 <xTimerGenericCommand+0x6c>)
  40205e:	47a0      	blx	r4
  402060:	e7ed      	b.n	40203e <xTimerGenericCommand+0x36>
  402062:	2000      	movs	r0, #0
  402064:	e7eb      	b.n	40203e <xTimerGenericCommand+0x36>
  402066:	bf00      	nop
  402068:	2040c33c 	.word	0x2040c33c
  40206c:	00401c71 	.word	0x00401c71
  402070:	00400bf9 	.word	0x00400bf9
  402074:	00400de9 	.word	0x00400de9

00402078 <prvSampleTimeNow>:
  402078:	e92d 47f0 	stmdb	sp!, {r4, r5, r6, r7, r8, r9, sl, lr}
  40207c:	b082      	sub	sp, #8
  40207e:	4680      	mov	r8, r0
  402080:	4b24      	ldr	r3, [pc, #144]	; (402114 <prvSampleTimeNow+0x9c>)
  402082:	4798      	blx	r3
  402084:	4607      	mov	r7, r0
  402086:	4b24      	ldr	r3, [pc, #144]	; (402118 <prvSampleTimeNow+0xa0>)
  402088:	681b      	ldr	r3, [r3, #0]
  40208a:	4298      	cmp	r0, r3
  40208c:	d31b      	bcc.n	4020c6 <prvSampleTimeNow+0x4e>
  40208e:	2300      	movs	r3, #0
  402090:	f8c8 3000 	str.w	r3, [r8]
  402094:	4b20      	ldr	r3, [pc, #128]	; (402118 <prvSampleTimeNow+0xa0>)
  402096:	601f      	str	r7, [r3, #0]
  402098:	4638      	mov	r0, r7
  40209a:	b002      	add	sp, #8
  40209c:	e8bd 87f0 	ldmia.w	sp!, {r4, r5, r6, r7, r8, r9, sl, pc}
  4020a0:	2100      	movs	r1, #0
  4020a2:	9100      	str	r1, [sp, #0]
  4020a4:	460b      	mov	r3, r1
  4020a6:	4652      	mov	r2, sl
  4020a8:	4620      	mov	r0, r4
  4020aa:	4c1c      	ldr	r4, [pc, #112]	; (40211c <prvSampleTimeNow+0xa4>)
  4020ac:	47a0      	blx	r4
  4020ae:	b960      	cbnz	r0, 4020ca <prvSampleTimeNow+0x52>
  4020b0:	f04f 0380 	mov.w	r3, #128	; 0x80
  4020b4:	b672      	cpsid	i
  4020b6:	f383 8811 	msr	BASEPRI, r3
  4020ba:	f3bf 8f6f 	isb	sy
  4020be:	f3bf 8f4f 	dsb	sy
  4020c2:	b662      	cpsie	i
  4020c4:	e7fe      	b.n	4020c4 <prvSampleTimeNow+0x4c>
  4020c6:	4d16      	ldr	r5, [pc, #88]	; (402120 <prvSampleTimeNow+0xa8>)
  4020c8:	4e16      	ldr	r6, [pc, #88]	; (402124 <prvSampleTimeNow+0xac>)
  4020ca:	682b      	ldr	r3, [r5, #0]
  4020cc:	681a      	ldr	r2, [r3, #0]
  4020ce:	b1c2      	cbz	r2, 402102 <prvSampleTimeNow+0x8a>
  4020d0:	68db      	ldr	r3, [r3, #12]
  4020d2:	f8d3 a000 	ldr.w	sl, [r3]
  4020d6:	68dc      	ldr	r4, [r3, #12]
  4020d8:	f104 0904 	add.w	r9, r4, #4
  4020dc:	4648      	mov	r0, r9
  4020de:	47b0      	blx	r6
  4020e0:	6a63      	ldr	r3, [r4, #36]	; 0x24
  4020e2:	4620      	mov	r0, r4
  4020e4:	4798      	blx	r3
  4020e6:	69e3      	ldr	r3, [r4, #28]
  4020e8:	2b01      	cmp	r3, #1
  4020ea:	d1ee      	bne.n	4020ca <prvSampleTimeNow+0x52>
  4020ec:	69a3      	ldr	r3, [r4, #24]
  4020ee:	4453      	add	r3, sl
  4020f0:	459a      	cmp	sl, r3
  4020f2:	d2d5      	bcs.n	4020a0 <prvSampleTimeNow+0x28>
  4020f4:	6063      	str	r3, [r4, #4]
  4020f6:	6124      	str	r4, [r4, #16]
  4020f8:	4649      	mov	r1, r9
  4020fa:	6828      	ldr	r0, [r5, #0]
  4020fc:	4b0a      	ldr	r3, [pc, #40]	; (402128 <prvSampleTimeNow+0xb0>)
  4020fe:	4798      	blx	r3
  402100:	e7e3      	b.n	4020ca <prvSampleTimeNow+0x52>
  402102:	4a0a      	ldr	r2, [pc, #40]	; (40212c <prvSampleTimeNow+0xb4>)
  402104:	6810      	ldr	r0, [r2, #0]
  402106:	4906      	ldr	r1, [pc, #24]	; (402120 <prvSampleTimeNow+0xa8>)
  402108:	6008      	str	r0, [r1, #0]
  40210a:	6013      	str	r3, [r2, #0]
  40210c:	2301      	movs	r3, #1
  40210e:	f8c8 3000 	str.w	r3, [r8]
  402112:	e7bf      	b.n	402094 <prvSampleTimeNow+0x1c>
  402114:	00401705 	.word	0x00401705
  402118:	2040c338 	.word	0x2040c338
  40211c:	00402009 	.word	0x00402009
  402120:	2040c308 	.word	0x2040c308
  402124:	004005bd 	.word	0x004005bd
  402128:	00400589 	.word	0x00400589
  40212c:	2040c30c 	.word	0x2040c30c

00402130 <prvTimerTask>:
  402130:	e92d 47f0 	stmdb	sp!, {r4, r5, r6, r7, r8, r9, sl, lr}
  402134:	b088      	sub	sp, #32
  402136:	4e75      	ldr	r6, [pc, #468]	; (40230c <prvTimerTask+0x1dc>)
  402138:	4f75      	ldr	r7, [pc, #468]	; (402310 <prvTimerTask+0x1e0>)
  40213a:	f8df 91fc 	ldr.w	r9, [pc, #508]	; 402338 <prvTimerTask+0x208>
  40213e:	f8df 81fc 	ldr.w	r8, [pc, #508]	; 40233c <prvTimerTask+0x20c>
  402142:	6833      	ldr	r3, [r6, #0]
  402144:	681a      	ldr	r2, [r3, #0]
  402146:	2a00      	cmp	r2, #0
  402148:	f000 80ce 	beq.w	4022e8 <prvTimerTask+0x1b8>
  40214c:	68db      	ldr	r3, [r3, #12]
  40214e:	681c      	ldr	r4, [r3, #0]
  402150:	47b8      	blx	r7
  402152:	a804      	add	r0, sp, #16
  402154:	4b6f      	ldr	r3, [pc, #444]	; (402314 <prvTimerTask+0x1e4>)
  402156:	4798      	blx	r3
  402158:	4605      	mov	r5, r0
  40215a:	9b04      	ldr	r3, [sp, #16]
  40215c:	2b00      	cmp	r3, #0
  40215e:	d144      	bne.n	4021ea <prvTimerTask+0xba>
  402160:	42a0      	cmp	r0, r4
  402162:	d212      	bcs.n	40218a <prvTimerTask+0x5a>
  402164:	2200      	movs	r2, #0
  402166:	1b61      	subs	r1, r4, r5
  402168:	4b6b      	ldr	r3, [pc, #428]	; (402318 <prvTimerTask+0x1e8>)
  40216a:	6818      	ldr	r0, [r3, #0]
  40216c:	4b6b      	ldr	r3, [pc, #428]	; (40231c <prvTimerTask+0x1ec>)
  40216e:	4798      	blx	r3
  402170:	4b6b      	ldr	r3, [pc, #428]	; (402320 <prvTimerTask+0x1f0>)
  402172:	4798      	blx	r3
  402174:	2800      	cmp	r0, #0
  402176:	d13a      	bne.n	4021ee <prvTimerTask+0xbe>
  402178:	f04f 5380 	mov.w	r3, #268435456	; 0x10000000
  40217c:	f8c9 3000 	str.w	r3, [r9]
  402180:	f3bf 8f4f 	dsb	sy
  402184:	f3bf 8f6f 	isb	sy
  402188:	e031      	b.n	4021ee <prvTimerTask+0xbe>
  40218a:	4b65      	ldr	r3, [pc, #404]	; (402320 <prvTimerTask+0x1f0>)
  40218c:	4798      	blx	r3
  40218e:	6833      	ldr	r3, [r6, #0]
  402190:	68db      	ldr	r3, [r3, #12]
  402192:	f8d3 a00c 	ldr.w	sl, [r3, #12]
  402196:	f10a 0004 	add.w	r0, sl, #4
  40219a:	47c0      	blx	r8
  40219c:	f8da 301c 	ldr.w	r3, [sl, #28]
  4021a0:	2b01      	cmp	r3, #1
  4021a2:	d004      	beq.n	4021ae <prvTimerTask+0x7e>
  4021a4:	f8da 3024 	ldr.w	r3, [sl, #36]	; 0x24
  4021a8:	4650      	mov	r0, sl
  4021aa:	4798      	blx	r3
  4021ac:	e01f      	b.n	4021ee <prvTimerTask+0xbe>
  4021ae:	f8da 1018 	ldr.w	r1, [sl, #24]
  4021b2:	4623      	mov	r3, r4
  4021b4:	462a      	mov	r2, r5
  4021b6:	4421      	add	r1, r4
  4021b8:	4650      	mov	r0, sl
  4021ba:	4d5a      	ldr	r5, [pc, #360]	; (402324 <prvTimerTask+0x1f4>)
  4021bc:	47a8      	blx	r5
  4021be:	2800      	cmp	r0, #0
  4021c0:	d0f0      	beq.n	4021a4 <prvTimerTask+0x74>
  4021c2:	2100      	movs	r1, #0
  4021c4:	9100      	str	r1, [sp, #0]
  4021c6:	460b      	mov	r3, r1
  4021c8:	4622      	mov	r2, r4
  4021ca:	4650      	mov	r0, sl
  4021cc:	4c56      	ldr	r4, [pc, #344]	; (402328 <prvTimerTask+0x1f8>)
  4021ce:	47a0      	blx	r4
  4021d0:	2800      	cmp	r0, #0
  4021d2:	d1e7      	bne.n	4021a4 <prvTimerTask+0x74>
  4021d4:	f04f 0380 	mov.w	r3, #128	; 0x80
  4021d8:	b672      	cpsid	i
  4021da:	f383 8811 	msr	BASEPRI, r3
  4021de:	f3bf 8f6f 	isb	sy
  4021e2:	f3bf 8f4f 	dsb	sy
  4021e6:	b662      	cpsie	i
  4021e8:	e7fe      	b.n	4021e8 <prvTimerTask+0xb8>
  4021ea:	4b4d      	ldr	r3, [pc, #308]	; (402320 <prvTimerTask+0x1f0>)
  4021ec:	4798      	blx	r3
  4021ee:	4d4a      	ldr	r5, [pc, #296]	; (402318 <prvTimerTask+0x1e8>)
  4021f0:	4c4e      	ldr	r4, [pc, #312]	; (40232c <prvTimerTask+0x1fc>)
  4021f2:	e006      	b.n	402202 <prvTimerTask+0xd2>
  4021f4:	9907      	ldr	r1, [sp, #28]
  4021f6:	9806      	ldr	r0, [sp, #24]
  4021f8:	9b05      	ldr	r3, [sp, #20]
  4021fa:	4798      	blx	r3
  4021fc:	9b04      	ldr	r3, [sp, #16]
  4021fe:	2b00      	cmp	r3, #0
  402200:	da08      	bge.n	402214 <prvTimerTask+0xe4>
  402202:	2200      	movs	r2, #0
  402204:	a904      	add	r1, sp, #16
  402206:	6828      	ldr	r0, [r5, #0]
  402208:	47a0      	blx	r4
  40220a:	2800      	cmp	r0, #0
  40220c:	d099      	beq.n	402142 <prvTimerTask+0x12>
  40220e:	9b04      	ldr	r3, [sp, #16]
  402210:	2b00      	cmp	r3, #0
  402212:	dbef      	blt.n	4021f4 <prvTimerTask+0xc4>
  402214:	f8dd a018 	ldr.w	sl, [sp, #24]
  402218:	f8da 3014 	ldr.w	r3, [sl, #20]
  40221c:	b113      	cbz	r3, 402224 <prvTimerTask+0xf4>
  40221e:	f10a 0004 	add.w	r0, sl, #4
  402222:	47c0      	blx	r8
  402224:	a803      	add	r0, sp, #12
  402226:	4b3b      	ldr	r3, [pc, #236]	; (402314 <prvTimerTask+0x1e4>)
  402228:	4798      	blx	r3
  40222a:	9b04      	ldr	r3, [sp, #16]
  40222c:	2b09      	cmp	r3, #9
  40222e:	d8e8      	bhi.n	402202 <prvTimerTask+0xd2>
  402230:	a201      	add	r2, pc, #4	; (adr r2, 402238 <prvTimerTask+0x108>)
  402232:	f852 f023 	ldr.w	pc, [r2, r3, lsl #2]
  402236:	bf00      	nop
  402238:	00402261 	.word	0x00402261
  40223c:	00402261 	.word	0x00402261
  402240:	00402261 	.word	0x00402261
  402244:	00402203 	.word	0x00402203
  402248:	004022b5 	.word	0x004022b5
  40224c:	004022e1 	.word	0x004022e1
  402250:	00402261 	.word	0x00402261
  402254:	00402261 	.word	0x00402261
  402258:	00402203 	.word	0x00402203
  40225c:	004022b5 	.word	0x004022b5
  402260:	9c05      	ldr	r4, [sp, #20]
  402262:	f8da 1018 	ldr.w	r1, [sl, #24]
  402266:	4623      	mov	r3, r4
  402268:	4602      	mov	r2, r0
  40226a:	4421      	add	r1, r4
  40226c:	4650      	mov	r0, sl
  40226e:	4c2d      	ldr	r4, [pc, #180]	; (402324 <prvTimerTask+0x1f4>)
  402270:	47a0      	blx	r4
  402272:	2800      	cmp	r0, #0
  402274:	d0bc      	beq.n	4021f0 <prvTimerTask+0xc0>
  402276:	f8da 3024 	ldr.w	r3, [sl, #36]	; 0x24
  40227a:	4650      	mov	r0, sl
  40227c:	4798      	blx	r3
  40227e:	f8da 301c 	ldr.w	r3, [sl, #28]
  402282:	2b01      	cmp	r3, #1
  402284:	d1b4      	bne.n	4021f0 <prvTimerTask+0xc0>
  402286:	f8da 2018 	ldr.w	r2, [sl, #24]
  40228a:	2100      	movs	r1, #0
  40228c:	9100      	str	r1, [sp, #0]
  40228e:	460b      	mov	r3, r1
  402290:	9805      	ldr	r0, [sp, #20]
  402292:	4402      	add	r2, r0
  402294:	4650      	mov	r0, sl
  402296:	4c24      	ldr	r4, [pc, #144]	; (402328 <prvTimerTask+0x1f8>)
  402298:	47a0      	blx	r4
  40229a:	2800      	cmp	r0, #0
  40229c:	d1a8      	bne.n	4021f0 <prvTimerTask+0xc0>
  40229e:	f04f 0380 	mov.w	r3, #128	; 0x80
  4022a2:	b672      	cpsid	i
  4022a4:	f383 8811 	msr	BASEPRI, r3
  4022a8:	f3bf 8f6f 	isb	sy
  4022ac:	f3bf 8f4f 	dsb	sy
  4022b0:	b662      	cpsie	i
  4022b2:	e7fe      	b.n	4022b2 <prvTimerTask+0x182>
  4022b4:	9905      	ldr	r1, [sp, #20]
  4022b6:	f8ca 1018 	str.w	r1, [sl, #24]
  4022ba:	b131      	cbz	r1, 4022ca <prvTimerTask+0x19a>
  4022bc:	4603      	mov	r3, r0
  4022be:	4602      	mov	r2, r0
  4022c0:	4401      	add	r1, r0
  4022c2:	4650      	mov	r0, sl
  4022c4:	4c17      	ldr	r4, [pc, #92]	; (402324 <prvTimerTask+0x1f4>)
  4022c6:	47a0      	blx	r4
  4022c8:	e792      	b.n	4021f0 <prvTimerTask+0xc0>
  4022ca:	f04f 0380 	mov.w	r3, #128	; 0x80
  4022ce:	b672      	cpsid	i
  4022d0:	f383 8811 	msr	BASEPRI, r3
  4022d4:	f3bf 8f6f 	isb	sy
  4022d8:	f3bf 8f4f 	dsb	sy
  4022dc:	b662      	cpsie	i
  4022de:	e7fe      	b.n	4022de <prvTimerTask+0x1ae>
  4022e0:	4650      	mov	r0, sl
  4022e2:	4b13      	ldr	r3, [pc, #76]	; (402330 <prvTimerTask+0x200>)
  4022e4:	4798      	blx	r3
  4022e6:	e783      	b.n	4021f0 <prvTimerTask+0xc0>
  4022e8:	47b8      	blx	r7
  4022ea:	a804      	add	r0, sp, #16
  4022ec:	4b09      	ldr	r3, [pc, #36]	; (402314 <prvTimerTask+0x1e4>)
  4022ee:	4798      	blx	r3
  4022f0:	4605      	mov	r5, r0
  4022f2:	9b04      	ldr	r3, [sp, #16]
  4022f4:	2b00      	cmp	r3, #0
  4022f6:	f47f af78 	bne.w	4021ea <prvTimerTask+0xba>
  4022fa:	4b0e      	ldr	r3, [pc, #56]	; (402334 <prvTimerTask+0x204>)
  4022fc:	681b      	ldr	r3, [r3, #0]
  4022fe:	681a      	ldr	r2, [r3, #0]
  402300:	fab2 f282 	clz	r2, r2
  402304:	0952      	lsrs	r2, r2, #5
  402306:	2400      	movs	r4, #0
  402308:	e72d      	b.n	402166 <prvTimerTask+0x36>
  40230a:	bf00      	nop
  40230c:	2040c308 	.word	0x2040c308
  402310:	004016f5 	.word	0x004016f5
  402314:	00402079 	.word	0x00402079
  402318:	2040c33c 	.word	0x2040c33c
  40231c:	004012bd 	.word	0x004012bd
  402320:	00401859 	.word	0x00401859
  402324:	00401ef5 	.word	0x00401ef5
  402328:	00402009 	.word	0x00402009
  40232c:	00400efd 	.word	0x00400efd
  402330:	004008f5 	.word	0x004008f5
  402334:	2040c30c 	.word	0x2040c30c
  402338:	e000ed04 	.word	0xe000ed04
  40233c:	004005bd 	.word	0x004005bd

00402340 <FusionAhrsReset>:
  402340:	f04f 537e 	mov.w	r3, #1065353216	; 0x3f800000
  402344:	6103      	str	r3, [r0, #16]
  402346:	2300      	movs	r3, #0
  402348:	6143      	str	r3, [r0, #20]
  40234a:	6183      	str	r3, [r0, #24]
  40234c:	61c3      	str	r3, [r0, #28]
  40234e:	6203      	str	r3, [r0, #32]
  402350:	6243      	str	r3, [r0, #36]	; 0x24
  402352:	6283      	str	r3, [r0, #40]	; 0x28
  402354:	2201      	movs	r2, #1
  402356:	f880 202c 	strb.w	r2, [r0, #44]	; 0x2c
  40235a:	4a0a      	ldr	r2, [pc, #40]	; (402384 <FusionAhrsReset+0x44>)
  40235c:	6302      	str	r2, [r0, #48]	; 0x30
  40235e:	6383      	str	r3, [r0, #56]	; 0x38
  402360:	63c3      	str	r3, [r0, #60]	; 0x3c
  402362:	6403      	str	r3, [r0, #64]	; 0x40
  402364:	6443      	str	r3, [r0, #68]	; 0x44
  402366:	6483      	str	r3, [r0, #72]	; 0x48
  402368:	64c3      	str	r3, [r0, #76]	; 0x4c
  40236a:	2300      	movs	r3, #0
  40236c:	f880 3050 	strb.w	r3, [r0, #80]	; 0x50
  402370:	6543      	str	r3, [r0, #84]	; 0x54
  402372:	f880 3058 	strb.w	r3, [r0, #88]	; 0x58
  402376:	f880 3059 	strb.w	r3, [r0, #89]	; 0x59
  40237a:	65c3      	str	r3, [r0, #92]	; 0x5c
  40237c:	f880 3060 	strb.w	r3, [r0, #96]	; 0x60
  402380:	4770      	bx	lr
  402382:	bf00      	nop
  402384:	41200000 	.word	0x41200000

00402388 <FusionAhrsSetSettings>:
  402388:	b538      	push	{r3, r4, r5, lr}
  40238a:	ed2d 8b02 	vpush	{d8}
  40238e:	4604      	mov	r4, r0
  402390:	460d      	mov	r5, r1
  402392:	ed91 8a00 	vldr	s16, [r1]
  402396:	ed80 8a00 	vstr	s16, [r0]
  40239a:	edd1 7a01 	vldr	s15, [r1, #4]
  40239e:	eef5 7a40 	vcmp.f32	s15, #0.0
  4023a2:	eef1 fa10 	vmrs	APSR_nzcv, fpscr
  4023a6:	d001      	beq.n	4023ac <FusionAhrsSetSettings+0x24>
  4023a8:	68cb      	ldr	r3, [r1, #12]
  4023aa:	bb03      	cbnz	r3, 4023ee <FusionAhrsSetSettings+0x66>
  4023ac:	4b23      	ldr	r3, [pc, #140]	; (40243c <FusionAhrsSetSettings+0xb4>)
  4023ae:	6063      	str	r3, [r4, #4]
  4023b0:	edd5 7a02 	vldr	s15, [r5, #8]
  4023b4:	eef5 7a40 	vcmp.f32	s15, #0.0
  4023b8:	eef1 fa10 	vmrs	APSR_nzcv, fpscr
  4023bc:	d001      	beq.n	4023c2 <FusionAhrsSetSettings+0x3a>
  4023be:	68eb      	ldr	r3, [r5, #12]
  4023c0:	bb43      	cbnz	r3, 402414 <FusionAhrsSetSettings+0x8c>
  4023c2:	4b1e      	ldr	r3, [pc, #120]	; (40243c <FusionAhrsSetSettings+0xb4>)
  4023c4:	60a3      	str	r3, [r4, #8]
  4023c6:	68eb      	ldr	r3, [r5, #12]
  4023c8:	60e3      	str	r3, [r4, #12]
  4023ca:	f894 302c 	ldrb.w	r3, [r4, #44]	; 0x2c
  4023ce:	b90b      	cbnz	r3, 4023d4 <FusionAhrsSetSettings+0x4c>
  4023d0:	ed84 8a0c 	vstr	s16, [r4, #48]	; 0x30
  4023d4:	eef2 7a04 	vmov.f32	s15, #36	; 0x41200000  10.0
  4023d8:	ee77 7ac8 	vsub.f32	s15, s15, s16
  4023dc:	eef0 6a08 	vmov.f32	s13, #8	; 0x40400000  3.0
  4023e0:	ee87 7aa6 	vdiv.f32	s14, s15, s13
  4023e4:	ed84 7a0d 	vstr	s14, [r4, #52]	; 0x34
  4023e8:	ecbd 8b02 	vpop	{d8}
  4023ec:	bd38      	pop	{r3, r4, r5, pc}
  4023ee:	ed9f 7a14 	vldr	s14, [pc, #80]	; 402440 <FusionAhrsSetSettings+0xb8>
  4023f2:	ee67 7a87 	vmul.f32	s15, s15, s14
  4023f6:	ee17 0a90 	vmov	r0, s15
  4023fa:	4b12      	ldr	r3, [pc, #72]	; (402444 <FusionAhrsSetSettings+0xbc>)
  4023fc:	4798      	blx	r3
  4023fe:	eef6 7a00 	vmov.f32	s15, #96	; 0x3f000000  0.5
  402402:	ee07 0a10 	vmov	s14, r0
  402406:	ee67 7a27 	vmul.f32	s15, s14, s15
  40240a:	ee67 7aa7 	vmul.f32	s15, s15, s15
  40240e:	edc4 7a01 	vstr	s15, [r4, #4]
  402412:	e7cd      	b.n	4023b0 <FusionAhrsSetSettings+0x28>
  402414:	ed9f 7a0a 	vldr	s14, [pc, #40]	; 402440 <FusionAhrsSetSettings+0xb8>
  402418:	ee67 7a87 	vmul.f32	s15, s15, s14
  40241c:	ee17 0a90 	vmov	r0, s15
  402420:	4b08      	ldr	r3, [pc, #32]	; (402444 <FusionAhrsSetSettings+0xbc>)
  402422:	4798      	blx	r3
  402424:	eef6 7a00 	vmov.f32	s15, #96	; 0x3f000000  0.5
  402428:	ee07 0a10 	vmov	s14, r0
  40242c:	ee67 7a27 	vmul.f32	s15, s14, s15
  402430:	ee67 7aa7 	vmul.f32	s15, s15, s15
  402434:	edc4 7a02 	vstr	s15, [r4, #8]
  402438:	e7c5      	b.n	4023c6 <FusionAhrsSetSettings+0x3e>
  40243a:	bf00      	nop
  40243c:	7f7fffff 	.word	0x7f7fffff
  402440:	3c8efa35 	.word	0x3c8efa35
  402444:	004048fd 	.word	0x004048fd

00402448 <FusionAhrsInitialise>:
  402448:	b530      	push	{r4, r5, lr}
  40244a:	b085      	sub	sp, #20
  40244c:	4605      	mov	r5, r0
  40244e:	4b06      	ldr	r3, [pc, #24]	; (402468 <FusionAhrsInitialise+0x20>)
  402450:	cb0f      	ldmia	r3, {r0, r1, r2, r3}
  402452:	e88d 000f 	stmia.w	sp, {r0, r1, r2, r3}
  402456:	4669      	mov	r1, sp
  402458:	4628      	mov	r0, r5
  40245a:	4b04      	ldr	r3, [pc, #16]	; (40246c <FusionAhrsInitialise+0x24>)
  40245c:	4798      	blx	r3
  40245e:	4628      	mov	r0, r5
  402460:	4b03      	ldr	r3, [pc, #12]	; (402470 <FusionAhrsInitialise+0x28>)
  402462:	4798      	blx	r3
  402464:	b005      	add	sp, #20
  402466:	bd30      	pop	{r4, r5, pc}
  402468:	00409fdc 	.word	0x00409fdc
  40246c:	00402389 	.word	0x00402389
  402470:	00402341 	.word	0x00402341

00402474 <FusionAhrsGetQuaternion>:
  402474:	b410      	push	{r4}
  402476:	4604      	mov	r4, r0
  402478:	3110      	adds	r1, #16
  40247a:	c90f      	ldmia	r1, {r0, r1, r2, r3}
  40247c:	e884 000f 	stmia.w	r4, {r0, r1, r2, r3}
  402480:	4620      	mov	r0, r4
  402482:	f85d 4b04 	ldr.w	r4, [sp], #4
  402486:	4770      	bx	lr

00402488 <FusionAhrsSetHeading>:
  402488:	b510      	push	{r4, lr}
  40248a:	ed2d 8b04 	vpush	{d8-d9}
  40248e:	4604      	mov	r4, r0
  402490:	ee08 1a10 	vmov	s16, r1
  402494:	ed90 7a07 	vldr	s14, [r0, #28]
  402498:	edd0 7a06 	vldr	s15, [r0, #24]
  40249c:	ee67 6aa7 	vmul.f32	s13, s15, s15
  4024a0:	eeb6 9a00 	vmov.f32	s18, #96	; 0x3f000000  0.5
  4024a4:	ee79 6a66 	vsub.f32	s13, s18, s13
  4024a8:	ee27 6a07 	vmul.f32	s12, s14, s14
  4024ac:	edd0 5a04 	vldr	s11, [r0, #16]
  4024b0:	ee27 7a25 	vmul.f32	s14, s14, s11
  4024b4:	edd0 5a05 	vldr	s11, [r0, #20]
  4024b8:	ee67 7aa5 	vmul.f32	s15, s15, s11
  4024bc:	ee76 6ac6 	vsub.f32	s13, s13, s12
  4024c0:	ee16 1a90 	vmov	r1, s13
  4024c4:	ee77 7a27 	vadd.f32	s15, s14, s15
  4024c8:	ee17 0a90 	vmov	r0, s15
  4024cc:	4b2f      	ldr	r3, [pc, #188]	; (40258c <FusionAhrsSetHeading+0x104>)
  4024ce:	4798      	blx	r3
  4024d0:	eddf 8a2f 	vldr	s17, [pc, #188]	; 402590 <FusionAhrsSetHeading+0x108>
  4024d4:	ee68 8a28 	vmul.f32	s17, s16, s17
  4024d8:	ee07 0a90 	vmov	s15, r0
  4024dc:	ee77 8ae8 	vsub.f32	s17, s15, s17
  4024e0:	ee68 8a89 	vmul.f32	s17, s17, s18
  4024e4:	ee18 0a90 	vmov	r0, s17
  4024e8:	4b2a      	ldr	r3, [pc, #168]	; (402594 <FusionAhrsSetHeading+0x10c>)
  4024ea:	4798      	blx	r3
  4024ec:	ee08 0a10 	vmov	s16, r0
  4024f0:	ee18 0a90 	vmov	r0, s17
  4024f4:	4b28      	ldr	r3, [pc, #160]	; (402598 <FusionAhrsSetHeading+0x110>)
  4024f6:	4798      	blx	r3
  4024f8:	ee07 0a90 	vmov	s15, r0
  4024fc:	eeb1 5a67 	vneg.f32	s10, s15
  402500:	ed94 6a04 	vldr	s12, [r4, #16]
  402504:	edd4 5a05 	vldr	s11, [r4, #20]
  402508:	edd4 7a06 	vldr	s15, [r4, #24]
  40250c:	edd4 4a07 	vldr	s9, [r4, #28]
  402510:	ed9f 7a22 	vldr	s14, [pc, #136]	; 40259c <FusionAhrsSetHeading+0x114>
  402514:	ee25 4a87 	vmul.f32	s8, s11, s14
  402518:	ee67 3a87 	vmul.f32	s7, s15, s14
  40251c:	ee26 3a07 	vmul.f32	s6, s12, s14
  402520:	ee24 7a87 	vmul.f32	s14, s9, s14
  402524:	ee68 6a06 	vmul.f32	s13, s16, s12
  402528:	ee76 6ac4 	vsub.f32	s13, s13, s8
  40252c:	ee76 6ae3 	vsub.f32	s13, s13, s7
  402530:	ee65 2a24 	vmul.f32	s5, s10, s9
  402534:	ee76 6ae2 	vsub.f32	s13, s13, s5
  402538:	edc4 6a04 	vstr	s13, [r4, #16]
  40253c:	ee68 6a25 	vmul.f32	s13, s16, s11
  402540:	ee76 6a83 	vadd.f32	s13, s13, s6
  402544:	ee76 6a87 	vadd.f32	s13, s13, s14
  402548:	ee67 2a85 	vmul.f32	s5, s15, s10
  40254c:	ee76 6ae2 	vsub.f32	s13, s13, s5
  402550:	edc4 6a05 	vstr	s13, [r4, #20]
  402554:	ee68 7a27 	vmul.f32	s15, s16, s15
  402558:	ee77 7ac7 	vsub.f32	s15, s15, s14
  40255c:	ee77 7a83 	vadd.f32	s15, s15, s6
  402560:	ee65 5a85 	vmul.f32	s11, s11, s10
  402564:	ee77 7aa5 	vadd.f32	s15, s15, s11
  402568:	edc4 7a06 	vstr	s15, [r4, #24]
  40256c:	ee28 8a24 	vmul.f32	s16, s16, s9
  402570:	ee38 8a23 	vadd.f32	s16, s16, s7
  402574:	ee38 8a44 	vsub.f32	s16, s16, s8
  402578:	ee26 6a05 	vmul.f32	s12, s12, s10
  40257c:	ee38 8a06 	vadd.f32	s16, s16, s12
  402580:	ed84 8a07 	vstr	s16, [r4, #28]
  402584:	ecbd 8b04 	vpop	{d8-d9}
  402588:	bd10      	pop	{r4, pc}
  40258a:	bf00      	nop
  40258c:	00404ad5 	.word	0x00404ad5
  402590:	3c8efa35 	.word	0x3c8efa35
  402594:	00404885 	.word	0x00404885
  402598:	004048fd 	.word	0x004048fd
  40259c:	00000000 	.word	0x00000000

004025a0 <FusionAhrsUpdate>:
  4025a0:	b570      	push	{r4, r5, r6, lr}
  4025a2:	ed2d 8b0a 	vpush	{d8-d12}
  4025a6:	b08e      	sub	sp, #56	; 0x38
  4025a8:	4604      	mov	r4, r0
  4025aa:	a803      	add	r0, sp, #12
  4025ac:	e880 000e 	stmia.w	r0, {r1, r2, r3}
  4025b0:	ed9d 9a22 	vldr	s18, [sp, #136]	; 0x88
  4025b4:	f104 0320 	add.w	r3, r4, #32
  4025b8:	aa1c      	add	r2, sp, #112	; 0x70
  4025ba:	ca07      	ldmia	r2, {r0, r1, r2}
  4025bc:	e883 0007 	stmia.w	r3, {r0, r1, r2}
  4025c0:	f894 302c 	ldrb.w	r3, [r4, #44]	; 0x2c
  4025c4:	b1bb      	cbz	r3, 4025f6 <FusionAhrsUpdate+0x56>
  4025c6:	edd4 7a0d 	vldr	s15, [r4, #52]	; 0x34
  4025ca:	ee29 7a27 	vmul.f32	s14, s18, s15
  4025ce:	edd4 7a0c 	vldr	s15, [r4, #48]	; 0x30
  4025d2:	ee77 7ac7 	vsub.f32	s15, s15, s14
  4025d6:	edc4 7a0c 	vstr	s15, [r4, #48]	; 0x30
  4025da:	ed94 7a00 	vldr	s14, [r4]
  4025de:	eef4 7ac7 	vcmpe.f32	s15, s14
  4025e2:	eef1 fa10 	vmrs	APSR_nzcv, fpscr
  4025e6:	d506      	bpl.n	4025f6 <FusionAhrsUpdate+0x56>
  4025e8:	ed84 7a0c 	vstr	s14, [r4, #48]	; 0x30
  4025ec:	2300      	movs	r3, #0
  4025ee:	f884 302c 	strb.w	r3, [r4, #44]	; 0x2c
  4025f2:	f884 3058 	strb.w	r3, [r4, #88]	; 0x58
  4025f6:	ed94 6a05 	vldr	s12, [r4, #20]
  4025fa:	edd4 9a07 	vldr	s19, [r4, #28]
  4025fe:	ed94 7a04 	vldr	s14, [r4, #16]
  402602:	edd4 aa06 	vldr	s21, [r4, #24]
  402606:	ee66 6a29 	vmul.f32	s13, s12, s19
  40260a:	ee67 7a2a 	vmul.f32	s15, s14, s21
  40260e:	ee36 bae7 	vsub.f32	s22, s13, s15
  402612:	ee69 aaaa 	vmul.f32	s21, s19, s21
  402616:	ee26 6a07 	vmul.f32	s12, s12, s14
  40261a:	ee7a aa86 	vadd.f32	s21, s21, s12
  40261e:	ee27 7a07 	vmul.f32	s14, s14, s14
  402622:	eef6 7a00 	vmov.f32	s15, #96	; 0x3f000000  0.5
  402626:	ee37 7a67 	vsub.f32	s14, s14, s15
  40262a:	ee69 9aa9 	vmul.f32	s19, s19, s19
  40262e:	ee77 9a29 	vadd.f32	s19, s14, s19
  402632:	2301      	movs	r3, #1
  402634:	f884 3050 	strb.w	r3, [r4, #80]	; 0x50
  402638:	ed9d 8a1c 	vldr	s16, [sp, #112]	; 0x70
  40263c:	ed9d aa1d 	vldr	s20, [sp, #116]	; 0x74
  402640:	eddd 8a1e 	vldr	s17, [sp, #120]	; 0x78
  402644:	eeb5 aa40 	vcmp.f32	s20, #0.0
  402648:	eef1 fa10 	vmrs	APSR_nzcv, fpscr
  40264c:	bf18      	it	ne
  40264e:	2300      	movne	r3, #0
  402650:	eeb5 8a40 	vcmp.f32	s16, #0.0
  402654:	eef1 fa10 	vmrs	APSR_nzcv, fpscr
  402658:	f003 0301 	and.w	r3, r3, #1
  40265c:	bf18      	it	ne
  40265e:	2300      	movne	r3, #0
  402660:	b38b      	cbz	r3, 4026c6 <FusionAhrsUpdate+0x126>
  402662:	eef5 8a40 	vcmp.f32	s17, #0.0
  402666:	eef1 fa10 	vmrs	APSR_nzcv, fpscr
  40266a:	d12c      	bne.n	4026c6 <FusionAhrsUpdate+0x126>
  40266c:	ed9f 8ae8 	vldr	s16, [pc, #928]	; 402a10 <FusionAhrsUpdate+0x470>
  402670:	eef0 8a48 	vmov.f32	s17, s16
  402674:	eeb0 aa48 	vmov.f32	s20, s16
  402678:	2301      	movs	r3, #1
  40267a:	f884 3059 	strb.w	r3, [r4, #89]	; 0x59
  40267e:	eddd ba1f 	vldr	s23, [sp, #124]	; 0x7c
  402682:	ed9d ca20 	vldr	s24, [sp, #128]	; 0x80
  402686:	eddd ca21 	vldr	s25, [sp, #132]	; 0x84
  40268a:	eeb5 ca40 	vcmp.f32	s24, #0.0
  40268e:	eef1 fa10 	vmrs	APSR_nzcv, fpscr
  402692:	bf18      	it	ne
  402694:	2300      	movne	r3, #0
  402696:	eef5 ba40 	vcmp.f32	s23, #0.0
  40269a:	eef1 fa10 	vmrs	APSR_nzcv, fpscr
  40269e:	f003 0301 	and.w	r3, r3, #1
  4026a2:	bf18      	it	ne
  4026a4:	2300      	movne	r3, #0
  4026a6:	2b00      	cmp	r3, #0
  4026a8:	f000 8089 	beq.w	4027be <FusionAhrsUpdate+0x21e>
  4026ac:	eef5 ca40 	vcmp.f32	s25, #0.0
  4026b0:	eef1 fa10 	vmrs	APSR_nzcv, fpscr
  4026b4:	f040 8083 	bne.w	4027be <FusionAhrsUpdate+0x21e>
  4026b8:	eddf 9ad5 	vldr	s19, [pc, #852]	; 402a10 <FusionAhrsUpdate+0x470>
  4026bc:	eef0 6a69 	vmov.f32	s13, s19
  4026c0:	eeb0 7a69 	vmov.f32	s14, s19
  4026c4:	e10d      	b.n	4028e2 <FusionAhrsUpdate+0x342>
  4026c6:	6d62      	ldr	r2, [r4, #84]	; 0x54
  4026c8:	68e3      	ldr	r3, [r4, #12]
  4026ca:	429a      	cmp	r2, r3
  4026cc:	d859      	bhi.n	402782 <FusionAhrsUpdate+0x1e2>
  4026ce:	ee68 7a08 	vmul.f32	s15, s16, s16
  4026d2:	ee2a 7a0a 	vmul.f32	s14, s20, s20
  4026d6:	ee77 7a87 	vadd.f32	s15, s15, s14
  4026da:	ee28 7aa8 	vmul.f32	s14, s17, s17
  4026de:	ee77 7a87 	vadd.f32	s15, s15, s14
  4026e2:	4bcc      	ldr	r3, [pc, #816]	; (402a14 <FusionAhrsUpdate+0x474>)
  4026e4:	ee17 2a90 	vmov	r2, s15
  4026e8:	eba3 0362 	sub.w	r3, r3, r2, asr #1
  4026ec:	ee06 3a90 	vmov	s13, r3
  4026f0:	ed9f 7ac9 	vldr	s14, [pc, #804]	; 402a18 <FusionAhrsUpdate+0x478>
  4026f4:	ee67 7a87 	vmul.f32	s15, s15, s14
  4026f8:	ee67 7aa6 	vmul.f32	s15, s15, s13
  4026fc:	ee67 7aa6 	vmul.f32	s15, s15, s13
  402700:	ed9f 7ac6 	vldr	s14, [pc, #792]	; 402a1c <FusionAhrsUpdate+0x47c>
  402704:	ee77 7a67 	vsub.f32	s15, s14, s15
  402708:	ee67 7aa6 	vmul.f32	s15, s15, s13
  40270c:	ee28 8a27 	vmul.f32	s16, s16, s15
  402710:	ee2a 6a27 	vmul.f32	s12, s20, s15
  402714:	ee68 8aa7 	vmul.f32	s17, s17, s15
  402718:	ee29 7a86 	vmul.f32	s14, s19, s12
  40271c:	ee6a 7aa8 	vmul.f32	s15, s21, s17
  402720:	ee37 aa67 	vsub.f32	s20, s14, s15
  402724:	ee6b 8a28 	vmul.f32	s17, s22, s17
  402728:	ee69 6a88 	vmul.f32	s13, s19, s16
  40272c:	ee78 8ae6 	vsub.f32	s17, s17, s13
  402730:	ee2a 8a88 	vmul.f32	s16, s21, s16
  402734:	ee2b 6a06 	vmul.f32	s12, s22, s12
  402738:	ee38 8a46 	vsub.f32	s16, s16, s12
  40273c:	ed84 aa0e 	vstr	s20, [r4, #56]	; 0x38
  402740:	edc4 8a0f 	vstr	s17, [r4, #60]	; 0x3c
  402744:	ed84 8a10 	vstr	s16, [r4, #64]	; 0x40
  402748:	f894 302c 	ldrb.w	r3, [r4, #44]	; 0x2c
  40274c:	b973      	cbnz	r3, 40276c <FusionAhrsUpdate+0x1cc>
  40274e:	ee6a 7a0a 	vmul.f32	s15, s20, s20
  402752:	ee28 7aa8 	vmul.f32	s14, s17, s17
  402756:	ee77 7a87 	vadd.f32	s15, s15, s14
  40275a:	ee48 7a08 	vmla.f32	s15, s16, s16
  40275e:	ed94 7a01 	vldr	s14, [r4, #4]
  402762:	eef4 7ac7 	vcmpe.f32	s15, s14
  402766:	eef1 fa10 	vmrs	APSR_nzcv, fpscr
  40276a:	d81e      	bhi.n	4027aa <FusionAhrsUpdate+0x20a>
  40276c:	2300      	movs	r3, #0
  40276e:	f884 3050 	strb.w	r3, [r4, #80]	; 0x50
  402772:	6d63      	ldr	r3, [r4, #84]	; 0x54
  402774:	2b09      	cmp	r3, #9
  402776:	bf8c      	ite	hi
  402778:	220a      	movhi	r2, #10
  40277a:	2200      	movls	r2, #0
  40277c:	1a9b      	subs	r3, r3, r2
  40277e:	6563      	str	r3, [r4, #84]	; 0x54
  402780:	e77a      	b.n	402678 <FusionAhrsUpdate+0xd8>
  402782:	ae07      	add	r6, sp, #28
  402784:	f104 0510 	add.w	r5, r4, #16
  402788:	e895 000f 	ldmia.w	r5, {r0, r1, r2, r3}
  40278c:	e886 000f 	stmia.w	r6, {r0, r1, r2, r3}
  402790:	4620      	mov	r0, r4
  402792:	4ba3      	ldr	r3, [pc, #652]	; (402a20 <FusionAhrsUpdate+0x480>)
  402794:	4798      	blx	r3
  402796:	e896 000f 	ldmia.w	r6, {r0, r1, r2, r3}
  40279a:	e885 000f 	stmia.w	r5, {r0, r1, r2, r3}
  40279e:	2300      	movs	r3, #0
  4027a0:	6563      	str	r3, [r4, #84]	; 0x54
  4027a2:	2301      	movs	r3, #1
  4027a4:	f884 3058 	strb.w	r3, [r4, #88]	; 0x58
  4027a8:	e791      	b.n	4026ce <FusionAhrsUpdate+0x12e>
  4027aa:	6d63      	ldr	r3, [r4, #84]	; 0x54
  4027ac:	3301      	adds	r3, #1
  4027ae:	6563      	str	r3, [r4, #84]	; 0x54
  4027b0:	ed9f 8a97 	vldr	s16, [pc, #604]	; 402a10 <FusionAhrsUpdate+0x470>
  4027b4:	eef0 8a48 	vmov.f32	s17, s16
  4027b8:	eeb0 aa48 	vmov.f32	s20, s16
  4027bc:	e75c      	b.n	402678 <FusionAhrsUpdate+0xd8>
  4027be:	2300      	movs	r3, #0
  4027c0:	f884 3060 	strb.w	r3, [r4, #96]	; 0x60
  4027c4:	6de2      	ldr	r2, [r4, #92]	; 0x5c
  4027c6:	68e3      	ldr	r3, [r4, #12]
  4027c8:	429a      	cmp	r2, r3
  4027ca:	f200 812d 	bhi.w	402a28 <FusionAhrsUpdate+0x488>
  4027ce:	edd4 6a05 	vldr	s13, [r4, #20]
  4027d2:	ed94 7a06 	vldr	s14, [r4, #24]
  4027d6:	edd4 4a04 	vldr	s9, [r4, #16]
  4027da:	edd4 5a07 	vldr	s11, [r4, #28]
  4027de:	ee26 5a87 	vmul.f32	s10, s13, s14
  4027e2:	ee64 7aa5 	vmul.f32	s15, s9, s11
  4027e6:	ee35 5a27 	vadd.f32	s10, s10, s15
  4027ea:	ee64 7aa4 	vmul.f32	s15, s9, s9
  4027ee:	eeb6 6a00 	vmov.f32	s12, #96	; 0x3f000000  0.5
  4027f2:	ee77 7ac6 	vsub.f32	s15, s15, s12
  4027f6:	ee27 6a07 	vmul.f32	s12, s14, s14
  4027fa:	ee37 6a86 	vadd.f32	s12, s15, s12
  4027fe:	ee27 7a25 	vmul.f32	s14, s14, s11
  402802:	ee66 6aa4 	vmul.f32	s13, s13, s9
  402806:	ee77 4a66 	vsub.f32	s9, s14, s13
  40280a:	ee6a 5aac 	vmul.f32	s11, s21, s25
  40280e:	ee69 7a8c 	vmul.f32	s15, s19, s24
  402812:	ee75 5ae7 	vsub.f32	s11, s11, s15
  402816:	ee69 9aab 	vmul.f32	s19, s19, s23
  40281a:	ee6b ca2c 	vmul.f32	s25, s22, s25
  40281e:	ee79 9aec 	vsub.f32	s19, s19, s25
  402822:	ee6b 6a0c 	vmul.f32	s13, s22, s24
  402826:	ee6a 7aab 	vmul.f32	s15, s21, s23
  40282a:	ee76 6ae7 	vsub.f32	s13, s13, s15
  40282e:	ee25 7aa5 	vmul.f32	s14, s11, s11
  402832:	ee69 7aa9 	vmul.f32	s15, s19, s19
  402836:	ee37 7a27 	vadd.f32	s14, s14, s15
  40283a:	ee66 7aa6 	vmul.f32	s15, s13, s13
  40283e:	ee37 7a27 	vadd.f32	s14, s14, s15
  402842:	4b74      	ldr	r3, [pc, #464]	; (402a14 <FusionAhrsUpdate+0x474>)
  402844:	ee17 2a10 	vmov	r2, s14
  402848:	eba3 0362 	sub.w	r3, r3, r2, asr #1
  40284c:	ee04 3a10 	vmov	s8, r3
  402850:	eddf 7a71 	vldr	s15, [pc, #452]	; 402a18 <FusionAhrsUpdate+0x478>
  402854:	ee27 7a27 	vmul.f32	s14, s14, s15
  402858:	ee27 7a04 	vmul.f32	s14, s14, s8
  40285c:	ee27 7a04 	vmul.f32	s14, s14, s8
  402860:	eddf 7a6e 	vldr	s15, [pc, #440]	; 402a1c <FusionAhrsUpdate+0x47c>
  402864:	ee77 7ac7 	vsub.f32	s15, s15, s14
  402868:	ee67 7a84 	vmul.f32	s15, s15, s8
  40286c:	ee67 5aa5 	vmul.f32	s11, s15, s11
  402870:	ee67 9aa9 	vmul.f32	s19, s15, s19
  402874:	ee67 7aa6 	vmul.f32	s15, s15, s13
  402878:	ee24 7aa9 	vmul.f32	s14, s9, s19
  40287c:	ee66 6a27 	vmul.f32	s13, s12, s15
  402880:	ee37 7a66 	vsub.f32	s14, s14, s13
  402884:	ee65 7a27 	vmul.f32	s15, s10, s15
  402888:	ee64 6aa5 	vmul.f32	s13, s9, s11
  40288c:	ee77 6ae6 	vsub.f32	s13, s15, s13
  402890:	ee66 7a25 	vmul.f32	s15, s12, s11
  402894:	ee65 9a29 	vmul.f32	s19, s10, s19
  402898:	ee77 9ae9 	vsub.f32	s19, s15, s19
  40289c:	ed84 7a11 	vstr	s14, [r4, #68]	; 0x44
  4028a0:	edc4 6a12 	vstr	s13, [r4, #72]	; 0x48
  4028a4:	edc4 9a13 	vstr	s19, [r4, #76]	; 0x4c
  4028a8:	f894 302c 	ldrb.w	r3, [r4, #44]	; 0x2c
  4028ac:	b97b      	cbnz	r3, 4028ce <FusionAhrsUpdate+0x32e>
  4028ae:	ee67 7a07 	vmul.f32	s15, s14, s14
  4028b2:	ee26 6aa6 	vmul.f32	s12, s13, s13
  4028b6:	ee77 7a86 	vadd.f32	s15, s15, s12
  4028ba:	ee49 7aa9 	vmla.f32	s15, s19, s19
  4028be:	ed94 6a02 	vldr	s12, [r4, #8]
  4028c2:	eef4 7ac6 	vcmpe.f32	s15, s12
  4028c6:	eef1 fa10 	vmrs	APSR_nzcv, fpscr
  4028ca:	f200 80c8 	bhi.w	402a5e <FusionAhrsUpdate+0x4be>
  4028ce:	2300      	movs	r3, #0
  4028d0:	f884 3059 	strb.w	r3, [r4, #89]	; 0x59
  4028d4:	6de3      	ldr	r3, [r4, #92]	; 0x5c
  4028d6:	2b09      	cmp	r3, #9
  4028d8:	bf8c      	ite	hi
  4028da:	220a      	movhi	r2, #10
  4028dc:	2200      	movls	r2, #0
  4028de:	1a9b      	subs	r3, r3, r2
  4028e0:	65e3      	str	r3, [r4, #92]	; 0x5c
  4028e2:	edd4 7a0c 	vldr	s15, [r4, #48]	; 0x30
  4028e6:	ee37 7a0a 	vadd.f32	s14, s14, s20
  4028ea:	ee27 7a27 	vmul.f32	s14, s14, s15
  4028ee:	ed9f 6a4d 	vldr	s12, [pc, #308]	; 402a24 <FusionAhrsUpdate+0x484>
  4028f2:	eddd 5a03 	vldr	s11, [sp, #12]
  4028f6:	ee65 5a86 	vmul.f32	s11, s11, s12
  4028fa:	ee37 7a25 	vadd.f32	s14, s14, s11
  4028fe:	ee27 7a09 	vmul.f32	s14, s14, s18
  402902:	ee78 6aa6 	vadd.f32	s13, s17, s13
  402906:	ee66 6aa7 	vmul.f32	s13, s13, s15
  40290a:	eddd 8a04 	vldr	s17, [sp, #16]
  40290e:	ee68 8a86 	vmul.f32	s17, s17, s12
  402912:	ee76 6aa8 	vadd.f32	s13, s13, s17
  402916:	ee66 6a89 	vmul.f32	s13, s13, s18
  40291a:	ee38 8a29 	vadd.f32	s16, s16, s19
  40291e:	ee28 8a27 	vmul.f32	s16, s16, s15
  402922:	eddd 7a05 	vldr	s15, [sp, #20]
  402926:	ee67 7a86 	vmul.f32	s15, s15, s12
  40292a:	ee38 8a27 	vadd.f32	s16, s16, s15
  40292e:	ee68 7a09 	vmul.f32	s15, s16, s18
  402932:	ed94 3a04 	vldr	s6, [r4, #16]
  402936:	edd4 3a05 	vldr	s7, [r4, #20]
  40293a:	ed94 4a06 	vldr	s8, [r4, #24]
  40293e:	ed94 5a07 	vldr	s10, [r4, #28]
  402942:	ee63 5ac7 	vnmul.f32	s11, s7, s14
  402946:	ee26 6a84 	vmul.f32	s12, s13, s8
  40294a:	ee75 5ac6 	vsub.f32	s11, s11, s12
  40294e:	ee27 6a85 	vmul.f32	s12, s15, s10
  402952:	ee75 5ac6 	vsub.f32	s11, s11, s12
  402956:	ee75 5a83 	vadd.f32	s11, s11, s6
  40295a:	ee67 4a03 	vmul.f32	s9, s14, s6
  40295e:	ee27 6a84 	vmul.f32	s12, s15, s8
  402962:	ee74 4a86 	vadd.f32	s9, s9, s12
  402966:	ee26 6a85 	vmul.f32	s12, s13, s10
  40296a:	ee74 4ac6 	vsub.f32	s9, s9, s12
  40296e:	ee74 4aa3 	vadd.f32	s9, s9, s7
  402972:	ee26 6a83 	vmul.f32	s12, s13, s6
  402976:	ee67 2aa3 	vmul.f32	s5, s15, s7
  40297a:	ee36 6a62 	vsub.f32	s12, s12, s5
  40297e:	ee67 2a05 	vmul.f32	s5, s14, s10
  402982:	ee36 6a22 	vadd.f32	s12, s12, s5
  402986:	ee36 6a04 	vadd.f32	s12, s12, s8
  40298a:	ee67 7a83 	vmul.f32	s15, s15, s6
  40298e:	ee66 6aa3 	vmul.f32	s13, s13, s7
  402992:	ee77 7aa6 	vadd.f32	s15, s15, s13
  402996:	ee27 7a04 	vmul.f32	s14, s14, s8
  40299a:	ee77 7ac7 	vsub.f32	s15, s15, s14
  40299e:	ee77 7a85 	vadd.f32	s15, s15, s10
  4029a2:	ee25 7aa5 	vmul.f32	s14, s11, s11
  4029a6:	ee64 6aa4 	vmul.f32	s13, s9, s9
  4029aa:	ee37 7a26 	vadd.f32	s14, s14, s13
  4029ae:	ee66 6a06 	vmul.f32	s13, s12, s12
  4029b2:	ee37 7a26 	vadd.f32	s14, s14, s13
  4029b6:	ee67 6aa7 	vmul.f32	s13, s15, s15
  4029ba:	ee37 7a26 	vadd.f32	s14, s14, s13
  4029be:	4b15      	ldr	r3, [pc, #84]	; (402a14 <FusionAhrsUpdate+0x474>)
  4029c0:	ee17 2a10 	vmov	r2, s14
  4029c4:	eba3 0362 	sub.w	r3, r3, r2, asr #1
  4029c8:	ee05 3a10 	vmov	s10, r3
  4029cc:	eddf 6a12 	vldr	s13, [pc, #72]	; 402a18 <FusionAhrsUpdate+0x478>
  4029d0:	ee27 7a26 	vmul.f32	s14, s14, s13
  4029d4:	ee27 7a05 	vmul.f32	s14, s14, s10
  4029d8:	ee27 7a05 	vmul.f32	s14, s14, s10
  4029dc:	eddf 6a0f 	vldr	s13, [pc, #60]	; 402a1c <FusionAhrsUpdate+0x47c>
  4029e0:	ee36 7ac7 	vsub.f32	s14, s13, s14
  4029e4:	ee27 7a05 	vmul.f32	s14, s14, s10
  4029e8:	ee67 5a25 	vmul.f32	s11, s14, s11
  4029ec:	edc4 5a04 	vstr	s11, [r4, #16]
  4029f0:	ee67 6a24 	vmul.f32	s13, s14, s9
  4029f4:	edc4 6a05 	vstr	s13, [r4, #20]
  4029f8:	ee27 6a06 	vmul.f32	s12, s14, s12
  4029fc:	ed84 6a06 	vstr	s12, [r4, #24]
  402a00:	ee27 7a27 	vmul.f32	s14, s14, s15
  402a04:	ed84 7a07 	vstr	s14, [r4, #28]
  402a08:	b00e      	add	sp, #56	; 0x38
  402a0a:	ecbd 8b0a 	vpop	{d8-d12}
  402a0e:	bd70      	pop	{r4, r5, r6, pc}
  402a10:	00000000 	.word	0x00000000
  402a14:	5f1f1412 	.word	0x5f1f1412
  402a18:	3f36d312 	.word	0x3f36d312
  402a1c:	3fd851ff 	.word	0x3fd851ff
  402a20:	00402341 	.word	0x00402341
  402a24:	3c0efa35 	.word	0x3c0efa35
  402a28:	ed8d ba0b 	vstr	s22, [sp, #44]	; 0x2c
  402a2c:	edcd aa0c 	vstr	s21, [sp, #48]	; 0x30
  402a30:	edcd 9a0d 	vstr	s19, [sp, #52]	; 0x34
  402a34:	ab20      	add	r3, sp, #128	; 0x80
  402a36:	e893 0003 	ldmia.w	r3, {r0, r1}
  402a3a:	e88d 0003 	stmia.w	sp, {r0, r1}
  402a3e:	9b1f      	ldr	r3, [sp, #124]	; 0x7c
  402a40:	aa0e      	add	r2, sp, #56	; 0x38
  402a42:	e912 0007 	ldmdb	r2, {r0, r1, r2}
  402a46:	4d0b      	ldr	r5, [pc, #44]	; (402a74 <FusionAhrsUpdate+0x4d4>)
  402a48:	47a8      	blx	r5
  402a4a:	4601      	mov	r1, r0
  402a4c:	4620      	mov	r0, r4
  402a4e:	4b0a      	ldr	r3, [pc, #40]	; (402a78 <FusionAhrsUpdate+0x4d8>)
  402a50:	4798      	blx	r3
  402a52:	2300      	movs	r3, #0
  402a54:	65e3      	str	r3, [r4, #92]	; 0x5c
  402a56:	2301      	movs	r3, #1
  402a58:	f884 3060 	strb.w	r3, [r4, #96]	; 0x60
  402a5c:	e6b7      	b.n	4027ce <FusionAhrsUpdate+0x22e>
  402a5e:	6de3      	ldr	r3, [r4, #92]	; 0x5c
  402a60:	3301      	adds	r3, #1
  402a62:	65e3      	str	r3, [r4, #92]	; 0x5c
  402a64:	eddf 9a05 	vldr	s19, [pc, #20]	; 402a7c <FusionAhrsUpdate+0x4dc>
  402a68:	eef0 6a69 	vmov.f32	s13, s19
  402a6c:	eeb0 7a69 	vmov.f32	s14, s19
  402a70:	e737      	b.n	4028e2 <FusionAhrsUpdate+0x342>
  402a72:	bf00      	nop
  402a74:	00402add 	.word	0x00402add
  402a78:	00402489 	.word	0x00402489
  402a7c:	00000000 	.word	0x00000000

00402a80 <FusionAhrsUpdateNoMagnetometer>:
  402a80:	b530      	push	{r4, r5, lr}
  402a82:	b091      	sub	sp, #68	; 0x44
  402a84:	4605      	mov	r5, r0
  402a86:	ac09      	add	r4, sp, #36	; 0x24
  402a88:	e884 000e 	stmia.w	r4, {r1, r2, r3}
  402a8c:	2300      	movs	r3, #0
  402a8e:	930d      	str	r3, [sp, #52]	; 0x34
  402a90:	930e      	str	r3, [sp, #56]	; 0x38
  402a92:	930f      	str	r3, [sp, #60]	; 0x3c
  402a94:	9b17      	ldr	r3, [sp, #92]	; 0x5c
  402a96:	9306      	str	r3, [sp, #24]
  402a98:	ab03      	add	r3, sp, #12
  402a9a:	aa10      	add	r2, sp, #64	; 0x40
  402a9c:	e912 0007 	ldmdb	r2, {r0, r1, r2}
  402aa0:	e883 0007 	stmia.w	r3, {r0, r1, r2}
  402aa4:	ab14      	add	r3, sp, #80	; 0x50
  402aa6:	e893 0007 	ldmia.w	r3, {r0, r1, r2}
  402aaa:	e88d 0007 	stmia.w	sp, {r0, r1, r2}
  402aae:	e894 000e 	ldmia.w	r4, {r1, r2, r3}
  402ab2:	4628      	mov	r0, r5
  402ab4:	4c07      	ldr	r4, [pc, #28]	; (402ad4 <FusionAhrsUpdateNoMagnetometer+0x54>)
  402ab6:	47a0      	blx	r4
  402ab8:	f895 302c 	ldrb.w	r3, [r5, #44]	; 0x2c
  402abc:	b113      	cbz	r3, 402ac4 <FusionAhrsUpdateNoMagnetometer+0x44>
  402abe:	f895 3058 	ldrb.w	r3, [r5, #88]	; 0x58
  402ac2:	b10b      	cbz	r3, 402ac8 <FusionAhrsUpdateNoMagnetometer+0x48>
  402ac4:	b011      	add	sp, #68	; 0x44
  402ac6:	bd30      	pop	{r4, r5, pc}
  402ac8:	2100      	movs	r1, #0
  402aca:	4628      	mov	r0, r5
  402acc:	4b02      	ldr	r3, [pc, #8]	; (402ad8 <FusionAhrsUpdateNoMagnetometer+0x58>)
  402ace:	4798      	blx	r3
  402ad0:	e7f8      	b.n	402ac4 <FusionAhrsUpdateNoMagnetometer+0x44>
  402ad2:	bf00      	nop
  402ad4:	004025a1 	.word	0x004025a1
  402ad8:	00402489 	.word	0x00402489

00402adc <FusionCompassCalculateHeading>:
  402adc:	b082      	sub	sp, #8
  402ade:	b500      	push	{lr}
  402ae0:	b085      	sub	sp, #20
  402ae2:	f10d 0e10 	add.w	lr, sp, #16
  402ae6:	e90e 0007 	stmdb	lr, {r0, r1, r2}
  402aea:	9307      	str	r3, [sp, #28]
  402aec:	eddd 3a01 	vldr	s7, [sp, #4]
  402af0:	eddd 6a02 	vldr	s13, [sp, #8]
  402af4:	ed9d 4a03 	vldr	s8, [sp, #12]
  402af8:	eddd 7a07 	vldr	s15, [sp, #28]
  402afc:	ed9d 5a08 	vldr	s10, [sp, #32]
  402b00:	ed9d 6a09 	vldr	s12, [sp, #36]	; 0x24
  402b04:	ee66 5a26 	vmul.f32	s11, s12, s13
  402b08:	ee24 7a05 	vmul.f32	s14, s8, s10
  402b0c:	ee75 5ac7 	vsub.f32	s11, s11, s14
  402b10:	ee24 7a27 	vmul.f32	s14, s8, s15
  402b14:	ee26 6a23 	vmul.f32	s12, s12, s7
  402b18:	ee37 6a46 	vsub.f32	s12, s14, s12
  402b1c:	ee25 5a23 	vmul.f32	s10, s10, s7
  402b20:	ee67 7aa6 	vmul.f32	s15, s15, s13
  402b24:	ee35 5a67 	vsub.f32	s10, s10, s15
  402b28:	ee25 7aa5 	vmul.f32	s14, s11, s11
  402b2c:	ee66 7a06 	vmul.f32	s15, s12, s12
  402b30:	ee37 7a27 	vadd.f32	s14, s14, s15
  402b34:	ee65 7a05 	vmul.f32	s15, s10, s10
  402b38:	ee37 7a27 	vadd.f32	s14, s14, s15
  402b3c:	4b2d      	ldr	r3, [pc, #180]	; (402bf4 <FusionCompassCalculateHeading+0x118>)
  402b3e:	ee17 2a10 	vmov	r2, s14
  402b42:	eba3 0262 	sub.w	r2, r3, r2, asr #1
  402b46:	ee03 2a10 	vmov	s6, r2
  402b4a:	eddf 2a2b 	vldr	s5, [pc, #172]	; 402bf8 <FusionCompassCalculateHeading+0x11c>
  402b4e:	ee27 7a22 	vmul.f32	s14, s14, s5
  402b52:	ee27 7a03 	vmul.f32	s14, s14, s6
  402b56:	ee27 7a03 	vmul.f32	s14, s14, s6
  402b5a:	eddf 4a28 	vldr	s9, [pc, #160]	; 402bfc <FusionCompassCalculateHeading+0x120>
  402b5e:	ee34 7ac7 	vsub.f32	s14, s9, s14
  402b62:	ee67 7a03 	vmul.f32	s15, s14, s6
  402b66:	ee67 5aa5 	vmul.f32	s11, s15, s11
  402b6a:	ee27 6a86 	vmul.f32	s12, s15, s12
  402b6e:	ee67 7a85 	vmul.f32	s15, s15, s10
  402b72:	ee24 5a06 	vmul.f32	s10, s8, s12
  402b76:	ee26 7aa7 	vmul.f32	s14, s13, s15
  402b7a:	ee35 5a47 	vsub.f32	s10, s10, s14
  402b7e:	ee67 7aa3 	vmul.f32	s15, s15, s7
  402b82:	ee24 4a25 	vmul.f32	s8, s8, s11
  402b86:	ee77 7ac4 	vsub.f32	s15, s15, s8
  402b8a:	ee66 6aa5 	vmul.f32	s13, s13, s11
  402b8e:	ee26 6a23 	vmul.f32	s12, s12, s7
  402b92:	ee76 6ac6 	vsub.f32	s13, s13, s12
  402b96:	ee25 7a05 	vmul.f32	s14, s10, s10
  402b9a:	ee67 7aa7 	vmul.f32	s15, s15, s15
  402b9e:	ee77 7a27 	vadd.f32	s15, s14, s15
  402ba2:	ee66 6aa6 	vmul.f32	s13, s13, s13
  402ba6:	ee77 7aa6 	vadd.f32	s15, s15, s13
  402baa:	ee17 2a90 	vmov	r2, s15
  402bae:	eba3 0362 	sub.w	r3, r3, r2, asr #1
  402bb2:	ee07 3a10 	vmov	s14, r3
  402bb6:	ee67 7aa2 	vmul.f32	s15, s15, s5
  402bba:	ee67 7a87 	vmul.f32	s15, s15, s14
  402bbe:	ee67 7a87 	vmul.f32	s15, s15, s14
  402bc2:	ee74 7ae7 	vsub.f32	s15, s9, s15
  402bc6:	ee67 7a87 	vmul.f32	s15, s15, s14
  402bca:	ee67 7a85 	vmul.f32	s15, s15, s10
  402bce:	ee17 1a90 	vmov	r1, s15
  402bd2:	ee15 0a90 	vmov	r0, s11
  402bd6:	4b0a      	ldr	r3, [pc, #40]	; (402c00 <FusionCompassCalculateHeading+0x124>)
  402bd8:	4798      	blx	r3
  402bda:	eddf 7a0a 	vldr	s15, [pc, #40]	; 402c04 <FusionCompassCalculateHeading+0x128>
  402bde:	ee07 0a10 	vmov	s14, r0
  402be2:	ee67 7a27 	vmul.f32	s15, s14, s15
  402be6:	ee17 0a90 	vmov	r0, s15
  402bea:	b005      	add	sp, #20
  402bec:	f85d eb04 	ldr.w	lr, [sp], #4
  402bf0:	b002      	add	sp, #8
  402bf2:	4770      	bx	lr
  402bf4:	5f1f1412 	.word	0x5f1f1412
  402bf8:	3f36d312 	.word	0x3f36d312
  402bfc:	3fd851ff 	.word	0x3fd851ff
  402c00:	00404ad5 	.word	0x00404ad5
  402c04:	42652ee0 	.word	0x42652ee0

00402c08 <gfx_mono_set_framebuffer>:
  402c08:	4b01      	ldr	r3, [pc, #4]	; (402c10 <gfx_mono_set_framebuffer+0x8>)
  402c0a:	6018      	str	r0, [r3, #0]
  402c0c:	4770      	bx	lr
  402c0e:	bf00      	nop
  402c10:	2040c344 	.word	0x2040c344

00402c14 <gfx_mono_framebuffer_put_byte>:
  402c14:	4b02      	ldr	r3, [pc, #8]	; (402c20 <gfx_mono_framebuffer_put_byte+0xc>)
  402c16:	681b      	ldr	r3, [r3, #0]
  402c18:	eb03 10c0 	add.w	r0, r3, r0, lsl #7
  402c1c:	5442      	strb	r2, [r0, r1]
  402c1e:	4770      	bx	lr
  402c20:	2040c344 	.word	0x2040c344

00402c24 <gfx_mono_framebuffer_get_byte>:
  402c24:	4b02      	ldr	r3, [pc, #8]	; (402c30 <gfx_mono_framebuffer_get_byte+0xc>)
  402c26:	681b      	ldr	r3, [r3, #0]
  402c28:	eb03 10c0 	add.w	r0, r3, r0, lsl #7
  402c2c:	5c40      	ldrb	r0, [r0, r1]
  402c2e:	4770      	bx	lr
  402c30:	2040c344 	.word	0x2040c344

00402c34 <gfx_mono_generic_draw_horizontal_line>:
  402c34:	e92d 47f0 	stmdb	sp!, {r4, r5, r6, r7, r8, r9, sl, lr}
  402c38:	1884      	adds	r4, r0, r2
  402c3a:	2c80      	cmp	r4, #128	; 0x80
  402c3c:	dd02      	ble.n	402c44 <gfx_mono_generic_draw_horizontal_line+0x10>
  402c3e:	f1c0 0480 	rsb	r4, r0, #128	; 0x80
  402c42:	b2e2      	uxtb	r2, r4
  402c44:	b322      	cbz	r2, 402c90 <gfx_mono_generic_draw_horizontal_line+0x5c>
  402c46:	08cd      	lsrs	r5, r1, #3
  402c48:	eba1 01c5 	sub.w	r1, r1, r5, lsl #3
  402c4c:	2601      	movs	r6, #1
  402c4e:	fa06 f101 	lsl.w	r1, r6, r1
  402c52:	b2ce      	uxtb	r6, r1
  402c54:	2b01      	cmp	r3, #1
  402c56:	d01d      	beq.n	402c94 <gfx_mono_generic_draw_horizontal_line+0x60>
  402c58:	2b00      	cmp	r3, #0
  402c5a:	d035      	beq.n	402cc8 <gfx_mono_generic_draw_horizontal_line+0x94>
  402c5c:	2b02      	cmp	r3, #2
  402c5e:	d117      	bne.n	402c90 <gfx_mono_generic_draw_horizontal_line+0x5c>
  402c60:	3801      	subs	r0, #1
  402c62:	b2c7      	uxtb	r7, r0
  402c64:	19d4      	adds	r4, r2, r7
  402c66:	b2e4      	uxtb	r4, r4
  402c68:	f8df a090 	ldr.w	sl, [pc, #144]	; 402cfc <gfx_mono_generic_draw_horizontal_line+0xc8>
  402c6c:	f04f 0900 	mov.w	r9, #0
  402c70:	f8df 808c 	ldr.w	r8, [pc, #140]	; 402d00 <gfx_mono_generic_draw_horizontal_line+0xcc>
  402c74:	4621      	mov	r1, r4
  402c76:	4628      	mov	r0, r5
  402c78:	47d0      	blx	sl
  402c7a:	ea86 0200 	eor.w	r2, r6, r0
  402c7e:	464b      	mov	r3, r9
  402c80:	b2d2      	uxtb	r2, r2
  402c82:	4621      	mov	r1, r4
  402c84:	4628      	mov	r0, r5
  402c86:	47c0      	blx	r8
  402c88:	3c01      	subs	r4, #1
  402c8a:	b2e4      	uxtb	r4, r4
  402c8c:	42bc      	cmp	r4, r7
  402c8e:	d1f1      	bne.n	402c74 <gfx_mono_generic_draw_horizontal_line+0x40>
  402c90:	e8bd 87f0 	ldmia.w	sp!, {r4, r5, r6, r7, r8, r9, sl, pc}
  402c94:	3801      	subs	r0, #1
  402c96:	b2c7      	uxtb	r7, r0
  402c98:	19d4      	adds	r4, r2, r7
  402c9a:	b2e4      	uxtb	r4, r4
  402c9c:	f8df a05c 	ldr.w	sl, [pc, #92]	; 402cfc <gfx_mono_generic_draw_horizontal_line+0xc8>
  402ca0:	f04f 0900 	mov.w	r9, #0
  402ca4:	f8df 8058 	ldr.w	r8, [pc, #88]	; 402d00 <gfx_mono_generic_draw_horizontal_line+0xcc>
  402ca8:	4621      	mov	r1, r4
  402caa:	4628      	mov	r0, r5
  402cac:	47d0      	blx	sl
  402cae:	ea46 0200 	orr.w	r2, r6, r0
  402cb2:	464b      	mov	r3, r9
  402cb4:	b2d2      	uxtb	r2, r2
  402cb6:	4621      	mov	r1, r4
  402cb8:	4628      	mov	r0, r5
  402cba:	47c0      	blx	r8
  402cbc:	3c01      	subs	r4, #1
  402cbe:	b2e4      	uxtb	r4, r4
  402cc0:	42bc      	cmp	r4, r7
  402cc2:	d1f1      	bne.n	402ca8 <gfx_mono_generic_draw_horizontal_line+0x74>
  402cc4:	e8bd 87f0 	ldmia.w	sp!, {r4, r5, r6, r7, r8, r9, sl, pc}
  402cc8:	3801      	subs	r0, #1
  402cca:	b2c7      	uxtb	r7, r0
  402ccc:	19d4      	adds	r4, r2, r7
  402cce:	b2e4      	uxtb	r4, r4
  402cd0:	f8df 8028 	ldr.w	r8, [pc, #40]	; 402cfc <gfx_mono_generic_draw_horizontal_line+0xc8>
  402cd4:	43ce      	mvns	r6, r1
  402cd6:	f8df 9028 	ldr.w	r9, [pc, #40]	; 402d00 <gfx_mono_generic_draw_horizontal_line+0xcc>
  402cda:	4621      	mov	r1, r4
  402cdc:	4628      	mov	r0, r5
  402cde:	47c0      	blx	r8
  402ce0:	ea06 0200 	and.w	r2, r6, r0
  402ce4:	2300      	movs	r3, #0
  402ce6:	b2d2      	uxtb	r2, r2
  402ce8:	4621      	mov	r1, r4
  402cea:	4628      	mov	r0, r5
  402cec:	47c8      	blx	r9
  402cee:	3c01      	subs	r4, #1
  402cf0:	b2e4      	uxtb	r4, r4
  402cf2:	42bc      	cmp	r4, r7
  402cf4:	d1f1      	bne.n	402cda <gfx_mono_generic_draw_horizontal_line+0xa6>
  402cf6:	e8bd 87f0 	ldmia.w	sp!, {r4, r5, r6, r7, r8, r9, sl, pc}
  402cfa:	bf00      	nop
  402cfc:	00402f35 	.word	0x00402f35
  402d00:	00402e31 	.word	0x00402e31

00402d04 <gfx_mono_generic_draw_filled_rect>:
  402d04:	e92d 43f8 	stmdb	sp!, {r3, r4, r5, r6, r7, r8, r9, lr}
  402d08:	f89d 7020 	ldrb.w	r7, [sp, #32]
  402d0c:	b18b      	cbz	r3, 402d32 <gfx_mono_generic_draw_filled_rect+0x2e>
  402d0e:	461c      	mov	r4, r3
  402d10:	4690      	mov	r8, r2
  402d12:	4606      	mov	r6, r0
  402d14:	1e4d      	subs	r5, r1, #1
  402d16:	b2ed      	uxtb	r5, r5
  402d18:	442c      	add	r4, r5
  402d1a:	b2e4      	uxtb	r4, r4
  402d1c:	f8df 9018 	ldr.w	r9, [pc, #24]	; 402d38 <gfx_mono_generic_draw_filled_rect+0x34>
  402d20:	463b      	mov	r3, r7
  402d22:	4642      	mov	r2, r8
  402d24:	4621      	mov	r1, r4
  402d26:	4630      	mov	r0, r6
  402d28:	47c8      	blx	r9
  402d2a:	3c01      	subs	r4, #1
  402d2c:	b2e4      	uxtb	r4, r4
  402d2e:	42ac      	cmp	r4, r5
  402d30:	d1f6      	bne.n	402d20 <gfx_mono_generic_draw_filled_rect+0x1c>
  402d32:	e8bd 83f8 	ldmia.w	sp!, {r3, r4, r5, r6, r7, r8, r9, pc}
  402d36:	bf00      	nop
  402d38:	00402c35 	.word	0x00402c35

00402d3c <gfx_mono_draw_char>:
  402d3c:	e92d 4ff0 	stmdb	sp!, {r4, r5, r6, r7, r8, r9, sl, fp, lr}
  402d40:	b083      	sub	sp, #12
  402d42:	4604      	mov	r4, r0
  402d44:	4688      	mov	r8, r1
  402d46:	4691      	mov	r9, r2
  402d48:	469b      	mov	fp, r3
  402d4a:	7a5b      	ldrb	r3, [r3, #9]
  402d4c:	f89b 2008 	ldrb.w	r2, [fp, #8]
  402d50:	2100      	movs	r1, #0
  402d52:	9100      	str	r1, [sp, #0]
  402d54:	4649      	mov	r1, r9
  402d56:	4640      	mov	r0, r8
  402d58:	4d21      	ldr	r5, [pc, #132]	; (402de0 <gfx_mono_draw_char+0xa4>)
  402d5a:	47a8      	blx	r5
  402d5c:	f89b 3000 	ldrb.w	r3, [fp]
  402d60:	b113      	cbz	r3, 402d68 <gfx_mono_draw_char+0x2c>
  402d62:	b003      	add	sp, #12
  402d64:	e8bd 8ff0 	ldmia.w	sp!, {r4, r5, r6, r7, r8, r9, sl, fp, pc}
  402d68:	f89b 2008 	ldrb.w	r2, [fp, #8]
  402d6c:	08d3      	lsrs	r3, r2, #3
  402d6e:	f012 0f07 	tst.w	r2, #7
  402d72:	bf18      	it	ne
  402d74:	3301      	addne	r3, #1
  402d76:	f89b a009 	ldrb.w	sl, [fp, #9]
  402d7a:	f89b 700a 	ldrb.w	r7, [fp, #10]
  402d7e:	1be7      	subs	r7, r4, r7
  402d80:	fb17 f70a 	smulbb	r7, r7, sl
  402d84:	fb17 f703 	smulbb	r7, r7, r3
  402d88:	f8db 3004 	ldr.w	r3, [fp, #4]
  402d8c:	fa13 f787 	uxtah	r7, r3, r7
  402d90:	e01f      	b.n	402dd2 <gfx_mono_draw_char+0x96>
  402d92:	0064      	lsls	r4, r4, #1
  402d94:	b2e4      	uxtb	r4, r4
  402d96:	3501      	adds	r5, #1
  402d98:	b2eb      	uxtb	r3, r5
  402d9a:	429e      	cmp	r6, r3
  402d9c:	d910      	bls.n	402dc0 <gfx_mono_draw_char+0x84>
  402d9e:	b2eb      	uxtb	r3, r5
  402da0:	eb08 0003 	add.w	r0, r8, r3
  402da4:	b2c0      	uxtb	r0, r0
  402da6:	f013 0f07 	tst.w	r3, #7
  402daa:	bf08      	it	eq
  402dac:	f817 4b01 	ldrbeq.w	r4, [r7], #1
  402db0:	f014 0f80 	tst.w	r4, #128	; 0x80
  402db4:	d0ed      	beq.n	402d92 <gfx_mono_draw_char+0x56>
  402db6:	2201      	movs	r2, #1
  402db8:	4649      	mov	r1, r9
  402dba:	4b0a      	ldr	r3, [pc, #40]	; (402de4 <gfx_mono_draw_char+0xa8>)
  402dbc:	4798      	blx	r3
  402dbe:	e7e8      	b.n	402d92 <gfx_mono_draw_char+0x56>
  402dc0:	f109 0901 	add.w	r9, r9, #1
  402dc4:	fa5f f989 	uxtb.w	r9, r9
  402dc8:	f10a 3aff 	add.w	sl, sl, #4294967295
  402dcc:	f01a 0aff 	ands.w	sl, sl, #255	; 0xff
  402dd0:	d0c7      	beq.n	402d62 <gfx_mono_draw_char+0x26>
  402dd2:	f89b 6008 	ldrb.w	r6, [fp, #8]
  402dd6:	2e00      	cmp	r6, #0
  402dd8:	d0f2      	beq.n	402dc0 <gfx_mono_draw_char+0x84>
  402dda:	2500      	movs	r5, #0
  402ddc:	462c      	mov	r4, r5
  402dde:	e7de      	b.n	402d9e <gfx_mono_draw_char+0x62>
  402de0:	00402d05 	.word	0x00402d05
  402de4:	00402ed1 	.word	0x00402ed1

00402de8 <gfx_mono_draw_string>:
  402de8:	e92d 43f8 	stmdb	sp!, {r3, r4, r5, r6, r7, r8, r9, lr}
  402dec:	4604      	mov	r4, r0
  402dee:	4690      	mov	r8, r2
  402df0:	461d      	mov	r5, r3
  402df2:	4689      	mov	r9, r1
  402df4:	4f0d      	ldr	r7, [pc, #52]	; (402e2c <gfx_mono_draw_string+0x44>)
  402df6:	460e      	mov	r6, r1
  402df8:	e008      	b.n	402e0c <gfx_mono_draw_string+0x24>
  402dfa:	7a6a      	ldrb	r2, [r5, #9]
  402dfc:	3201      	adds	r2, #1
  402dfe:	4442      	add	r2, r8
  402e00:	fa5f f882 	uxtb.w	r8, r2
  402e04:	46b1      	mov	r9, r6
  402e06:	f814 3f01 	ldrb.w	r3, [r4, #1]!
  402e0a:	b16b      	cbz	r3, 402e28 <gfx_mono_draw_string+0x40>
  402e0c:	7820      	ldrb	r0, [r4, #0]
  402e0e:	280a      	cmp	r0, #10
  402e10:	d0f3      	beq.n	402dfa <gfx_mono_draw_string+0x12>
  402e12:	280d      	cmp	r0, #13
  402e14:	d0f7      	beq.n	402e06 <gfx_mono_draw_string+0x1e>
  402e16:	462b      	mov	r3, r5
  402e18:	4642      	mov	r2, r8
  402e1a:	4649      	mov	r1, r9
  402e1c:	47b8      	blx	r7
  402e1e:	7a2b      	ldrb	r3, [r5, #8]
  402e20:	4499      	add	r9, r3
  402e22:	fa5f f989 	uxtb.w	r9, r9
  402e26:	e7ee      	b.n	402e06 <gfx_mono_draw_string+0x1e>
  402e28:	e8bd 83f8 	ldmia.w	sp!, {r3, r4, r5, r6, r7, r8, r9, pc}
  402e2c:	00402d3d 	.word	0x00402d3d

00402e30 <gfx_mono_ssd1306_put_byte>:
  402e30:	b570      	push	{r4, r5, r6, lr}
  402e32:	4604      	mov	r4, r0
  402e34:	460d      	mov	r5, r1
  402e36:	4616      	mov	r6, r2
  402e38:	b91b      	cbnz	r3, 402e42 <gfx_mono_ssd1306_put_byte+0x12>
  402e3a:	4b0d      	ldr	r3, [pc, #52]	; (402e70 <gfx_mono_ssd1306_put_byte+0x40>)
  402e3c:	4798      	blx	r3
  402e3e:	42b0      	cmp	r0, r6
  402e40:	d015      	beq.n	402e6e <gfx_mono_ssd1306_put_byte+0x3e>
  402e42:	4632      	mov	r2, r6
  402e44:	4629      	mov	r1, r5
  402e46:	4620      	mov	r0, r4
  402e48:	4b0a      	ldr	r3, [pc, #40]	; (402e74 <gfx_mono_ssd1306_put_byte+0x44>)
  402e4a:	4798      	blx	r3
  402e4c:	f004 000f 	and.w	r0, r4, #15
  402e50:	f040 00b0 	orr.w	r0, r0, #176	; 0xb0
  402e54:	4c08      	ldr	r4, [pc, #32]	; (402e78 <gfx_mono_ssd1306_put_byte+0x48>)
  402e56:	47a0      	blx	r4
  402e58:	f3c5 1002 	ubfx	r0, r5, #4, #3
  402e5c:	f040 0010 	orr.w	r0, r0, #16
  402e60:	47a0      	blx	r4
  402e62:	f005 000f 	and.w	r0, r5, #15
  402e66:	47a0      	blx	r4
  402e68:	4630      	mov	r0, r6
  402e6a:	4b04      	ldr	r3, [pc, #16]	; (402e7c <gfx_mono_ssd1306_put_byte+0x4c>)
  402e6c:	4798      	blx	r3
  402e6e:	bd70      	pop	{r4, r5, r6, pc}
  402e70:	00402c25 	.word	0x00402c25
  402e74:	00402c15 	.word	0x00402c15
  402e78:	00402f41 	.word	0x00402f41
  402e7c:	00403161 	.word	0x00403161

00402e80 <gfx_mono_ssd1306_init>:
  402e80:	e92d 41f0 	stmdb	sp!, {r4, r5, r6, r7, r8, lr}
  402e84:	480d      	ldr	r0, [pc, #52]	; (402ebc <gfx_mono_ssd1306_init+0x3c>)
  402e86:	4b0e      	ldr	r3, [pc, #56]	; (402ec0 <gfx_mono_ssd1306_init+0x40>)
  402e88:	4798      	blx	r3
  402e8a:	4b0e      	ldr	r3, [pc, #56]	; (402ec4 <gfx_mono_ssd1306_init+0x44>)
  402e8c:	4798      	blx	r3
  402e8e:	2040      	movs	r0, #64	; 0x40
  402e90:	4b0d      	ldr	r3, [pc, #52]	; (402ec8 <gfx_mono_ssd1306_init+0x48>)
  402e92:	4798      	blx	r3
  402e94:	2500      	movs	r5, #0
  402e96:	f04f 0801 	mov.w	r8, #1
  402e9a:	462f      	mov	r7, r5
  402e9c:	4e0b      	ldr	r6, [pc, #44]	; (402ecc <gfx_mono_ssd1306_init+0x4c>)
  402e9e:	2400      	movs	r4, #0
  402ea0:	4643      	mov	r3, r8
  402ea2:	463a      	mov	r2, r7
  402ea4:	b2e1      	uxtb	r1, r4
  402ea6:	4628      	mov	r0, r5
  402ea8:	47b0      	blx	r6
  402eaa:	3401      	adds	r4, #1
  402eac:	2c80      	cmp	r4, #128	; 0x80
  402eae:	d1f7      	bne.n	402ea0 <gfx_mono_ssd1306_init+0x20>
  402eb0:	3501      	adds	r5, #1
  402eb2:	b2ed      	uxtb	r5, r5
  402eb4:	2d04      	cmp	r5, #4
  402eb6:	d1f2      	bne.n	402e9e <gfx_mono_ssd1306_init+0x1e>
  402eb8:	e8bd 81f0 	ldmia.w	sp!, {r4, r5, r6, r7, r8, pc}
  402ebc:	2040c348 	.word	0x2040c348
  402ec0:	00402c09 	.word	0x00402c09
  402ec4:	00402f81 	.word	0x00402f81
  402ec8:	00402f41 	.word	0x00402f41
  402ecc:	00402e31 	.word	0x00402e31

00402ed0 <gfx_mono_ssd1306_draw_pixel>:
  402ed0:	09c3      	lsrs	r3, r0, #7
  402ed2:	d12a      	bne.n	402f2a <gfx_mono_ssd1306_draw_pixel+0x5a>
  402ed4:	291f      	cmp	r1, #31
  402ed6:	d828      	bhi.n	402f2a <gfx_mono_ssd1306_draw_pixel+0x5a>
  402ed8:	e92d 41f0 	stmdb	sp!, {r4, r5, r6, r7, r8, lr}
  402edc:	4614      	mov	r4, r2
  402ede:	4605      	mov	r5, r0
  402ee0:	08ce      	lsrs	r6, r1, #3
  402ee2:	eba1 01c6 	sub.w	r1, r1, r6, lsl #3
  402ee6:	2201      	movs	r2, #1
  402ee8:	fa02 f701 	lsl.w	r7, r2, r1
  402eec:	fa5f f887 	uxtb.w	r8, r7
  402ef0:	4601      	mov	r1, r0
  402ef2:	4630      	mov	r0, r6
  402ef4:	4b0d      	ldr	r3, [pc, #52]	; (402f2c <gfx_mono_ssd1306_draw_pixel+0x5c>)
  402ef6:	4798      	blx	r3
  402ef8:	4602      	mov	r2, r0
  402efa:	2c01      	cmp	r4, #1
  402efc:	d009      	beq.n	402f12 <gfx_mono_ssd1306_draw_pixel+0x42>
  402efe:	b164      	cbz	r4, 402f1a <gfx_mono_ssd1306_draw_pixel+0x4a>
  402f00:	2c02      	cmp	r4, #2
  402f02:	d00e      	beq.n	402f22 <gfx_mono_ssd1306_draw_pixel+0x52>
  402f04:	2300      	movs	r3, #0
  402f06:	4629      	mov	r1, r5
  402f08:	4630      	mov	r0, r6
  402f0a:	4c09      	ldr	r4, [pc, #36]	; (402f30 <gfx_mono_ssd1306_draw_pixel+0x60>)
  402f0c:	47a0      	blx	r4
  402f0e:	e8bd 81f0 	ldmia.w	sp!, {r4, r5, r6, r7, r8, pc}
  402f12:	ea48 0200 	orr.w	r2, r8, r0
  402f16:	b2d2      	uxtb	r2, r2
  402f18:	e7f4      	b.n	402f04 <gfx_mono_ssd1306_draw_pixel+0x34>
  402f1a:	ea20 0207 	bic.w	r2, r0, r7
  402f1e:	b2d2      	uxtb	r2, r2
  402f20:	e7f0      	b.n	402f04 <gfx_mono_ssd1306_draw_pixel+0x34>
  402f22:	ea88 0200 	eor.w	r2, r8, r0
  402f26:	b2d2      	uxtb	r2, r2
  402f28:	e7ec      	b.n	402f04 <gfx_mono_ssd1306_draw_pixel+0x34>
  402f2a:	4770      	bx	lr
  402f2c:	00402c25 	.word	0x00402c25
  402f30:	00402e31 	.word	0x00402e31

00402f34 <gfx_mono_ssd1306_get_byte>:
  402f34:	b508      	push	{r3, lr}
  402f36:	4b01      	ldr	r3, [pc, #4]	; (402f3c <gfx_mono_ssd1306_get_byte+0x8>)
  402f38:	4798      	blx	r3
  402f3a:	bd08      	pop	{r3, pc}
  402f3c:	00402c25 	.word	0x00402c25

00402f40 <ssd1306_write_command>:
  402f40:	b538      	push	{r3, r4, r5, lr}
  402f42:	4605      	mov	r5, r0
  402f44:	2208      	movs	r2, #8
  402f46:	4b09      	ldr	r3, [pc, #36]	; (402f6c <ssd1306_write_command+0x2c>)
  402f48:	635a      	str	r2, [r3, #52]	; 0x34
  402f4a:	4c09      	ldr	r4, [pc, #36]	; (402f70 <ssd1306_write_command+0x30>)
  402f4c:	2101      	movs	r1, #1
  402f4e:	4620      	mov	r0, r4
  402f50:	4b08      	ldr	r3, [pc, #32]	; (402f74 <ssd1306_write_command+0x34>)
  402f52:	4798      	blx	r3
  402f54:	2301      	movs	r3, #1
  402f56:	461a      	mov	r2, r3
  402f58:	4629      	mov	r1, r5
  402f5a:	4620      	mov	r0, r4
  402f5c:	4c06      	ldr	r4, [pc, #24]	; (402f78 <ssd1306_write_command+0x38>)
  402f5e:	47a0      	blx	r4
  402f60:	f44f 70fd 	mov.w	r0, #506	; 0x1fa
  402f64:	4b05      	ldr	r3, [pc, #20]	; (402f7c <ssd1306_write_command+0x3c>)
  402f66:	4798      	blx	r3
  402f68:	bd38      	pop	{r3, r4, r5, pc}
  402f6a:	bf00      	nop
  402f6c:	400e1000 	.word	0x400e1000
  402f70:	40008000 	.word	0x40008000
  402f74:	004001d9 	.word	0x004001d9
  402f78:	004001ef 	.word	0x004001ef
  402f7c:	20400001 	.word	0x20400001

00402f80 <ssd1306_init>:
  402f80:	e92d 43f8 	stmdb	sp!, {r3, r4, r5, r6, r7, r8, r9, lr}
  402f84:	4d66      	ldr	r5, [pc, #408]	; (403120 <ssd1306_init+0x1a0>)
  402f86:	f44f 3600 	mov.w	r6, #131072	; 0x20000
  402f8a:	612e      	str	r6, [r5, #16]
  402f8c:	f8c5 60a0 	str.w	r6, [r5, #160]	; 0xa0
  402f90:	4b64      	ldr	r3, [pc, #400]	; (403124 <ssd1306_init+0x1a4>)
  402f92:	2708      	movs	r7, #8
  402f94:	611f      	str	r7, [r3, #16]
  402f96:	f8c3 70a0 	str.w	r7, [r3, #160]	; 0xa0
  402f9a:	666e      	str	r6, [r5, #100]	; 0x64
  402f9c:	f8c5 6090 	str.w	r6, [r5, #144]	; 0x90
  402fa0:	656e      	str	r6, [r5, #84]	; 0x54
  402fa2:	626e      	str	r6, [r5, #36]	; 0x24
  402fa4:	f8c5 6080 	str.w	r6, [r5, #128]	; 0x80
  402fa8:	6f2a      	ldr	r2, [r5, #112]	; 0x70
  402faa:	f422 3200 	bic.w	r2, r2, #131072	; 0x20000
  402fae:	672a      	str	r2, [r5, #112]	; 0x70
  402fb0:	6f6a      	ldr	r2, [r5, #116]	; 0x74
  402fb2:	f422 3200 	bic.w	r2, r2, #131072	; 0x20000
  402fb6:	676a      	str	r2, [r5, #116]	; 0x74
  402fb8:	665f      	str	r7, [r3, #100]	; 0x64
  402fba:	f8c3 7090 	str.w	r7, [r3, #144]	; 0x90
  402fbe:	655f      	str	r7, [r3, #84]	; 0x54
  402fc0:	625f      	str	r7, [r3, #36]	; 0x24
  402fc2:	f8c3 7080 	str.w	r7, [r3, #128]	; 0x80
  402fc6:	6f1a      	ldr	r2, [r3, #112]	; 0x70
  402fc8:	f022 0208 	bic.w	r2, r2, #8
  402fcc:	671a      	str	r2, [r3, #112]	; 0x70
  402fce:	6f5a      	ldr	r2, [r3, #116]	; 0x74
  402fd0:	f022 0208 	bic.w	r2, r2, #8
  402fd4:	675a      	str	r2, [r3, #116]	; 0x74
  402fd6:	601f      	str	r7, [r3, #0]
  402fd8:	602e      	str	r6, [r5, #0]
  402fda:	631f      	str	r7, [r3, #48]	; 0x30
  402fdc:	632e      	str	r6, [r5, #48]	; 0x30
  402fde:	f8df 817c 	ldr.w	r8, [pc, #380]	; 40315c <ssd1306_init+0x1dc>
  402fe2:	2300      	movs	r3, #0
  402fe4:	f44f 0280 	mov.w	r2, #4194304	; 0x400000
  402fe8:	f04f 5180 	mov.w	r1, #268435456	; 0x10000000
  402fec:	4640      	mov	r0, r8
  402fee:	4c4e      	ldr	r4, [pc, #312]	; (403128 <ssd1306_init+0x1a8>)
  402ff0:	47a0      	blx	r4
  402ff2:	2300      	movs	r3, #0
  402ff4:	f44f 1200 	mov.w	r2, #2097152	; 0x200000
  402ff8:	f04f 5180 	mov.w	r1, #268435456	; 0x10000000
  402ffc:	4640      	mov	r0, r8
  402ffe:	47a0      	blx	r4
  403000:	2300      	movs	r3, #0
  403002:	f04f 7200 	mov.w	r2, #33554432	; 0x2000000
  403006:	f04f 5180 	mov.w	r1, #268435456	; 0x10000000
  40300a:	4640      	mov	r0, r8
  40300c:	47a0      	blx	r4
  40300e:	2300      	movs	r3, #0
  403010:	f44f 0280 	mov.w	r2, #4194304	; 0x400000
  403014:	f04f 5180 	mov.w	r1, #268435456	; 0x10000000
  403018:	4640      	mov	r0, r8
  40301a:	47a0      	blx	r4
  40301c:	2300      	movs	r3, #0
  40301e:	f44f 1200 	mov.w	r2, #2097152	; 0x200000
  403022:	f04f 5180 	mov.w	r1, #268435456	; 0x10000000
  403026:	4640      	mov	r0, r8
  403028:	47a0      	blx	r4
  40302a:	2300      	movs	r3, #0
  40302c:	f04f 7200 	mov.w	r2, #33554432	; 0x2000000
  403030:	f04f 5180 	mov.w	r1, #268435456	; 0x10000000
  403034:	4640      	mov	r0, r8
  403036:	47a0      	blx	r4
  403038:	4c3c      	ldr	r4, [pc, #240]	; (40312c <ssd1306_init+0x1ac>)
  40303a:	f04f 0902 	mov.w	r9, #2
  40303e:	f8c4 9000 	str.w	r9, [r4]
  403042:	f04f 0880 	mov.w	r8, #128	; 0x80
  403046:	f8c4 8000 	str.w	r8, [r4]
  40304a:	6863      	ldr	r3, [r4, #4]
  40304c:	f043 0301 	orr.w	r3, r3, #1
  403050:	6063      	str	r3, [r4, #4]
  403052:	463a      	mov	r2, r7
  403054:	2101      	movs	r1, #1
  403056:	4620      	mov	r0, r4
  403058:	4b35      	ldr	r3, [pc, #212]	; (403130 <ssd1306_init+0x1b0>)
  40305a:	4798      	blx	r3
  40305c:	2200      	movs	r2, #0
  40305e:	2101      	movs	r1, #1
  403060:	4620      	mov	r0, r4
  403062:	4b34      	ldr	r3, [pc, #208]	; (403134 <ssd1306_init+0x1b4>)
  403064:	4798      	blx	r3
  403066:	2200      	movs	r2, #0
  403068:	2101      	movs	r1, #1
  40306a:	4620      	mov	r0, r4
  40306c:	4b32      	ldr	r3, [pc, #200]	; (403138 <ssd1306_init+0x1b8>)
  40306e:	4798      	blx	r3
  403070:	6863      	ldr	r3, [r4, #4]
  403072:	f023 0302 	bic.w	r3, r3, #2
  403076:	6063      	str	r3, [r4, #4]
  403078:	2200      	movs	r2, #0
  40307a:	2101      	movs	r1, #1
  40307c:	4620      	mov	r0, r4
  40307e:	4b2f      	ldr	r3, [pc, #188]	; (40313c <ssd1306_init+0x1bc>)
  403080:	4798      	blx	r3
  403082:	6863      	ldr	r3, [r4, #4]
  403084:	f023 0380 	bic.w	r3, r3, #128	; 0x80
  403088:	6063      	str	r3, [r4, #4]
  40308a:	6863      	ldr	r3, [r4, #4]
  40308c:	f043 0310 	orr.w	r3, r3, #16
  403090:	6063      	str	r3, [r4, #4]
  403092:	492b      	ldr	r1, [pc, #172]	; (403140 <ssd1306_init+0x1c0>)
  403094:	482b      	ldr	r0, [pc, #172]	; (403144 <ssd1306_init+0x1c4>)
  403096:	4b2c      	ldr	r3, [pc, #176]	; (403148 <ssd1306_init+0x1c8>)
  403098:	4798      	blx	r3
  40309a:	b2c2      	uxtb	r2, r0
  40309c:	2101      	movs	r1, #1
  40309e:	4620      	mov	r0, r4
  4030a0:	4b2a      	ldr	r3, [pc, #168]	; (40314c <ssd1306_init+0x1cc>)
  4030a2:	4798      	blx	r3
  4030a4:	4620      	mov	r0, r4
  4030a6:	4b2a      	ldr	r3, [pc, #168]	; (403150 <ssd1306_init+0x1d0>)
  4030a8:	4798      	blx	r3
  4030aa:	2301      	movs	r3, #1
  4030ac:	6023      	str	r3, [r4, #0]
  4030ae:	636e      	str	r6, [r5, #52]	; 0x34
  4030b0:	f640 30b8 	movw	r0, #3000	; 0xbb8
  4030b4:	4c27      	ldr	r4, [pc, #156]	; (403154 <ssd1306_init+0x1d4>)
  4030b6:	47a0      	blx	r4
  4030b8:	632e      	str	r6, [r5, #48]	; 0x30
  4030ba:	f640 30b8 	movw	r0, #3000	; 0xbb8
  4030be:	47a0      	blx	r4
  4030c0:	632e      	str	r6, [r5, #48]	; 0x30
  4030c2:	20a8      	movs	r0, #168	; 0xa8
  4030c4:	4c24      	ldr	r4, [pc, #144]	; (403158 <ssd1306_init+0x1d8>)
  4030c6:	47a0      	blx	r4
  4030c8:	201f      	movs	r0, #31
  4030ca:	47a0      	blx	r4
  4030cc:	20d3      	movs	r0, #211	; 0xd3
  4030ce:	47a0      	blx	r4
  4030d0:	2000      	movs	r0, #0
  4030d2:	47a0      	blx	r4
  4030d4:	2040      	movs	r0, #64	; 0x40
  4030d6:	47a0      	blx	r4
  4030d8:	20a1      	movs	r0, #161	; 0xa1
  4030da:	47a0      	blx	r4
  4030dc:	20c8      	movs	r0, #200	; 0xc8
  4030de:	47a0      	blx	r4
  4030e0:	20da      	movs	r0, #218	; 0xda
  4030e2:	47a0      	blx	r4
  4030e4:	4648      	mov	r0, r9
  4030e6:	47a0      	blx	r4
  4030e8:	2081      	movs	r0, #129	; 0x81
  4030ea:	47a0      	blx	r4
  4030ec:	208f      	movs	r0, #143	; 0x8f
  4030ee:	47a0      	blx	r4
  4030f0:	20a4      	movs	r0, #164	; 0xa4
  4030f2:	47a0      	blx	r4
  4030f4:	20a6      	movs	r0, #166	; 0xa6
  4030f6:	47a0      	blx	r4
  4030f8:	20d5      	movs	r0, #213	; 0xd5
  4030fa:	47a0      	blx	r4
  4030fc:	4640      	mov	r0, r8
  4030fe:	47a0      	blx	r4
  403100:	208d      	movs	r0, #141	; 0x8d
  403102:	47a0      	blx	r4
  403104:	2014      	movs	r0, #20
  403106:	47a0      	blx	r4
  403108:	20db      	movs	r0, #219	; 0xdb
  40310a:	47a0      	blx	r4
  40310c:	2040      	movs	r0, #64	; 0x40
  40310e:	47a0      	blx	r4
  403110:	20d9      	movs	r0, #217	; 0xd9
  403112:	47a0      	blx	r4
  403114:	20f1      	movs	r0, #241	; 0xf1
  403116:	47a0      	blx	r4
  403118:	20af      	movs	r0, #175	; 0xaf
  40311a:	47a0      	blx	r4
  40311c:	e8bd 83f8 	ldmia.w	sp!, {r3, r4, r5, r6, r7, r8, r9, pc}
  403120:	400e1200 	.word	0x400e1200
  403124:	400e1000 	.word	0x400e1000
  403128:	0040352d 	.word	0x0040352d
  40312c:	40008000 	.word	0x40008000
  403130:	0040025f 	.word	0x0040025f
  403134:	00400223 	.word	0x00400223
  403138:	00400241 	.word	0x00400241
  40313c:	004002a5 	.word	0x004002a5
  403140:	08f0d180 	.word	0x08f0d180
  403144:	001e8480 	.word	0x001e8480
  403148:	004002b9 	.word	0x004002b9
  40314c:	004002cf 	.word	0x004002cf
  403150:	004001ad 	.word	0x004001ad
  403154:	20400001 	.word	0x20400001
  403158:	00402f41 	.word	0x00402f41
  40315c:	400e1400 	.word	0x400e1400

00403160 <ssd1306_write_data>:
  403160:	b538      	push	{r3, r4, r5, lr}
  403162:	4605      	mov	r5, r0
  403164:	2208      	movs	r2, #8
  403166:	4b09      	ldr	r3, [pc, #36]	; (40318c <ssd1306_write_data+0x2c>)
  403168:	631a      	str	r2, [r3, #48]	; 0x30
  40316a:	4c09      	ldr	r4, [pc, #36]	; (403190 <ssd1306_write_data+0x30>)
  40316c:	2101      	movs	r1, #1
  40316e:	4620      	mov	r0, r4
  403170:	4b08      	ldr	r3, [pc, #32]	; (403194 <ssd1306_write_data+0x34>)
  403172:	4798      	blx	r3
  403174:	2301      	movs	r3, #1
  403176:	461a      	mov	r2, r3
  403178:	4629      	mov	r1, r5
  40317a:	4620      	mov	r0, r4
  40317c:	4c06      	ldr	r4, [pc, #24]	; (403198 <ssd1306_write_data+0x38>)
  40317e:	47a0      	blx	r4
  403180:	f44f 70fd 	mov.w	r0, #506	; 0x1fa
  403184:	4b05      	ldr	r3, [pc, #20]	; (40319c <ssd1306_write_data+0x3c>)
  403186:	4798      	blx	r3
  403188:	bd38      	pop	{r3, r4, r5, pc}
  40318a:	bf00      	nop
  40318c:	400e1000 	.word	0x400e1000
  403190:	40008000 	.word	0x40008000
  403194:	004001d9 	.word	0x004001d9
  403198:	004001ef 	.word	0x004001ef
  40319c:	20400001 	.word	0x20400001

004031a0 <sysclk_init>:
  4031a0:	b510      	push	{r4, lr}
  4031a2:	4810      	ldr	r0, [pc, #64]	; (4031e4 <sysclk_init+0x44>)
  4031a4:	4b10      	ldr	r3, [pc, #64]	; (4031e8 <sysclk_init+0x48>)
  4031a6:	4798      	blx	r3
  4031a8:	213e      	movs	r1, #62	; 0x3e
  4031aa:	2000      	movs	r0, #0
  4031ac:	4b0f      	ldr	r3, [pc, #60]	; (4031ec <sysclk_init+0x4c>)
  4031ae:	4798      	blx	r3
  4031b0:	4c0f      	ldr	r4, [pc, #60]	; (4031f0 <sysclk_init+0x50>)
  4031b2:	47a0      	blx	r4
  4031b4:	2800      	cmp	r0, #0
  4031b6:	d0fc      	beq.n	4031b2 <sysclk_init+0x12>
  4031b8:	4b0e      	ldr	r3, [pc, #56]	; (4031f4 <sysclk_init+0x54>)
  4031ba:	4798      	blx	r3
  4031bc:	4a0e      	ldr	r2, [pc, #56]	; (4031f8 <sysclk_init+0x58>)
  4031be:	4b0f      	ldr	r3, [pc, #60]	; (4031fc <sysclk_init+0x5c>)
  4031c0:	629a      	str	r2, [r3, #40]	; 0x28
  4031c2:	4c0f      	ldr	r4, [pc, #60]	; (403200 <sysclk_init+0x60>)
  4031c4:	47a0      	blx	r4
  4031c6:	2800      	cmp	r0, #0
  4031c8:	d0fc      	beq.n	4031c4 <sysclk_init+0x24>
  4031ca:	2002      	movs	r0, #2
  4031cc:	4b0d      	ldr	r3, [pc, #52]	; (403204 <sysclk_init+0x64>)
  4031ce:	4798      	blx	r3
  4031d0:	2000      	movs	r0, #0
  4031d2:	4b0d      	ldr	r3, [pc, #52]	; (403208 <sysclk_init+0x68>)
  4031d4:	4798      	blx	r3
  4031d6:	4b0d      	ldr	r3, [pc, #52]	; (40320c <sysclk_init+0x6c>)
  4031d8:	4798      	blx	r3
  4031da:	4802      	ldr	r0, [pc, #8]	; (4031e4 <sysclk_init+0x44>)
  4031dc:	4b02      	ldr	r3, [pc, #8]	; (4031e8 <sysclk_init+0x48>)
  4031de:	4798      	blx	r3
  4031e0:	bd10      	pop	{r4, pc}
  4031e2:	bf00      	nop
  4031e4:	11e1a300 	.word	0x11e1a300
  4031e8:	00403af9 	.word	0x00403af9
  4031ec:	00403715 	.word	0x00403715
  4031f0:	00403769 	.word	0x00403769
  4031f4:	00403779 	.word	0x00403779
  4031f8:	20183f01 	.word	0x20183f01
  4031fc:	400e0600 	.word	0x400e0600
  403200:	00403789 	.word	0x00403789
  403204:	00403679 	.word	0x00403679
  403208:	004036b1 	.word	0x004036b1
  40320c:	004039ed 	.word	0x004039ed

00403210 <_read>:
  403210:	e92d 41f0 	stmdb	sp!, {r4, r5, r6, r7, r8, lr}
  403214:	b980      	cbnz	r0, 403238 <_read+0x28>
  403216:	460c      	mov	r4, r1
  403218:	4690      	mov	r8, r2
  40321a:	2a00      	cmp	r2, #0
  40321c:	dd0f      	ble.n	40323e <_read+0x2e>
  40321e:	188f      	adds	r7, r1, r2
  403220:	4e08      	ldr	r6, [pc, #32]	; (403244 <_read+0x34>)
  403222:	4d09      	ldr	r5, [pc, #36]	; (403248 <_read+0x38>)
  403224:	6830      	ldr	r0, [r6, #0]
  403226:	4621      	mov	r1, r4
  403228:	682b      	ldr	r3, [r5, #0]
  40322a:	4798      	blx	r3
  40322c:	3401      	adds	r4, #1
  40322e:	42bc      	cmp	r4, r7
  403230:	d1f8      	bne.n	403224 <_read+0x14>
  403232:	4640      	mov	r0, r8
  403234:	e8bd 81f0 	ldmia.w	sp!, {r4, r5, r6, r7, r8, pc}
  403238:	f04f 38ff 	mov.w	r8, #4294967295
  40323c:	e7f9      	b.n	403232 <_read+0x22>
  40323e:	4680      	mov	r8, r0
  403240:	e7f7      	b.n	403232 <_read+0x22>
  403242:	bf00      	nop
  403244:	2040c63c 	.word	0x2040c63c
  403248:	2040c634 	.word	0x2040c634

0040324c <_write>:
  40324c:	3801      	subs	r0, #1
  40324e:	2802      	cmp	r0, #2
  403250:	d815      	bhi.n	40327e <_write+0x32>
  403252:	e92d 41f0 	stmdb	sp!, {r4, r5, r6, r7, r8, lr}
  403256:	460e      	mov	r6, r1
  403258:	4614      	mov	r4, r2
  40325a:	b19a      	cbz	r2, 403284 <_write+0x38>
  40325c:	460d      	mov	r5, r1
  40325e:	f8df 8038 	ldr.w	r8, [pc, #56]	; 403298 <_write+0x4c>
  403262:	4f0c      	ldr	r7, [pc, #48]	; (403294 <_write+0x48>)
  403264:	f8d8 0000 	ldr.w	r0, [r8]
  403268:	f815 1b01 	ldrb.w	r1, [r5], #1
  40326c:	683b      	ldr	r3, [r7, #0]
  40326e:	4798      	blx	r3
  403270:	2800      	cmp	r0, #0
  403272:	db0a      	blt.n	40328a <_write+0x3e>
  403274:	1ba8      	subs	r0, r5, r6
  403276:	3c01      	subs	r4, #1
  403278:	d1f4      	bne.n	403264 <_write+0x18>
  40327a:	e8bd 81f0 	ldmia.w	sp!, {r4, r5, r6, r7, r8, pc}
  40327e:	f04f 30ff 	mov.w	r0, #4294967295
  403282:	4770      	bx	lr
  403284:	4610      	mov	r0, r2
  403286:	e8bd 81f0 	ldmia.w	sp!, {r4, r5, r6, r7, r8, pc}
  40328a:	f04f 30ff 	mov.w	r0, #4294967295
  40328e:	e8bd 81f0 	ldmia.w	sp!, {r4, r5, r6, r7, r8, pc}
  403292:	bf00      	nop
  403294:	2040c638 	.word	0x2040c638
  403298:	2040c63c 	.word	0x2040c63c

0040329c <board_init>:
  40329c:	b5f8      	push	{r3, r4, r5, r6, r7, lr}
  40329e:	f44f 4200 	mov.w	r2, #32768	; 0x8000
  4032a2:	4b5c      	ldr	r3, [pc, #368]	; (403414 <board_init+0x178>)
  4032a4:	605a      	str	r2, [r3, #4]
  4032a6:	f3bf 8f4f 	dsb	sy
  4032aa:	f3bf 8f6f 	isb	sy
  4032ae:	4b5a      	ldr	r3, [pc, #360]	; (403418 <board_init+0x17c>)
  4032b0:	2200      	movs	r2, #0
  4032b2:	f8c3 2250 	str.w	r2, [r3, #592]	; 0x250
  4032b6:	695a      	ldr	r2, [r3, #20]
  4032b8:	f442 3200 	orr.w	r2, r2, #131072	; 0x20000
  4032bc:	615a      	str	r2, [r3, #20]
  4032be:	f3bf 8f4f 	dsb	sy
  4032c2:	f3bf 8f6f 	isb	sy
  4032c6:	f8d3 7080 	ldr.w	r7, [r3, #128]	; 0x80
  4032ca:	f3c7 364e 	ubfx	r6, r7, #13, #15
  4032ce:	f007 0007 	and.w	r0, r7, #7
  4032d2:	3004      	adds	r0, #4
  4032d4:	f3c7 07c9 	ubfx	r7, r7, #3, #10
  4032d8:	fab7 fe87 	clz	lr, r7
  4032dc:	f00e 0e1f 	and.w	lr, lr, #31
  4032e0:	f3bf 8f4f 	dsb	sy
  4032e4:	f04f 34ff 	mov.w	r4, #4294967295
  4032e8:	fa04 fc00 	lsl.w	ip, r4, r0
  4032ec:	fa06 f000 	lsl.w	r0, r6, r0
  4032f0:	fa04 f40e 	lsl.w	r4, r4, lr
  4032f4:	fa07 fe0e 	lsl.w	lr, r7, lr
  4032f8:	461d      	mov	r5, r3
  4032fa:	463a      	mov	r2, r7
  4032fc:	4673      	mov	r3, lr
  4032fe:	ea40 0103 	orr.w	r1, r0, r3
  403302:	f8c5 1260 	str.w	r1, [r5, #608]	; 0x260
  403306:	3a01      	subs	r2, #1
  403308:	4423      	add	r3, r4
  40330a:	f1b2 3fff 	cmp.w	r2, #4294967295
  40330e:	d1f6      	bne.n	4032fe <board_init+0x62>
  403310:	3e01      	subs	r6, #1
  403312:	4460      	add	r0, ip
  403314:	f1b6 3fff 	cmp.w	r6, #4294967295
  403318:	d1ef      	bne.n	4032fa <board_init+0x5e>
  40331a:	f3bf 8f4f 	dsb	sy
  40331e:	4b3e      	ldr	r3, [pc, #248]	; (403418 <board_init+0x17c>)
  403320:	695a      	ldr	r2, [r3, #20]
  403322:	f442 3280 	orr.w	r2, r2, #65536	; 0x10000
  403326:	615a      	str	r2, [r3, #20]
  403328:	f3bf 8f4f 	dsb	sy
  40332c:	f3bf 8f6f 	isb	sy
  403330:	4a3a      	ldr	r2, [pc, #232]	; (40341c <board_init+0x180>)
  403332:	493b      	ldr	r1, [pc, #236]	; (403420 <board_init+0x184>)
  403334:	6051      	str	r1, [r2, #4]
  403336:	f5a1 7180 	sub.w	r1, r1, #256	; 0x100
  40333a:	6051      	str	r1, [r2, #4]
  40333c:	f3bf 8f4f 	dsb	sy
  403340:	f3bf 8f6f 	isb	sy
  403344:	f8d3 2290 	ldr.w	r2, [r3, #656]	; 0x290
  403348:	f022 0201 	bic.w	r2, r2, #1
  40334c:	f8c3 2290 	str.w	r2, [r3, #656]	; 0x290
  403350:	f8d3 2294 	ldr.w	r2, [r3, #660]	; 0x294
  403354:	f022 0201 	bic.w	r2, r2, #1
  403358:	f8c3 2294 	str.w	r2, [r3, #660]	; 0x294
  40335c:	f3bf 8f4f 	dsb	sy
  403360:	f3bf 8f6f 	isb	sy
  403364:	200a      	movs	r0, #10
  403366:	4c2f      	ldr	r4, [pc, #188]	; (403424 <board_init+0x188>)
  403368:	47a0      	blx	r4
  40336a:	200b      	movs	r0, #11
  40336c:	47a0      	blx	r4
  40336e:	200c      	movs	r0, #12
  403370:	47a0      	blx	r4
  403372:	2010      	movs	r0, #16
  403374:	47a0      	blx	r4
  403376:	2011      	movs	r0, #17
  403378:	47a0      	blx	r4
  40337a:	4b2b      	ldr	r3, [pc, #172]	; (403428 <board_init+0x18c>)
  40337c:	f44f 7280 	mov.w	r2, #256	; 0x100
  403380:	611a      	str	r2, [r3, #16]
  403382:	f8c3 20a0 	str.w	r2, [r3, #160]	; 0xa0
  403386:	631a      	str	r2, [r3, #48]	; 0x30
  403388:	f5a3 6380 	sub.w	r3, r3, #1024	; 0x400
  40338c:	f44f 6200 	mov.w	r2, #2048	; 0x800
  403390:	615a      	str	r2, [r3, #20]
  403392:	f8c3 20a0 	str.w	r2, [r3, #160]	; 0xa0
  403396:	665a      	str	r2, [r3, #100]	; 0x64
  403398:	f8c3 2090 	str.w	r2, [r3, #144]	; 0x90
  40339c:	655a      	str	r2, [r3, #84]	; 0x54
  40339e:	621a      	str	r2, [r3, #32]
  4033a0:	f8c3 2084 	str.w	r2, [r3, #132]	; 0x84
  4033a4:	6f19      	ldr	r1, [r3, #112]	; 0x70
  4033a6:	f421 6100 	bic.w	r1, r1, #2048	; 0x800
  4033aa:	6719      	str	r1, [r3, #112]	; 0x70
  4033ac:	6f59      	ldr	r1, [r3, #116]	; 0x74
  4033ae:	f421 6100 	bic.w	r1, r1, #2048	; 0x800
  4033b2:	6759      	str	r1, [r3, #116]	; 0x74
  4033b4:	f8c3 20c0 	str.w	r2, [r3, #192]	; 0xc0
  4033b8:	f8c3 20d4 	str.w	r2, [r3, #212]	; 0xd4
  4033bc:	f8c3 20b0 	str.w	r2, [r3, #176]	; 0xb0
  4033c0:	f44f 1200 	mov.w	r2, #2097152	; 0x200000
  4033c4:	661a      	str	r2, [r3, #96]	; 0x60
  4033c6:	f8c3 2090 	str.w	r2, [r3, #144]	; 0x90
  4033ca:	655a      	str	r2, [r3, #84]	; 0x54
  4033cc:	625a      	str	r2, [r3, #36]	; 0x24
  4033ce:	f8c3 2080 	str.w	r2, [r3, #128]	; 0x80
  4033d2:	6f19      	ldr	r1, [r3, #112]	; 0x70
  4033d4:	f421 1100 	bic.w	r1, r1, #2097152	; 0x200000
  4033d8:	6719      	str	r1, [r3, #112]	; 0x70
  4033da:	6f59      	ldr	r1, [r3, #116]	; 0x74
  4033dc:	f421 1100 	bic.w	r1, r1, #2097152	; 0x200000
  4033e0:	6759      	str	r1, [r3, #116]	; 0x74
  4033e2:	605a      	str	r2, [r3, #4]
  4033e4:	4a11      	ldr	r2, [pc, #68]	; (40342c <board_init+0x190>)
  4033e6:	f8d2 3114 	ldr.w	r3, [r2, #276]	; 0x114
  4033ea:	f043 0310 	orr.w	r3, r3, #16
  4033ee:	f8c2 3114 	str.w	r3, [r2, #276]	; 0x114
  4033f2:	4b0f      	ldr	r3, [pc, #60]	; (403430 <board_init+0x194>)
  4033f4:	2210      	movs	r2, #16
  4033f6:	661a      	str	r2, [r3, #96]	; 0x60
  4033f8:	f8c3 2090 	str.w	r2, [r3, #144]	; 0x90
  4033fc:	655a      	str	r2, [r3, #84]	; 0x54
  4033fe:	625a      	str	r2, [r3, #36]	; 0x24
  403400:	f8c3 2080 	str.w	r2, [r3, #128]	; 0x80
  403404:	6f19      	ldr	r1, [r3, #112]	; 0x70
  403406:	4311      	orrs	r1, r2
  403408:	6719      	str	r1, [r3, #112]	; 0x70
  40340a:	6f59      	ldr	r1, [r3, #116]	; 0x74
  40340c:	4311      	orrs	r1, r2
  40340e:	6759      	str	r1, [r3, #116]	; 0x74
  403410:	605a      	str	r2, [r3, #4]
  403412:	bdf8      	pop	{r3, r4, r5, r6, r7, pc}
  403414:	400e1850 	.word	0x400e1850
  403418:	e000ed00 	.word	0xe000ed00
  40341c:	400e0c00 	.word	0x400e0c00
  403420:	5a00080c 	.word	0x5a00080c
  403424:	00403799 	.word	0x00403799
  403428:	400e1200 	.word	0x400e1200
  40342c:	40088000 	.word	0x40088000
  403430:	400e1000 	.word	0x400e1000

00403434 <pio_set>:
  403434:	6301      	str	r1, [r0, #48]	; 0x30
  403436:	4770      	bx	lr

00403438 <pio_clear>:
  403438:	6341      	str	r1, [r0, #52]	; 0x34
  40343a:	4770      	bx	lr

0040343c <pio_set_peripheral>:
  40343c:	6442      	str	r2, [r0, #68]	; 0x44
  40343e:	f1b1 5fc0 	cmp.w	r1, #402653184	; 0x18000000
  403442:	d03a      	beq.n	4034ba <pio_set_peripheral+0x7e>
  403444:	d813      	bhi.n	40346e <pio_set_peripheral+0x32>
  403446:	f1b1 6f00 	cmp.w	r1, #134217728	; 0x8000000
  40344a:	d025      	beq.n	403498 <pio_set_peripheral+0x5c>
  40344c:	f1b1 5f80 	cmp.w	r1, #268435456	; 0x10000000
  403450:	d10a      	bne.n	403468 <pio_set_peripheral+0x2c>
  403452:	6f03      	ldr	r3, [r0, #112]	; 0x70
  403454:	4313      	orrs	r3, r2
  403456:	6703      	str	r3, [r0, #112]	; 0x70
  403458:	6f43      	ldr	r3, [r0, #116]	; 0x74
  40345a:	6f41      	ldr	r1, [r0, #116]	; 0x74
  40345c:	400b      	ands	r3, r1
  40345e:	ea23 0302 	bic.w	r3, r3, r2
  403462:	6743      	str	r3, [r0, #116]	; 0x74
  403464:	6042      	str	r2, [r0, #4]
  403466:	4770      	bx	lr
  403468:	2900      	cmp	r1, #0
  40346a:	d1fb      	bne.n	403464 <pio_set_peripheral+0x28>
  40346c:	4770      	bx	lr
  40346e:	f1b1 5f20 	cmp.w	r1, #671088640	; 0x28000000
  403472:	d021      	beq.n	4034b8 <pio_set_peripheral+0x7c>
  403474:	d809      	bhi.n	40348a <pio_set_peripheral+0x4e>
  403476:	f1b1 5f00 	cmp.w	r1, #536870912	; 0x20000000
  40347a:	d1f3      	bne.n	403464 <pio_set_peripheral+0x28>
  40347c:	6f03      	ldr	r3, [r0, #112]	; 0x70
  40347e:	4313      	orrs	r3, r2
  403480:	6703      	str	r3, [r0, #112]	; 0x70
  403482:	6f43      	ldr	r3, [r0, #116]	; 0x74
  403484:	4313      	orrs	r3, r2
  403486:	6743      	str	r3, [r0, #116]	; 0x74
  403488:	e7ec      	b.n	403464 <pio_set_peripheral+0x28>
  40348a:	f1b1 5f40 	cmp.w	r1, #805306368	; 0x30000000
  40348e:	d013      	beq.n	4034b8 <pio_set_peripheral+0x7c>
  403490:	f1b1 5f60 	cmp.w	r1, #939524096	; 0x38000000
  403494:	d010      	beq.n	4034b8 <pio_set_peripheral+0x7c>
  403496:	e7e5      	b.n	403464 <pio_set_peripheral+0x28>
  403498:	b410      	push	{r4}
  40349a:	6f01      	ldr	r1, [r0, #112]	; 0x70
  40349c:	6f04      	ldr	r4, [r0, #112]	; 0x70
  40349e:	43d3      	mvns	r3, r2
  4034a0:	4021      	ands	r1, r4
  4034a2:	461c      	mov	r4, r3
  4034a4:	4019      	ands	r1, r3
  4034a6:	6701      	str	r1, [r0, #112]	; 0x70
  4034a8:	6f43      	ldr	r3, [r0, #116]	; 0x74
  4034aa:	6f41      	ldr	r1, [r0, #116]	; 0x74
  4034ac:	400b      	ands	r3, r1
  4034ae:	4023      	ands	r3, r4
  4034b0:	6743      	str	r3, [r0, #116]	; 0x74
  4034b2:	6042      	str	r2, [r0, #4]
  4034b4:	f85d 4b04 	ldr.w	r4, [sp], #4
  4034b8:	4770      	bx	lr
  4034ba:	6f03      	ldr	r3, [r0, #112]	; 0x70
  4034bc:	6f01      	ldr	r1, [r0, #112]	; 0x70
  4034be:	400b      	ands	r3, r1
  4034c0:	ea23 0302 	bic.w	r3, r3, r2
  4034c4:	6703      	str	r3, [r0, #112]	; 0x70
  4034c6:	6f43      	ldr	r3, [r0, #116]	; 0x74
  4034c8:	4313      	orrs	r3, r2
  4034ca:	6743      	str	r3, [r0, #116]	; 0x74
  4034cc:	e7ca      	b.n	403464 <pio_set_peripheral+0x28>

004034ce <pio_set_input>:
  4034ce:	6441      	str	r1, [r0, #68]	; 0x44
  4034d0:	f012 0f01 	tst.w	r2, #1
  4034d4:	d10d      	bne.n	4034f2 <pio_set_input+0x24>
  4034d6:	6601      	str	r1, [r0, #96]	; 0x60
  4034d8:	f012 0f0a 	tst.w	r2, #10
  4034dc:	d00b      	beq.n	4034f6 <pio_set_input+0x28>
  4034de:	6201      	str	r1, [r0, #32]
  4034e0:	f012 0f02 	tst.w	r2, #2
  4034e4:	d109      	bne.n	4034fa <pio_set_input+0x2c>
  4034e6:	f012 0f08 	tst.w	r2, #8
  4034ea:	d008      	beq.n	4034fe <pio_set_input+0x30>
  4034ec:	f8c0 1084 	str.w	r1, [r0, #132]	; 0x84
  4034f0:	e005      	b.n	4034fe <pio_set_input+0x30>
  4034f2:	6641      	str	r1, [r0, #100]	; 0x64
  4034f4:	e7f0      	b.n	4034d8 <pio_set_input+0xa>
  4034f6:	6241      	str	r1, [r0, #36]	; 0x24
  4034f8:	e7f2      	b.n	4034e0 <pio_set_input+0x12>
  4034fa:	f8c0 1080 	str.w	r1, [r0, #128]	; 0x80
  4034fe:	6141      	str	r1, [r0, #20]
  403500:	6001      	str	r1, [r0, #0]
  403502:	4770      	bx	lr

00403504 <pio_set_output>:
  403504:	b410      	push	{r4}
  403506:	9c01      	ldr	r4, [sp, #4]
  403508:	6441      	str	r1, [r0, #68]	; 0x44
  40350a:	b94c      	cbnz	r4, 403520 <pio_set_output+0x1c>
  40350c:	6601      	str	r1, [r0, #96]	; 0x60
  40350e:	b14b      	cbz	r3, 403524 <pio_set_output+0x20>
  403510:	6501      	str	r1, [r0, #80]	; 0x50
  403512:	b94a      	cbnz	r2, 403528 <pio_set_output+0x24>
  403514:	6341      	str	r1, [r0, #52]	; 0x34
  403516:	6101      	str	r1, [r0, #16]
  403518:	6001      	str	r1, [r0, #0]
  40351a:	f85d 4b04 	ldr.w	r4, [sp], #4
  40351e:	4770      	bx	lr
  403520:	6641      	str	r1, [r0, #100]	; 0x64
  403522:	e7f4      	b.n	40350e <pio_set_output+0xa>
  403524:	6541      	str	r1, [r0, #84]	; 0x54
  403526:	e7f4      	b.n	403512 <pio_set_output+0xe>
  403528:	6301      	str	r1, [r0, #48]	; 0x30
  40352a:	e7f4      	b.n	403516 <pio_set_output+0x12>

0040352c <pio_configure>:
  40352c:	b570      	push	{r4, r5, r6, lr}
  40352e:	b082      	sub	sp, #8
  403530:	4605      	mov	r5, r0
  403532:	4616      	mov	r6, r2
  403534:	461c      	mov	r4, r3
  403536:	f1b1 5f00 	cmp.w	r1, #536870912	; 0x20000000
  40353a:	d014      	beq.n	403566 <pio_configure+0x3a>
  40353c:	d90a      	bls.n	403554 <pio_configure+0x28>
  40353e:	f1b1 5f40 	cmp.w	r1, #805306368	; 0x30000000
  403542:	d024      	beq.n	40358e <pio_configure+0x62>
  403544:	f1b1 5f60 	cmp.w	r1, #939524096	; 0x38000000
  403548:	d021      	beq.n	40358e <pio_configure+0x62>
  40354a:	f1b1 5f20 	cmp.w	r1, #671088640	; 0x28000000
  40354e:	d017      	beq.n	403580 <pio_configure+0x54>
  403550:	2000      	movs	r0, #0
  403552:	e01a      	b.n	40358a <pio_configure+0x5e>
  403554:	f1b1 5f80 	cmp.w	r1, #268435456	; 0x10000000
  403558:	d005      	beq.n	403566 <pio_configure+0x3a>
  40355a:	f1b1 5fc0 	cmp.w	r1, #402653184	; 0x18000000
  40355e:	d002      	beq.n	403566 <pio_configure+0x3a>
  403560:	f1b1 6f00 	cmp.w	r1, #134217728	; 0x8000000
  403564:	d1f4      	bne.n	403550 <pio_configure+0x24>
  403566:	4632      	mov	r2, r6
  403568:	4628      	mov	r0, r5
  40356a:	4b11      	ldr	r3, [pc, #68]	; (4035b0 <pio_configure+0x84>)
  40356c:	4798      	blx	r3
  40356e:	f014 0f01 	tst.w	r4, #1
  403572:	d102      	bne.n	40357a <pio_configure+0x4e>
  403574:	662e      	str	r6, [r5, #96]	; 0x60
  403576:	2001      	movs	r0, #1
  403578:	e007      	b.n	40358a <pio_configure+0x5e>
  40357a:	666e      	str	r6, [r5, #100]	; 0x64
  40357c:	2001      	movs	r0, #1
  40357e:	e004      	b.n	40358a <pio_configure+0x5e>
  403580:	461a      	mov	r2, r3
  403582:	4631      	mov	r1, r6
  403584:	4b0b      	ldr	r3, [pc, #44]	; (4035b4 <pio_configure+0x88>)
  403586:	4798      	blx	r3
  403588:	2001      	movs	r0, #1
  40358a:	b002      	add	sp, #8
  40358c:	bd70      	pop	{r4, r5, r6, pc}
  40358e:	f004 0301 	and.w	r3, r4, #1
  403592:	9300      	str	r3, [sp, #0]
  403594:	f3c4 0380 	ubfx	r3, r4, #2, #1
  403598:	f1b1 5f60 	cmp.w	r1, #939524096	; 0x38000000
  40359c:	bf14      	ite	ne
  40359e:	2200      	movne	r2, #0
  4035a0:	2201      	moveq	r2, #1
  4035a2:	4631      	mov	r1, r6
  4035a4:	4628      	mov	r0, r5
  4035a6:	4c04      	ldr	r4, [pc, #16]	; (4035b8 <pio_configure+0x8c>)
  4035a8:	47a0      	blx	r4
  4035aa:	2001      	movs	r0, #1
  4035ac:	e7ed      	b.n	40358a <pio_configure+0x5e>
  4035ae:	bf00      	nop
  4035b0:	0040343d 	.word	0x0040343d
  4035b4:	004034cf 	.word	0x004034cf
  4035b8:	00403505 	.word	0x00403505

004035bc <pio_get_interrupt_status>:
  4035bc:	6cc0      	ldr	r0, [r0, #76]	; 0x4c
  4035be:	4770      	bx	lr

004035c0 <pio_get_interrupt_mask>:
  4035c0:	6c80      	ldr	r0, [r0, #72]	; 0x48
  4035c2:	4770      	bx	lr

004035c4 <pio_handler_process>:
  4035c4:	e92d 41f0 	stmdb	sp!, {r4, r5, r6, r7, r8, lr}
  4035c8:	4604      	mov	r4, r0
  4035ca:	4688      	mov	r8, r1
  4035cc:	4b0e      	ldr	r3, [pc, #56]	; (403608 <pio_handler_process+0x44>)
  4035ce:	4798      	blx	r3
  4035d0:	4605      	mov	r5, r0
  4035d2:	4620      	mov	r0, r4
  4035d4:	4b0d      	ldr	r3, [pc, #52]	; (40360c <pio_handler_process+0x48>)
  4035d6:	4798      	blx	r3
  4035d8:	4005      	ands	r5, r0
  4035da:	d013      	beq.n	403604 <pio_handler_process+0x40>
  4035dc:	4c0c      	ldr	r4, [pc, #48]	; (403610 <pio_handler_process+0x4c>)
  4035de:	f104 0660 	add.w	r6, r4, #96	; 0x60
  4035e2:	e003      	b.n	4035ec <pio_handler_process+0x28>
  4035e4:	42b4      	cmp	r4, r6
  4035e6:	d00d      	beq.n	403604 <pio_handler_process+0x40>
  4035e8:	3410      	adds	r4, #16
  4035ea:	b15d      	cbz	r5, 403604 <pio_handler_process+0x40>
  4035ec:	6820      	ldr	r0, [r4, #0]
  4035ee:	4540      	cmp	r0, r8
  4035f0:	d1f8      	bne.n	4035e4 <pio_handler_process+0x20>
  4035f2:	6861      	ldr	r1, [r4, #4]
  4035f4:	4229      	tst	r1, r5
  4035f6:	d0f5      	beq.n	4035e4 <pio_handler_process+0x20>
  4035f8:	68e3      	ldr	r3, [r4, #12]
  4035fa:	4798      	blx	r3
  4035fc:	6863      	ldr	r3, [r4, #4]
  4035fe:	ea25 0503 	bic.w	r5, r5, r3
  403602:	e7ef      	b.n	4035e4 <pio_handler_process+0x20>
  403604:	e8bd 81f0 	ldmia.w	sp!, {r4, r5, r6, r7, r8, pc}
  403608:	004035bd 	.word	0x004035bd
  40360c:	004035c1 	.word	0x004035c1
  403610:	2040c548 	.word	0x2040c548

00403614 <PIOA_Handler>:
  403614:	b508      	push	{r3, lr}
  403616:	210a      	movs	r1, #10
  403618:	4801      	ldr	r0, [pc, #4]	; (403620 <PIOA_Handler+0xc>)
  40361a:	4b02      	ldr	r3, [pc, #8]	; (403624 <PIOA_Handler+0x10>)
  40361c:	4798      	blx	r3
  40361e:	bd08      	pop	{r3, pc}
  403620:	400e0e00 	.word	0x400e0e00
  403624:	004035c5 	.word	0x004035c5

00403628 <PIOB_Handler>:
  403628:	b508      	push	{r3, lr}
  40362a:	210b      	movs	r1, #11
  40362c:	4801      	ldr	r0, [pc, #4]	; (403634 <PIOB_Handler+0xc>)
  40362e:	4b02      	ldr	r3, [pc, #8]	; (403638 <PIOB_Handler+0x10>)
  403630:	4798      	blx	r3
  403632:	bd08      	pop	{r3, pc}
  403634:	400e1000 	.word	0x400e1000
  403638:	004035c5 	.word	0x004035c5

0040363c <PIOC_Handler>:
  40363c:	b508      	push	{r3, lr}
  40363e:	210c      	movs	r1, #12
  403640:	4801      	ldr	r0, [pc, #4]	; (403648 <PIOC_Handler+0xc>)
  403642:	4b02      	ldr	r3, [pc, #8]	; (40364c <PIOC_Handler+0x10>)
  403644:	4798      	blx	r3
  403646:	bd08      	pop	{r3, pc}
  403648:	400e1200 	.word	0x400e1200
  40364c:	004035c5 	.word	0x004035c5

00403650 <PIOD_Handler>:
  403650:	b508      	push	{r3, lr}
  403652:	2110      	movs	r1, #16
  403654:	4801      	ldr	r0, [pc, #4]	; (40365c <PIOD_Handler+0xc>)
  403656:	4b02      	ldr	r3, [pc, #8]	; (403660 <PIOD_Handler+0x10>)
  403658:	4798      	blx	r3
  40365a:	bd08      	pop	{r3, pc}
  40365c:	400e1400 	.word	0x400e1400
  403660:	004035c5 	.word	0x004035c5

00403664 <PIOE_Handler>:
  403664:	b508      	push	{r3, lr}
  403666:	2111      	movs	r1, #17
  403668:	4801      	ldr	r0, [pc, #4]	; (403670 <PIOE_Handler+0xc>)
  40366a:	4b02      	ldr	r3, [pc, #8]	; (403674 <PIOE_Handler+0x10>)
  40366c:	4798      	blx	r3
  40366e:	bd08      	pop	{r3, pc}
  403670:	400e1600 	.word	0x400e1600
  403674:	004035c5 	.word	0x004035c5

00403678 <pmc_mck_set_division>:
  403678:	2803      	cmp	r0, #3
  40367a:	d011      	beq.n	4036a0 <pmc_mck_set_division+0x28>
  40367c:	2804      	cmp	r0, #4
  40367e:	d012      	beq.n	4036a6 <pmc_mck_set_division+0x2e>
  403680:	2802      	cmp	r0, #2
  403682:	bf0c      	ite	eq
  403684:	f44f 7180 	moveq.w	r1, #256	; 0x100
  403688:	2100      	movne	r1, #0
  40368a:	4a08      	ldr	r2, [pc, #32]	; (4036ac <pmc_mck_set_division+0x34>)
  40368c:	6b13      	ldr	r3, [r2, #48]	; 0x30
  40368e:	f423 7340 	bic.w	r3, r3, #768	; 0x300
  403692:	430b      	orrs	r3, r1
  403694:	6313      	str	r3, [r2, #48]	; 0x30
  403696:	6e93      	ldr	r3, [r2, #104]	; 0x68
  403698:	f013 0f08 	tst.w	r3, #8
  40369c:	d0fb      	beq.n	403696 <pmc_mck_set_division+0x1e>
  40369e:	4770      	bx	lr
  4036a0:	f44f 7140 	mov.w	r1, #768	; 0x300
  4036a4:	e7f1      	b.n	40368a <pmc_mck_set_division+0x12>
  4036a6:	f44f 7100 	mov.w	r1, #512	; 0x200
  4036aa:	e7ee      	b.n	40368a <pmc_mck_set_division+0x12>
  4036ac:	400e0600 	.word	0x400e0600

004036b0 <pmc_switch_mck_to_pllack>:
  4036b0:	4a17      	ldr	r2, [pc, #92]	; (403710 <pmc_switch_mck_to_pllack+0x60>)
  4036b2:	6b13      	ldr	r3, [r2, #48]	; 0x30
  4036b4:	f023 0370 	bic.w	r3, r3, #112	; 0x70
  4036b8:	4318      	orrs	r0, r3
  4036ba:	6310      	str	r0, [r2, #48]	; 0x30
  4036bc:	6e93      	ldr	r3, [r2, #104]	; 0x68
  4036be:	f013 0f08 	tst.w	r3, #8
  4036c2:	d10a      	bne.n	4036da <pmc_switch_mck_to_pllack+0x2a>
  4036c4:	f44f 5380 	mov.w	r3, #4096	; 0x1000
  4036c8:	4911      	ldr	r1, [pc, #68]	; (403710 <pmc_switch_mck_to_pllack+0x60>)
  4036ca:	6e8a      	ldr	r2, [r1, #104]	; 0x68
  4036cc:	f012 0f08 	tst.w	r2, #8
  4036d0:	d103      	bne.n	4036da <pmc_switch_mck_to_pllack+0x2a>
  4036d2:	3b01      	subs	r3, #1
  4036d4:	d1f9      	bne.n	4036ca <pmc_switch_mck_to_pllack+0x1a>
  4036d6:	2001      	movs	r0, #1
  4036d8:	4770      	bx	lr
  4036da:	4a0d      	ldr	r2, [pc, #52]	; (403710 <pmc_switch_mck_to_pllack+0x60>)
  4036dc:	6b13      	ldr	r3, [r2, #48]	; 0x30
  4036de:	f023 0303 	bic.w	r3, r3, #3
  4036e2:	f043 0302 	orr.w	r3, r3, #2
  4036e6:	6313      	str	r3, [r2, #48]	; 0x30
  4036e8:	6e93      	ldr	r3, [r2, #104]	; 0x68
  4036ea:	f013 0f08 	tst.w	r3, #8
  4036ee:	d10a      	bne.n	403706 <pmc_switch_mck_to_pllack+0x56>
  4036f0:	f44f 5380 	mov.w	r3, #4096	; 0x1000
  4036f4:	4906      	ldr	r1, [pc, #24]	; (403710 <pmc_switch_mck_to_pllack+0x60>)
  4036f6:	6e8a      	ldr	r2, [r1, #104]	; 0x68
  4036f8:	f012 0f08 	tst.w	r2, #8
  4036fc:	d105      	bne.n	40370a <pmc_switch_mck_to_pllack+0x5a>
  4036fe:	3b01      	subs	r3, #1
  403700:	d1f9      	bne.n	4036f6 <pmc_switch_mck_to_pllack+0x46>
  403702:	2001      	movs	r0, #1
  403704:	4770      	bx	lr
  403706:	2000      	movs	r0, #0
  403708:	4770      	bx	lr
  40370a:	2000      	movs	r0, #0
  40370c:	4770      	bx	lr
  40370e:	bf00      	nop
  403710:	400e0600 	.word	0x400e0600

00403714 <pmc_switch_mainck_to_xtal>:
  403714:	b9a0      	cbnz	r0, 403740 <pmc_switch_mainck_to_xtal+0x2c>
  403716:	480e      	ldr	r0, [pc, #56]	; (403750 <pmc_switch_mainck_to_xtal+0x3c>)
  403718:	6a03      	ldr	r3, [r0, #32]
  40371a:	0209      	lsls	r1, r1, #8
  40371c:	b289      	uxth	r1, r1
  40371e:	4a0d      	ldr	r2, [pc, #52]	; (403754 <pmc_switch_mainck_to_xtal+0x40>)
  403720:	401a      	ands	r2, r3
  403722:	4b0d      	ldr	r3, [pc, #52]	; (403758 <pmc_switch_mainck_to_xtal+0x44>)
  403724:	4313      	orrs	r3, r2
  403726:	4319      	orrs	r1, r3
  403728:	6201      	str	r1, [r0, #32]
  40372a:	4602      	mov	r2, r0
  40372c:	6e93      	ldr	r3, [r2, #104]	; 0x68
  40372e:	f013 0f01 	tst.w	r3, #1
  403732:	d0fb      	beq.n	40372c <pmc_switch_mainck_to_xtal+0x18>
  403734:	4a06      	ldr	r2, [pc, #24]	; (403750 <pmc_switch_mainck_to_xtal+0x3c>)
  403736:	6a11      	ldr	r1, [r2, #32]
  403738:	4b08      	ldr	r3, [pc, #32]	; (40375c <pmc_switch_mainck_to_xtal+0x48>)
  40373a:	430b      	orrs	r3, r1
  40373c:	6213      	str	r3, [r2, #32]
  40373e:	4770      	bx	lr
  403740:	4903      	ldr	r1, [pc, #12]	; (403750 <pmc_switch_mainck_to_xtal+0x3c>)
  403742:	6a0b      	ldr	r3, [r1, #32]
  403744:	4a06      	ldr	r2, [pc, #24]	; (403760 <pmc_switch_mainck_to_xtal+0x4c>)
  403746:	401a      	ands	r2, r3
  403748:	4b06      	ldr	r3, [pc, #24]	; (403764 <pmc_switch_mainck_to_xtal+0x50>)
  40374a:	4313      	orrs	r3, r2
  40374c:	620b      	str	r3, [r1, #32]
  40374e:	4770      	bx	lr
  403750:	400e0600 	.word	0x400e0600
  403754:	ffc8fffc 	.word	0xffc8fffc
  403758:	00370001 	.word	0x00370001
  40375c:	01370000 	.word	0x01370000
  403760:	fec8fffc 	.word	0xfec8fffc
  403764:	01370002 	.word	0x01370002

00403768 <pmc_osc_is_ready_mainck>:
  403768:	4b02      	ldr	r3, [pc, #8]	; (403774 <pmc_osc_is_ready_mainck+0xc>)
  40376a:	6e98      	ldr	r0, [r3, #104]	; 0x68
  40376c:	f400 3080 	and.w	r0, r0, #65536	; 0x10000
  403770:	4770      	bx	lr
  403772:	bf00      	nop
  403774:	400e0600 	.word	0x400e0600

00403778 <pmc_disable_pllack>:
  403778:	f04f 5200 	mov.w	r2, #536870912	; 0x20000000
  40377c:	4b01      	ldr	r3, [pc, #4]	; (403784 <pmc_disable_pllack+0xc>)
  40377e:	629a      	str	r2, [r3, #40]	; 0x28
  403780:	4770      	bx	lr
  403782:	bf00      	nop
  403784:	400e0600 	.word	0x400e0600

00403788 <pmc_is_locked_pllack>:
  403788:	4b02      	ldr	r3, [pc, #8]	; (403794 <pmc_is_locked_pllack+0xc>)
  40378a:	6e98      	ldr	r0, [r3, #104]	; 0x68
  40378c:	f000 0002 	and.w	r0, r0, #2
  403790:	4770      	bx	lr
  403792:	bf00      	nop
  403794:	400e0600 	.word	0x400e0600

00403798 <pmc_enable_periph_clk>:
  403798:	283f      	cmp	r0, #63	; 0x3f
  40379a:	d81e      	bhi.n	4037da <pmc_enable_periph_clk+0x42>
  40379c:	281f      	cmp	r0, #31
  40379e:	d80c      	bhi.n	4037ba <pmc_enable_periph_clk+0x22>
  4037a0:	4b11      	ldr	r3, [pc, #68]	; (4037e8 <pmc_enable_periph_clk+0x50>)
  4037a2:	699a      	ldr	r2, [r3, #24]
  4037a4:	2301      	movs	r3, #1
  4037a6:	4083      	lsls	r3, r0
  4037a8:	4393      	bics	r3, r2
  4037aa:	d018      	beq.n	4037de <pmc_enable_periph_clk+0x46>
  4037ac:	2301      	movs	r3, #1
  4037ae:	fa03 f000 	lsl.w	r0, r3, r0
  4037b2:	4b0d      	ldr	r3, [pc, #52]	; (4037e8 <pmc_enable_periph_clk+0x50>)
  4037b4:	6118      	str	r0, [r3, #16]
  4037b6:	2000      	movs	r0, #0
  4037b8:	4770      	bx	lr
  4037ba:	3820      	subs	r0, #32
  4037bc:	4b0a      	ldr	r3, [pc, #40]	; (4037e8 <pmc_enable_periph_clk+0x50>)
  4037be:	f8d3 2108 	ldr.w	r2, [r3, #264]	; 0x108
  4037c2:	2301      	movs	r3, #1
  4037c4:	4083      	lsls	r3, r0
  4037c6:	4393      	bics	r3, r2
  4037c8:	d00b      	beq.n	4037e2 <pmc_enable_periph_clk+0x4a>
  4037ca:	2301      	movs	r3, #1
  4037cc:	fa03 f000 	lsl.w	r0, r3, r0
  4037d0:	4b05      	ldr	r3, [pc, #20]	; (4037e8 <pmc_enable_periph_clk+0x50>)
  4037d2:	f8c3 0100 	str.w	r0, [r3, #256]	; 0x100
  4037d6:	2000      	movs	r0, #0
  4037d8:	4770      	bx	lr
  4037da:	2001      	movs	r0, #1
  4037dc:	4770      	bx	lr
  4037de:	2000      	movs	r0, #0
  4037e0:	4770      	bx	lr
  4037e2:	2000      	movs	r0, #0
  4037e4:	4770      	bx	lr
  4037e6:	bf00      	nop
  4037e8:	400e0600 	.word	0x400e0600

004037ec <uart_write>:
  4037ec:	6943      	ldr	r3, [r0, #20]
  4037ee:	f013 0f02 	tst.w	r3, #2
  4037f2:	d002      	beq.n	4037fa <uart_write+0xe>
  4037f4:	61c1      	str	r1, [r0, #28]
  4037f6:	2000      	movs	r0, #0
  4037f8:	4770      	bx	lr
  4037fa:	2001      	movs	r0, #1
  4037fc:	4770      	bx	lr

004037fe <uart_read>:
  4037fe:	6943      	ldr	r3, [r0, #20]
  403800:	f013 0f01 	tst.w	r3, #1
  403804:	d003      	beq.n	40380e <uart_read+0x10>
  403806:	6983      	ldr	r3, [r0, #24]
  403808:	700b      	strb	r3, [r1, #0]
  40380a:	2000      	movs	r0, #0
  40380c:	4770      	bx	lr
  40380e:	2001      	movs	r0, #1
  403810:	4770      	bx	lr

00403812 <usart_set_async_baudrate>:
  403812:	b410      	push	{r4}
  403814:	010b      	lsls	r3, r1, #4
  403816:	4293      	cmp	r3, r2
  403818:	d914      	bls.n	403844 <usart_set_async_baudrate+0x32>
  40381a:	00c9      	lsls	r1, r1, #3
  40381c:	084b      	lsrs	r3, r1, #1
  40381e:	eb03 02c2 	add.w	r2, r3, r2, lsl #3
  403822:	fbb2 f2f1 	udiv	r2, r2, r1
  403826:	08d3      	lsrs	r3, r2, #3
  403828:	1e5c      	subs	r4, r3, #1
  40382a:	f64f 71fe 	movw	r1, #65534	; 0xfffe
  40382e:	428c      	cmp	r4, r1
  403830:	d901      	bls.n	403836 <usart_set_async_baudrate+0x24>
  403832:	2001      	movs	r0, #1
  403834:	e017      	b.n	403866 <usart_set_async_baudrate+0x54>
  403836:	6841      	ldr	r1, [r0, #4]
  403838:	f441 2100 	orr.w	r1, r1, #524288	; 0x80000
  40383c:	6041      	str	r1, [r0, #4]
  40383e:	e00c      	b.n	40385a <usart_set_async_baudrate+0x48>
  403840:	2001      	movs	r0, #1
  403842:	e010      	b.n	403866 <usart_set_async_baudrate+0x54>
  403844:	0859      	lsrs	r1, r3, #1
  403846:	eb01 02c2 	add.w	r2, r1, r2, lsl #3
  40384a:	fbb2 f2f3 	udiv	r2, r2, r3
  40384e:	08d3      	lsrs	r3, r2, #3
  403850:	1e5c      	subs	r4, r3, #1
  403852:	f64f 71fe 	movw	r1, #65534	; 0xfffe
  403856:	428c      	cmp	r4, r1
  403858:	d8f2      	bhi.n	403840 <usart_set_async_baudrate+0x2e>
  40385a:	0412      	lsls	r2, r2, #16
  40385c:	f402 22e0 	and.w	r2, r2, #458752	; 0x70000
  403860:	431a      	orrs	r2, r3
  403862:	6202      	str	r2, [r0, #32]
  403864:	2000      	movs	r0, #0
  403866:	f85d 4b04 	ldr.w	r4, [sp], #4
  40386a:	4770      	bx	lr

0040386c <usart_reset>:
  40386c:	4b08      	ldr	r3, [pc, #32]	; (403890 <usart_reset+0x24>)
  40386e:	f8c0 30e4 	str.w	r3, [r0, #228]	; 0xe4
  403872:	2300      	movs	r3, #0
  403874:	6043      	str	r3, [r0, #4]
  403876:	6243      	str	r3, [r0, #36]	; 0x24
  403878:	6283      	str	r3, [r0, #40]	; 0x28
  40387a:	2388      	movs	r3, #136	; 0x88
  40387c:	6003      	str	r3, [r0, #0]
  40387e:	2324      	movs	r3, #36	; 0x24
  403880:	6003      	str	r3, [r0, #0]
  403882:	f44f 7380 	mov.w	r3, #256	; 0x100
  403886:	6003      	str	r3, [r0, #0]
  403888:	f44f 2300 	mov.w	r3, #524288	; 0x80000
  40388c:	6003      	str	r3, [r0, #0]
  40388e:	4770      	bx	lr
  403890:	55534100 	.word	0x55534100

00403894 <usart_init_rs232>:
  403894:	b570      	push	{r4, r5, r6, lr}
  403896:	4605      	mov	r5, r0
  403898:	460c      	mov	r4, r1
  40389a:	4616      	mov	r6, r2
  40389c:	4b0f      	ldr	r3, [pc, #60]	; (4038dc <usart_init_rs232+0x48>)
  40389e:	4798      	blx	r3
  4038a0:	2200      	movs	r2, #0
  4038a2:	4b0f      	ldr	r3, [pc, #60]	; (4038e0 <usart_init_rs232+0x4c>)
  4038a4:	601a      	str	r2, [r3, #0]
  4038a6:	b1a4      	cbz	r4, 4038d2 <usart_init_rs232+0x3e>
  4038a8:	4632      	mov	r2, r6
  4038aa:	6821      	ldr	r1, [r4, #0]
  4038ac:	4628      	mov	r0, r5
  4038ae:	4b0d      	ldr	r3, [pc, #52]	; (4038e4 <usart_init_rs232+0x50>)
  4038b0:	4798      	blx	r3
  4038b2:	4602      	mov	r2, r0
  4038b4:	b978      	cbnz	r0, 4038d6 <usart_init_rs232+0x42>
  4038b6:	6863      	ldr	r3, [r4, #4]
  4038b8:	68a1      	ldr	r1, [r4, #8]
  4038ba:	430b      	orrs	r3, r1
  4038bc:	6921      	ldr	r1, [r4, #16]
  4038be:	430b      	orrs	r3, r1
  4038c0:	68e1      	ldr	r1, [r4, #12]
  4038c2:	430b      	orrs	r3, r1
  4038c4:	4906      	ldr	r1, [pc, #24]	; (4038e0 <usart_init_rs232+0x4c>)
  4038c6:	600b      	str	r3, [r1, #0]
  4038c8:	6869      	ldr	r1, [r5, #4]
  4038ca:	430b      	orrs	r3, r1
  4038cc:	606b      	str	r3, [r5, #4]
  4038ce:	4610      	mov	r0, r2
  4038d0:	bd70      	pop	{r4, r5, r6, pc}
  4038d2:	2201      	movs	r2, #1
  4038d4:	e7fb      	b.n	4038ce <usart_init_rs232+0x3a>
  4038d6:	2201      	movs	r2, #1
  4038d8:	e7f9      	b.n	4038ce <usart_init_rs232+0x3a>
  4038da:	bf00      	nop
  4038dc:	0040386d 	.word	0x0040386d
  4038e0:	2040c5b8 	.word	0x2040c5b8
  4038e4:	00403813 	.word	0x00403813

004038e8 <usart_enable_tx>:
  4038e8:	2340      	movs	r3, #64	; 0x40
  4038ea:	6003      	str	r3, [r0, #0]
  4038ec:	4770      	bx	lr

004038ee <usart_enable_rx>:
  4038ee:	2310      	movs	r3, #16
  4038f0:	6003      	str	r3, [r0, #0]
  4038f2:	4770      	bx	lr

004038f4 <usart_write>:
  4038f4:	6943      	ldr	r3, [r0, #20]
  4038f6:	f013 0f02 	tst.w	r3, #2
  4038fa:	d004      	beq.n	403906 <usart_write+0x12>
  4038fc:	f3c1 0108 	ubfx	r1, r1, #0, #9
  403900:	61c1      	str	r1, [r0, #28]
  403902:	2000      	movs	r0, #0
  403904:	4770      	bx	lr
  403906:	2001      	movs	r0, #1
  403908:	4770      	bx	lr

0040390a <usart_read>:
  40390a:	6943      	ldr	r3, [r0, #20]
  40390c:	f013 0f01 	tst.w	r3, #1
  403910:	d005      	beq.n	40391e <usart_read+0x14>
  403912:	6983      	ldr	r3, [r0, #24]
  403914:	f3c3 0308 	ubfx	r3, r3, #0, #9
  403918:	600b      	str	r3, [r1, #0]
  40391a:	2000      	movs	r0, #0
  40391c:	4770      	bx	lr
  40391e:	2001      	movs	r0, #1
  403920:	4770      	bx	lr

00403922 <Dummy_Handler>:
  403922:	e7fe      	b.n	403922 <Dummy_Handler>

00403924 <Reset_Handler>:
  403924:	b500      	push	{lr}
  403926:	b083      	sub	sp, #12
  403928:	4b25      	ldr	r3, [pc, #148]	; (4039c0 <Reset_Handler+0x9c>)
  40392a:	4a26      	ldr	r2, [pc, #152]	; (4039c4 <Reset_Handler+0xa0>)
  40392c:	429a      	cmp	r2, r3
  40392e:	d010      	beq.n	403952 <Reset_Handler+0x2e>
  403930:	4b25      	ldr	r3, [pc, #148]	; (4039c8 <Reset_Handler+0xa4>)
  403932:	4a23      	ldr	r2, [pc, #140]	; (4039c0 <Reset_Handler+0x9c>)
  403934:	429a      	cmp	r2, r3
  403936:	d20c      	bcs.n	403952 <Reset_Handler+0x2e>
  403938:	3b01      	subs	r3, #1
  40393a:	1a9b      	subs	r3, r3, r2
  40393c:	f023 0303 	bic.w	r3, r3, #3
  403940:	3304      	adds	r3, #4
  403942:	4413      	add	r3, r2
  403944:	491f      	ldr	r1, [pc, #124]	; (4039c4 <Reset_Handler+0xa0>)
  403946:	f851 0b04 	ldr.w	r0, [r1], #4
  40394a:	f842 0b04 	str.w	r0, [r2], #4
  40394e:	429a      	cmp	r2, r3
  403950:	d1f9      	bne.n	403946 <Reset_Handler+0x22>
  403952:	4b1e      	ldr	r3, [pc, #120]	; (4039cc <Reset_Handler+0xa8>)
  403954:	4a1e      	ldr	r2, [pc, #120]	; (4039d0 <Reset_Handler+0xac>)
  403956:	429a      	cmp	r2, r3
  403958:	d20a      	bcs.n	403970 <Reset_Handler+0x4c>
  40395a:	3b01      	subs	r3, #1
  40395c:	1a9b      	subs	r3, r3, r2
  40395e:	f023 0303 	bic.w	r3, r3, #3
  403962:	3304      	adds	r3, #4
  403964:	4413      	add	r3, r2
  403966:	2100      	movs	r1, #0
  403968:	f842 1b04 	str.w	r1, [r2], #4
  40396c:	4293      	cmp	r3, r2
  40396e:	d1fb      	bne.n	403968 <Reset_Handler+0x44>
  403970:	4a18      	ldr	r2, [pc, #96]	; (4039d4 <Reset_Handler+0xb0>)
  403972:	4b19      	ldr	r3, [pc, #100]	; (4039d8 <Reset_Handler+0xb4>)
  403974:	f023 037f 	bic.w	r3, r3, #127	; 0x7f
  403978:	6093      	str	r3, [r2, #8]
  40397a:	f3ef 8310 	mrs	r3, PRIMASK
  40397e:	fab3 f383 	clz	r3, r3
  403982:	095b      	lsrs	r3, r3, #5
  403984:	9301      	str	r3, [sp, #4]
  403986:	b672      	cpsid	i
  403988:	f3bf 8f5f 	dmb	sy
  40398c:	2200      	movs	r2, #0
  40398e:	4b13      	ldr	r3, [pc, #76]	; (4039dc <Reset_Handler+0xb8>)
  403990:	701a      	strb	r2, [r3, #0]
  403992:	9901      	ldr	r1, [sp, #4]
  403994:	4a12      	ldr	r2, [pc, #72]	; (4039e0 <Reset_Handler+0xbc>)
  403996:	6813      	ldr	r3, [r2, #0]
  403998:	f443 0370 	orr.w	r3, r3, #15728640	; 0xf00000
  40399c:	6013      	str	r3, [r2, #0]
  40399e:	f3bf 8f4f 	dsb	sy
  4039a2:	f3bf 8f6f 	isb	sy
  4039a6:	b129      	cbz	r1, 4039b4 <Reset_Handler+0x90>
  4039a8:	2201      	movs	r2, #1
  4039aa:	4b0c      	ldr	r3, [pc, #48]	; (4039dc <Reset_Handler+0xb8>)
  4039ac:	701a      	strb	r2, [r3, #0]
  4039ae:	f3bf 8f5f 	dmb	sy
  4039b2:	b662      	cpsie	i
  4039b4:	4b0b      	ldr	r3, [pc, #44]	; (4039e4 <Reset_Handler+0xc0>)
  4039b6:	4798      	blx	r3
  4039b8:	4b0b      	ldr	r3, [pc, #44]	; (4039e8 <Reset_Handler+0xc4>)
  4039ba:	4798      	blx	r3
  4039bc:	e7fe      	b.n	4039bc <Reset_Handler+0x98>
  4039be:	bf00      	nop
  4039c0:	20400000 	.word	0x20400000
  4039c4:	0040a9f4 	.word	0x0040a9f4
  4039c8:	204009d8 	.word	0x204009d8
  4039cc:	2040c670 	.word	0x2040c670
  4039d0:	204009d8 	.word	0x204009d8
  4039d4:	e000ed00 	.word	0xe000ed00
  4039d8:	00400000 	.word	0x00400000
  4039dc:	2040001c 	.word	0x2040001c
  4039e0:	e000ed88 	.word	0xe000ed88
  4039e4:	00407035 	.word	0x00407035
  4039e8:	004046f1 	.word	0x004046f1

004039ec <SystemCoreClockUpdate>:
  4039ec:	4b3b      	ldr	r3, [pc, #236]	; (403adc <SystemCoreClockUpdate+0xf0>)
  4039ee:	6b1b      	ldr	r3, [r3, #48]	; 0x30
  4039f0:	f003 0303 	and.w	r3, r3, #3
  4039f4:	2b01      	cmp	r3, #1
  4039f6:	d01d      	beq.n	403a34 <SystemCoreClockUpdate+0x48>
  4039f8:	b183      	cbz	r3, 403a1c <SystemCoreClockUpdate+0x30>
  4039fa:	2b02      	cmp	r3, #2
  4039fc:	d036      	beq.n	403a6c <SystemCoreClockUpdate+0x80>
  4039fe:	4b37      	ldr	r3, [pc, #220]	; (403adc <SystemCoreClockUpdate+0xf0>)
  403a00:	6b1b      	ldr	r3, [r3, #48]	; 0x30
  403a02:	f003 0370 	and.w	r3, r3, #112	; 0x70
  403a06:	2b70      	cmp	r3, #112	; 0x70
  403a08:	d05f      	beq.n	403aca <SystemCoreClockUpdate+0xde>
  403a0a:	4b34      	ldr	r3, [pc, #208]	; (403adc <SystemCoreClockUpdate+0xf0>)
  403a0c:	6b1a      	ldr	r2, [r3, #48]	; 0x30
  403a0e:	4934      	ldr	r1, [pc, #208]	; (403ae0 <SystemCoreClockUpdate+0xf4>)
  403a10:	f3c2 1202 	ubfx	r2, r2, #4, #3
  403a14:	680b      	ldr	r3, [r1, #0]
  403a16:	40d3      	lsrs	r3, r2
  403a18:	600b      	str	r3, [r1, #0]
  403a1a:	4770      	bx	lr
  403a1c:	4b31      	ldr	r3, [pc, #196]	; (403ae4 <SystemCoreClockUpdate+0xf8>)
  403a1e:	695b      	ldr	r3, [r3, #20]
  403a20:	f013 0f80 	tst.w	r3, #128	; 0x80
  403a24:	bf14      	ite	ne
  403a26:	f44f 4200 	movne.w	r2, #32768	; 0x8000
  403a2a:	f44f 42fa 	moveq.w	r2, #32000	; 0x7d00
  403a2e:	4b2c      	ldr	r3, [pc, #176]	; (403ae0 <SystemCoreClockUpdate+0xf4>)
  403a30:	601a      	str	r2, [r3, #0]
  403a32:	e7e4      	b.n	4039fe <SystemCoreClockUpdate+0x12>
  403a34:	4b29      	ldr	r3, [pc, #164]	; (403adc <SystemCoreClockUpdate+0xf0>)
  403a36:	6a1b      	ldr	r3, [r3, #32]
  403a38:	f013 7f80 	tst.w	r3, #16777216	; 0x1000000
  403a3c:	d003      	beq.n	403a46 <SystemCoreClockUpdate+0x5a>
  403a3e:	4a2a      	ldr	r2, [pc, #168]	; (403ae8 <SystemCoreClockUpdate+0xfc>)
  403a40:	4b27      	ldr	r3, [pc, #156]	; (403ae0 <SystemCoreClockUpdate+0xf4>)
  403a42:	601a      	str	r2, [r3, #0]
  403a44:	e7db      	b.n	4039fe <SystemCoreClockUpdate+0x12>
  403a46:	4a29      	ldr	r2, [pc, #164]	; (403aec <SystemCoreClockUpdate+0x100>)
  403a48:	4b25      	ldr	r3, [pc, #148]	; (403ae0 <SystemCoreClockUpdate+0xf4>)
  403a4a:	601a      	str	r2, [r3, #0]
  403a4c:	4b23      	ldr	r3, [pc, #140]	; (403adc <SystemCoreClockUpdate+0xf0>)
  403a4e:	6a1b      	ldr	r3, [r3, #32]
  403a50:	f003 0370 	and.w	r3, r3, #112	; 0x70
  403a54:	2b10      	cmp	r3, #16
  403a56:	d005      	beq.n	403a64 <SystemCoreClockUpdate+0x78>
  403a58:	2b20      	cmp	r3, #32
  403a5a:	d1d0      	bne.n	4039fe <SystemCoreClockUpdate+0x12>
  403a5c:	4a22      	ldr	r2, [pc, #136]	; (403ae8 <SystemCoreClockUpdate+0xfc>)
  403a5e:	4b20      	ldr	r3, [pc, #128]	; (403ae0 <SystemCoreClockUpdate+0xf4>)
  403a60:	601a      	str	r2, [r3, #0]
  403a62:	e7cc      	b.n	4039fe <SystemCoreClockUpdate+0x12>
  403a64:	4a22      	ldr	r2, [pc, #136]	; (403af0 <SystemCoreClockUpdate+0x104>)
  403a66:	4b1e      	ldr	r3, [pc, #120]	; (403ae0 <SystemCoreClockUpdate+0xf4>)
  403a68:	601a      	str	r2, [r3, #0]
  403a6a:	e7c8      	b.n	4039fe <SystemCoreClockUpdate+0x12>
  403a6c:	4b1b      	ldr	r3, [pc, #108]	; (403adc <SystemCoreClockUpdate+0xf0>)
  403a6e:	6a1b      	ldr	r3, [r3, #32]
  403a70:	f013 7f80 	tst.w	r3, #16777216	; 0x1000000
  403a74:	d016      	beq.n	403aa4 <SystemCoreClockUpdate+0xb8>
  403a76:	4a1c      	ldr	r2, [pc, #112]	; (403ae8 <SystemCoreClockUpdate+0xfc>)
  403a78:	4b19      	ldr	r3, [pc, #100]	; (403ae0 <SystemCoreClockUpdate+0xf4>)
  403a7a:	601a      	str	r2, [r3, #0]
  403a7c:	4b17      	ldr	r3, [pc, #92]	; (403adc <SystemCoreClockUpdate+0xf0>)
  403a7e:	6b1b      	ldr	r3, [r3, #48]	; 0x30
  403a80:	f003 0303 	and.w	r3, r3, #3
  403a84:	2b02      	cmp	r3, #2
  403a86:	d1ba      	bne.n	4039fe <SystemCoreClockUpdate+0x12>
  403a88:	4a14      	ldr	r2, [pc, #80]	; (403adc <SystemCoreClockUpdate+0xf0>)
  403a8a:	6a91      	ldr	r1, [r2, #40]	; 0x28
  403a8c:	6a92      	ldr	r2, [r2, #40]	; 0x28
  403a8e:	4814      	ldr	r0, [pc, #80]	; (403ae0 <SystemCoreClockUpdate+0xf4>)
  403a90:	f3c1 410a 	ubfx	r1, r1, #16, #11
  403a94:	6803      	ldr	r3, [r0, #0]
  403a96:	fb01 3303 	mla	r3, r1, r3, r3
  403a9a:	b2d2      	uxtb	r2, r2
  403a9c:	fbb3 f3f2 	udiv	r3, r3, r2
  403aa0:	6003      	str	r3, [r0, #0]
  403aa2:	e7ac      	b.n	4039fe <SystemCoreClockUpdate+0x12>
  403aa4:	4a11      	ldr	r2, [pc, #68]	; (403aec <SystemCoreClockUpdate+0x100>)
  403aa6:	4b0e      	ldr	r3, [pc, #56]	; (403ae0 <SystemCoreClockUpdate+0xf4>)
  403aa8:	601a      	str	r2, [r3, #0]
  403aaa:	4b0c      	ldr	r3, [pc, #48]	; (403adc <SystemCoreClockUpdate+0xf0>)
  403aac:	6a1b      	ldr	r3, [r3, #32]
  403aae:	f003 0370 	and.w	r3, r3, #112	; 0x70
  403ab2:	2b10      	cmp	r3, #16
  403ab4:	d005      	beq.n	403ac2 <SystemCoreClockUpdate+0xd6>
  403ab6:	2b20      	cmp	r3, #32
  403ab8:	d1e0      	bne.n	403a7c <SystemCoreClockUpdate+0x90>
  403aba:	4a0b      	ldr	r2, [pc, #44]	; (403ae8 <SystemCoreClockUpdate+0xfc>)
  403abc:	4b08      	ldr	r3, [pc, #32]	; (403ae0 <SystemCoreClockUpdate+0xf4>)
  403abe:	601a      	str	r2, [r3, #0]
  403ac0:	e7dc      	b.n	403a7c <SystemCoreClockUpdate+0x90>
  403ac2:	4a0b      	ldr	r2, [pc, #44]	; (403af0 <SystemCoreClockUpdate+0x104>)
  403ac4:	4b06      	ldr	r3, [pc, #24]	; (403ae0 <SystemCoreClockUpdate+0xf4>)
  403ac6:	601a      	str	r2, [r3, #0]
  403ac8:	e7d8      	b.n	403a7c <SystemCoreClockUpdate+0x90>
  403aca:	4a05      	ldr	r2, [pc, #20]	; (403ae0 <SystemCoreClockUpdate+0xf4>)
  403acc:	6813      	ldr	r3, [r2, #0]
  403ace:	4909      	ldr	r1, [pc, #36]	; (403af4 <SystemCoreClockUpdate+0x108>)
  403ad0:	fba1 1303 	umull	r1, r3, r1, r3
  403ad4:	085b      	lsrs	r3, r3, #1
  403ad6:	6013      	str	r3, [r2, #0]
  403ad8:	4770      	bx	lr
  403ada:	bf00      	nop
  403adc:	400e0600 	.word	0x400e0600
  403ae0:	20400020 	.word	0x20400020
  403ae4:	400e1810 	.word	0x400e1810
  403ae8:	00b71b00 	.word	0x00b71b00
  403aec:	003d0900 	.word	0x003d0900
  403af0:	007a1200 	.word	0x007a1200
  403af4:	aaaaaaab 	.word	0xaaaaaaab

00403af8 <system_init_flash>:
  403af8:	4b16      	ldr	r3, [pc, #88]	; (403b54 <system_init_flash+0x5c>)
  403afa:	4298      	cmp	r0, r3
  403afc:	d913      	bls.n	403b26 <system_init_flash+0x2e>
  403afe:	4b16      	ldr	r3, [pc, #88]	; (403b58 <system_init_flash+0x60>)
  403b00:	4298      	cmp	r0, r3
  403b02:	d915      	bls.n	403b30 <system_init_flash+0x38>
  403b04:	4b15      	ldr	r3, [pc, #84]	; (403b5c <system_init_flash+0x64>)
  403b06:	4298      	cmp	r0, r3
  403b08:	d916      	bls.n	403b38 <system_init_flash+0x40>
  403b0a:	4b15      	ldr	r3, [pc, #84]	; (403b60 <system_init_flash+0x68>)
  403b0c:	4298      	cmp	r0, r3
  403b0e:	d917      	bls.n	403b40 <system_init_flash+0x48>
  403b10:	4b14      	ldr	r3, [pc, #80]	; (403b64 <system_init_flash+0x6c>)
  403b12:	4298      	cmp	r0, r3
  403b14:	d918      	bls.n	403b48 <system_init_flash+0x50>
  403b16:	4b14      	ldr	r3, [pc, #80]	; (403b68 <system_init_flash+0x70>)
  403b18:	4298      	cmp	r0, r3
  403b1a:	bf94      	ite	ls
  403b1c:	4a13      	ldrls	r2, [pc, #76]	; (403b6c <system_init_flash+0x74>)
  403b1e:	4a14      	ldrhi	r2, [pc, #80]	; (403b70 <system_init_flash+0x78>)
  403b20:	4b14      	ldr	r3, [pc, #80]	; (403b74 <system_init_flash+0x7c>)
  403b22:	601a      	str	r2, [r3, #0]
  403b24:	4770      	bx	lr
  403b26:	f04f 6280 	mov.w	r2, #67108864	; 0x4000000
  403b2a:	4b12      	ldr	r3, [pc, #72]	; (403b74 <system_init_flash+0x7c>)
  403b2c:	601a      	str	r2, [r3, #0]
  403b2e:	4770      	bx	lr
  403b30:	4a11      	ldr	r2, [pc, #68]	; (403b78 <system_init_flash+0x80>)
  403b32:	4b10      	ldr	r3, [pc, #64]	; (403b74 <system_init_flash+0x7c>)
  403b34:	601a      	str	r2, [r3, #0]
  403b36:	4770      	bx	lr
  403b38:	4a10      	ldr	r2, [pc, #64]	; (403b7c <system_init_flash+0x84>)
  403b3a:	4b0e      	ldr	r3, [pc, #56]	; (403b74 <system_init_flash+0x7c>)
  403b3c:	601a      	str	r2, [r3, #0]
  403b3e:	4770      	bx	lr
  403b40:	4a0f      	ldr	r2, [pc, #60]	; (403b80 <system_init_flash+0x88>)
  403b42:	4b0c      	ldr	r3, [pc, #48]	; (403b74 <system_init_flash+0x7c>)
  403b44:	601a      	str	r2, [r3, #0]
  403b46:	4770      	bx	lr
  403b48:	f04f 2204 	mov.w	r2, #67109888	; 0x4000400
  403b4c:	4b09      	ldr	r3, [pc, #36]	; (403b74 <system_init_flash+0x7c>)
  403b4e:	601a      	str	r2, [r3, #0]
  403b50:	4770      	bx	lr
  403b52:	bf00      	nop
  403b54:	015ef3bf 	.word	0x015ef3bf
  403b58:	02bde77f 	.word	0x02bde77f
  403b5c:	041cdb3f 	.word	0x041cdb3f
  403b60:	057bceff 	.word	0x057bceff
  403b64:	06dac2bf 	.word	0x06dac2bf
  403b68:	0839b67f 	.word	0x0839b67f
  403b6c:	04000500 	.word	0x04000500
  403b70:	04000600 	.word	0x04000600
  403b74:	400e0c00 	.word	0x400e0c00
  403b78:	04000100 	.word	0x04000100
  403b7c:	04000200 	.word	0x04000200
  403b80:	04000300 	.word	0x04000300

00403b84 <_sbrk>:
  403b84:	4b0a      	ldr	r3, [pc, #40]	; (403bb0 <_sbrk+0x2c>)
  403b86:	681b      	ldr	r3, [r3, #0]
  403b88:	b153      	cbz	r3, 403ba0 <_sbrk+0x1c>
  403b8a:	4b09      	ldr	r3, [pc, #36]	; (403bb0 <_sbrk+0x2c>)
  403b8c:	681b      	ldr	r3, [r3, #0]
  403b8e:	181a      	adds	r2, r3, r0
  403b90:	4908      	ldr	r1, [pc, #32]	; (403bb4 <_sbrk+0x30>)
  403b92:	4291      	cmp	r1, r2
  403b94:	db08      	blt.n	403ba8 <_sbrk+0x24>
  403b96:	4610      	mov	r0, r2
  403b98:	4a05      	ldr	r2, [pc, #20]	; (403bb0 <_sbrk+0x2c>)
  403b9a:	6010      	str	r0, [r2, #0]
  403b9c:	4618      	mov	r0, r3
  403b9e:	4770      	bx	lr
  403ba0:	4a05      	ldr	r2, [pc, #20]	; (403bb8 <_sbrk+0x34>)
  403ba2:	4b03      	ldr	r3, [pc, #12]	; (403bb0 <_sbrk+0x2c>)
  403ba4:	601a      	str	r2, [r3, #0]
  403ba6:	e7f0      	b.n	403b8a <_sbrk+0x6>
  403ba8:	f04f 30ff 	mov.w	r0, #4294967295
  403bac:	4770      	bx	lr
  403bae:	bf00      	nop
  403bb0:	2040c5bc 	.word	0x2040c5bc
  403bb4:	2045fffc 	.word	0x2045fffc
  403bb8:	2040e870 	.word	0x2040e870

00403bbc <_close>:
  403bbc:	f04f 30ff 	mov.w	r0, #4294967295
  403bc0:	4770      	bx	lr

00403bc2 <_fstat>:
  403bc2:	f44f 5300 	mov.w	r3, #8192	; 0x2000
  403bc6:	604b      	str	r3, [r1, #4]
  403bc8:	2000      	movs	r0, #0
  403bca:	4770      	bx	lr

00403bcc <_isatty>:
  403bcc:	2001      	movs	r0, #1
  403bce:	4770      	bx	lr

00403bd0 <_lseek>:
  403bd0:	2000      	movs	r0, #0
  403bd2:	4770      	bx	lr

00403bd4 <task_oled>:
}
void apaga_tela() {
	gfx_mono_draw_filled_rect(0, 0, 120, 30, GFX_PIXEL_CLR);
}

static void task_oled(void *pvParameters) {
  403bd4:	b508      	push	{r3, lr}
	gfx_mono_ssd1306_init();
  403bd6:	4b07      	ldr	r3, [pc, #28]	; (403bf4 <task_oled+0x20>)
  403bd8:	4798      	blx	r3
	gfx_mono_draw_string("Exemplo RTOS", 0, 0, &sysfont);
  403bda:	4d07      	ldr	r5, [pc, #28]	; (403bf8 <task_oled+0x24>)
  403bdc:	462b      	mov	r3, r5
  403bde:	2200      	movs	r2, #0
  403be0:	4611      	mov	r1, r2
  403be2:	4806      	ldr	r0, [pc, #24]	; (403bfc <task_oled+0x28>)
  403be4:	4c06      	ldr	r4, [pc, #24]	; (403c00 <task_oled+0x2c>)
  403be6:	47a0      	blx	r4
	gfx_mono_draw_string("oii", 0, 20, &sysfont);
  403be8:	462b      	mov	r3, r5
  403bea:	2214      	movs	r2, #20
  403bec:	2100      	movs	r1, #0
  403bee:	4805      	ldr	r0, [pc, #20]	; (403c04 <task_oled+0x30>)
  403bf0:	47a0      	blx	r4
  403bf2:	e7fe      	b.n	403bf2 <task_oled+0x1e>
  403bf4:	00402e81 	.word	0x00402e81
  403bf8:	20400010 	.word	0x20400010
  403bfc:	0040a3fc 	.word	0x0040a3fc
  403c00:	00402de9 	.word	0x00402de9
  403c04:	0040a40c 	.word	0x0040a40c

00403c08 <usart_serial_getchar>:
 * \param p_usart   Base address of the USART instance.
 * \param data   Data to read
 *
 */
static inline void usart_serial_getchar(usart_if p_usart, uint8_t *data)
{
  403c08:	b5f0      	push	{r4, r5, r6, r7, lr}
  403c0a:	b083      	sub	sp, #12
  403c0c:	4605      	mov	r5, r0
  403c0e:	460c      	mov	r4, r1
	uint32_t val = 0;
  403c10:	2300      	movs	r3, #0
  403c12:	9301      	str	r3, [sp, #4]
	if (UART == (Uart*)p_usart) {
		while (uart_read((Uart*)p_usart, data));
	}
#else
# ifdef UART0
	if (UART0 == (Uart*)p_usart) {
  403c14:	4b2a      	ldr	r3, [pc, #168]	; (403cc0 <usart_serial_getchar+0xb8>)
  403c16:	4298      	cmp	r0, r3
  403c18:	d013      	beq.n	403c42 <usart_serial_getchar+0x3a>
		while (uart_read((Uart*)p_usart, data));
	}
# endif
# ifdef UART1
	if (UART1 == (Uart*)p_usart) {
  403c1a:	4b2a      	ldr	r3, [pc, #168]	; (403cc4 <usart_serial_getchar+0xbc>)
  403c1c:	4298      	cmp	r0, r3
  403c1e:	d018      	beq.n	403c52 <usart_serial_getchar+0x4a>
		while (uart_read((Uart*)p_usart, data));
	}
# endif
# ifdef UART2
	if (UART2 == (Uart*)p_usart) {
  403c20:	4b29      	ldr	r3, [pc, #164]	; (403cc8 <usart_serial_getchar+0xc0>)
  403c22:	4298      	cmp	r0, r3
  403c24:	d01d      	beq.n	403c62 <usart_serial_getchar+0x5a>
		while (uart_read((Uart*)p_usart, data));
	}
# endif
# ifdef UART3
	if (UART3 == (Uart*)p_usart) {
  403c26:	4b29      	ldr	r3, [pc, #164]	; (403ccc <usart_serial_getchar+0xc4>)
  403c28:	429d      	cmp	r5, r3
  403c2a:	d022      	beq.n	403c72 <usart_serial_getchar+0x6a>
		while (usart_read(p_usart, &val));
		*data = (uint8_t)(val & 0xFF);
	}
#else
# ifdef USART0
	if (USART0 == p_usart) {
  403c2c:	4b28      	ldr	r3, [pc, #160]	; (403cd0 <usart_serial_getchar+0xc8>)
  403c2e:	429d      	cmp	r5, r3
  403c30:	d027      	beq.n	403c82 <usart_serial_getchar+0x7a>
		while (usart_read(p_usart, &val));
		*data = (uint8_t)(val & 0xFF);
	}
# endif
# ifdef USART1
	if (USART1 == p_usart) {
  403c32:	4b28      	ldr	r3, [pc, #160]	; (403cd4 <usart_serial_getchar+0xcc>)
  403c34:	429d      	cmp	r5, r3
  403c36:	d02e      	beq.n	403c96 <usart_serial_getchar+0x8e>
		while (usart_read(p_usart, &val));
		*data = (uint8_t)(val & 0xFF);
	}
# endif
# ifdef USART2
	if (USART2 == p_usart) {
  403c38:	4b27      	ldr	r3, [pc, #156]	; (403cd8 <usart_serial_getchar+0xd0>)
  403c3a:	429d      	cmp	r5, r3
  403c3c:	d035      	beq.n	403caa <usart_serial_getchar+0xa2>
		*data = (uint8_t)(val & 0xFF);
	}
# endif
#endif /* ifdef USART */

}
  403c3e:	b003      	add	sp, #12
  403c40:	bdf0      	pop	{r4, r5, r6, r7, pc}
		while (uart_read((Uart*)p_usart, data));
  403c42:	461f      	mov	r7, r3
  403c44:	4e25      	ldr	r6, [pc, #148]	; (403cdc <usart_serial_getchar+0xd4>)
  403c46:	4621      	mov	r1, r4
  403c48:	4638      	mov	r0, r7
  403c4a:	47b0      	blx	r6
  403c4c:	2800      	cmp	r0, #0
  403c4e:	d1fa      	bne.n	403c46 <usart_serial_getchar+0x3e>
  403c50:	e7e9      	b.n	403c26 <usart_serial_getchar+0x1e>
		while (uart_read((Uart*)p_usart, data));
  403c52:	461f      	mov	r7, r3
  403c54:	4e21      	ldr	r6, [pc, #132]	; (403cdc <usart_serial_getchar+0xd4>)
  403c56:	4621      	mov	r1, r4
  403c58:	4638      	mov	r0, r7
  403c5a:	47b0      	blx	r6
  403c5c:	2800      	cmp	r0, #0
  403c5e:	d1fa      	bne.n	403c56 <usart_serial_getchar+0x4e>
  403c60:	e7e4      	b.n	403c2c <usart_serial_getchar+0x24>
		while (uart_read((Uart*)p_usart, data));
  403c62:	461f      	mov	r7, r3
  403c64:	4e1d      	ldr	r6, [pc, #116]	; (403cdc <usart_serial_getchar+0xd4>)
  403c66:	4621      	mov	r1, r4
  403c68:	4638      	mov	r0, r7
  403c6a:	47b0      	blx	r6
  403c6c:	2800      	cmp	r0, #0
  403c6e:	d1fa      	bne.n	403c66 <usart_serial_getchar+0x5e>
  403c70:	e7df      	b.n	403c32 <usart_serial_getchar+0x2a>
		while (uart_read((Uart*)p_usart, data));
  403c72:	461f      	mov	r7, r3
  403c74:	4e19      	ldr	r6, [pc, #100]	; (403cdc <usart_serial_getchar+0xd4>)
  403c76:	4621      	mov	r1, r4
  403c78:	4638      	mov	r0, r7
  403c7a:	47b0      	blx	r6
  403c7c:	2800      	cmp	r0, #0
  403c7e:	d1fa      	bne.n	403c76 <usart_serial_getchar+0x6e>
  403c80:	e7da      	b.n	403c38 <usart_serial_getchar+0x30>
		while (usart_read(p_usart, &val));
  403c82:	461e      	mov	r6, r3
  403c84:	4d16      	ldr	r5, [pc, #88]	; (403ce0 <usart_serial_getchar+0xd8>)
  403c86:	a901      	add	r1, sp, #4
  403c88:	4630      	mov	r0, r6
  403c8a:	47a8      	blx	r5
  403c8c:	2800      	cmp	r0, #0
  403c8e:	d1fa      	bne.n	403c86 <usart_serial_getchar+0x7e>
		*data = (uint8_t)(val & 0xFF);
  403c90:	9b01      	ldr	r3, [sp, #4]
  403c92:	7023      	strb	r3, [r4, #0]
  403c94:	e7d3      	b.n	403c3e <usart_serial_getchar+0x36>
		while (usart_read(p_usart, &val));
  403c96:	461e      	mov	r6, r3
  403c98:	4d11      	ldr	r5, [pc, #68]	; (403ce0 <usart_serial_getchar+0xd8>)
  403c9a:	a901      	add	r1, sp, #4
  403c9c:	4630      	mov	r0, r6
  403c9e:	47a8      	blx	r5
  403ca0:	2800      	cmp	r0, #0
  403ca2:	d1fa      	bne.n	403c9a <usart_serial_getchar+0x92>
		*data = (uint8_t)(val & 0xFF);
  403ca4:	9b01      	ldr	r3, [sp, #4]
  403ca6:	7023      	strb	r3, [r4, #0]
  403ca8:	e7c9      	b.n	403c3e <usart_serial_getchar+0x36>
		while (usart_read(p_usart, &val));
  403caa:	461e      	mov	r6, r3
  403cac:	4d0c      	ldr	r5, [pc, #48]	; (403ce0 <usart_serial_getchar+0xd8>)
  403cae:	a901      	add	r1, sp, #4
  403cb0:	4630      	mov	r0, r6
  403cb2:	47a8      	blx	r5
  403cb4:	2800      	cmp	r0, #0
  403cb6:	d1fa      	bne.n	403cae <usart_serial_getchar+0xa6>
		*data = (uint8_t)(val & 0xFF);
  403cb8:	9b01      	ldr	r3, [sp, #4]
  403cba:	7023      	strb	r3, [r4, #0]
}
  403cbc:	e7bf      	b.n	403c3e <usart_serial_getchar+0x36>
  403cbe:	bf00      	nop
  403cc0:	400e0800 	.word	0x400e0800
  403cc4:	400e0a00 	.word	0x400e0a00
  403cc8:	400e1a00 	.word	0x400e1a00
  403ccc:	400e1c00 	.word	0x400e1c00
  403cd0:	40024000 	.word	0x40024000
  403cd4:	40028000 	.word	0x40028000
  403cd8:	4002c000 	.word	0x4002c000
  403cdc:	004037ff 	.word	0x004037ff
  403ce0:	0040390b 	.word	0x0040390b

00403ce4 <usart_serial_putchar>:
{
  403ce4:	b570      	push	{r4, r5, r6, lr}
  403ce6:	460c      	mov	r4, r1
	if (UART0 == (Uart*)p_usart) {
  403ce8:	4b2a      	ldr	r3, [pc, #168]	; (403d94 <usart_serial_putchar+0xb0>)
  403cea:	4298      	cmp	r0, r3
  403cec:	d013      	beq.n	403d16 <usart_serial_putchar+0x32>
	if (UART1 == (Uart*)p_usart) {
  403cee:	4b2a      	ldr	r3, [pc, #168]	; (403d98 <usart_serial_putchar+0xb4>)
  403cf0:	4298      	cmp	r0, r3
  403cf2:	d019      	beq.n	403d28 <usart_serial_putchar+0x44>
	if (UART2 == (Uart*)p_usart) {
  403cf4:	4b29      	ldr	r3, [pc, #164]	; (403d9c <usart_serial_putchar+0xb8>)
  403cf6:	4298      	cmp	r0, r3
  403cf8:	d01f      	beq.n	403d3a <usart_serial_putchar+0x56>
	if (UART3 == (Uart*)p_usart) {
  403cfa:	4b29      	ldr	r3, [pc, #164]	; (403da0 <usart_serial_putchar+0xbc>)
  403cfc:	4298      	cmp	r0, r3
  403cfe:	d025      	beq.n	403d4c <usart_serial_putchar+0x68>
	if (USART0 == p_usart) {
  403d00:	4b28      	ldr	r3, [pc, #160]	; (403da4 <usart_serial_putchar+0xc0>)
  403d02:	4298      	cmp	r0, r3
  403d04:	d02b      	beq.n	403d5e <usart_serial_putchar+0x7a>
	if (USART1 == p_usart) {
  403d06:	4b28      	ldr	r3, [pc, #160]	; (403da8 <usart_serial_putchar+0xc4>)
  403d08:	4298      	cmp	r0, r3
  403d0a:	d031      	beq.n	403d70 <usart_serial_putchar+0x8c>
	if (USART2 == p_usart) {
  403d0c:	4b27      	ldr	r3, [pc, #156]	; (403dac <usart_serial_putchar+0xc8>)
  403d0e:	4298      	cmp	r0, r3
  403d10:	d037      	beq.n	403d82 <usart_serial_putchar+0x9e>
	return 0;
  403d12:	2000      	movs	r0, #0
}
  403d14:	bd70      	pop	{r4, r5, r6, pc}
		while (uart_write((Uart*)p_usart, c)!=0);
  403d16:	461e      	mov	r6, r3
  403d18:	4d25      	ldr	r5, [pc, #148]	; (403db0 <usart_serial_putchar+0xcc>)
  403d1a:	4621      	mov	r1, r4
  403d1c:	4630      	mov	r0, r6
  403d1e:	47a8      	blx	r5
  403d20:	2800      	cmp	r0, #0
  403d22:	d1fa      	bne.n	403d1a <usart_serial_putchar+0x36>
		return 1;
  403d24:	2001      	movs	r0, #1
  403d26:	bd70      	pop	{r4, r5, r6, pc}
		while (uart_write((Uart*)p_usart, c)!=0);
  403d28:	461e      	mov	r6, r3
  403d2a:	4d21      	ldr	r5, [pc, #132]	; (403db0 <usart_serial_putchar+0xcc>)
  403d2c:	4621      	mov	r1, r4
  403d2e:	4630      	mov	r0, r6
  403d30:	47a8      	blx	r5
  403d32:	2800      	cmp	r0, #0
  403d34:	d1fa      	bne.n	403d2c <usart_serial_putchar+0x48>
		return 1;
  403d36:	2001      	movs	r0, #1
  403d38:	bd70      	pop	{r4, r5, r6, pc}
		while (uart_write((Uart*)p_usart, c)!=0);
  403d3a:	461e      	mov	r6, r3
  403d3c:	4d1c      	ldr	r5, [pc, #112]	; (403db0 <usart_serial_putchar+0xcc>)
  403d3e:	4621      	mov	r1, r4
  403d40:	4630      	mov	r0, r6
  403d42:	47a8      	blx	r5
  403d44:	2800      	cmp	r0, #0
  403d46:	d1fa      	bne.n	403d3e <usart_serial_putchar+0x5a>
		return 1;
  403d48:	2001      	movs	r0, #1
  403d4a:	bd70      	pop	{r4, r5, r6, pc}
		while (uart_write((Uart*)p_usart, c)!=0);
  403d4c:	461e      	mov	r6, r3
  403d4e:	4d18      	ldr	r5, [pc, #96]	; (403db0 <usart_serial_putchar+0xcc>)
  403d50:	4621      	mov	r1, r4
  403d52:	4630      	mov	r0, r6
  403d54:	47a8      	blx	r5
  403d56:	2800      	cmp	r0, #0
  403d58:	d1fa      	bne.n	403d50 <usart_serial_putchar+0x6c>
		return 1;
  403d5a:	2001      	movs	r0, #1
  403d5c:	bd70      	pop	{r4, r5, r6, pc}
		while (usart_write(p_usart, c)!=0);
  403d5e:	461e      	mov	r6, r3
  403d60:	4d14      	ldr	r5, [pc, #80]	; (403db4 <usart_serial_putchar+0xd0>)
  403d62:	4621      	mov	r1, r4
  403d64:	4630      	mov	r0, r6
  403d66:	47a8      	blx	r5
  403d68:	2800      	cmp	r0, #0
  403d6a:	d1fa      	bne.n	403d62 <usart_serial_putchar+0x7e>
		return 1;
  403d6c:	2001      	movs	r0, #1
  403d6e:	bd70      	pop	{r4, r5, r6, pc}
		while (usart_write(p_usart, c)!=0);
  403d70:	461e      	mov	r6, r3
  403d72:	4d10      	ldr	r5, [pc, #64]	; (403db4 <usart_serial_putchar+0xd0>)
  403d74:	4621      	mov	r1, r4
  403d76:	4630      	mov	r0, r6
  403d78:	47a8      	blx	r5
  403d7a:	2800      	cmp	r0, #0
  403d7c:	d1fa      	bne.n	403d74 <usart_serial_putchar+0x90>
		return 1;
  403d7e:	2001      	movs	r0, #1
  403d80:	bd70      	pop	{r4, r5, r6, pc}
		while (usart_write(p_usart, c)!=0);
  403d82:	461e      	mov	r6, r3
  403d84:	4d0b      	ldr	r5, [pc, #44]	; (403db4 <usart_serial_putchar+0xd0>)
  403d86:	4621      	mov	r1, r4
  403d88:	4630      	mov	r0, r6
  403d8a:	47a8      	blx	r5
  403d8c:	2800      	cmp	r0, #0
  403d8e:	d1fa      	bne.n	403d86 <usart_serial_putchar+0xa2>
		return 1;
  403d90:	2001      	movs	r0, #1
  403d92:	bd70      	pop	{r4, r5, r6, pc}
  403d94:	400e0800 	.word	0x400e0800
  403d98:	400e0a00 	.word	0x400e0a00
  403d9c:	400e1a00 	.word	0x400e1a00
  403da0:	400e1c00 	.word	0x400e1c00
  403da4:	40024000 	.word	0x40024000
  403da8:	40028000 	.word	0x40028000
  403dac:	4002c000 	.word	0x4002c000
  403db0:	004037ed 	.word	0x004037ed
  403db4:	004038f5 	.word	0x004038f5

00403db8 <vApplicationStackOverflowHook>:
extern void vApplicationStackOverflowHook(xTaskHandle *pxTask, signed char *pcTaskName) {
  403db8:	b508      	push	{r3, lr}
	printf("stack overflow %x %s\r\n", pxTask, (portCHAR *)pcTaskName);
  403dba:	460a      	mov	r2, r1
  403dbc:	4601      	mov	r1, r0
  403dbe:	4802      	ldr	r0, [pc, #8]	; (403dc8 <vApplicationStackOverflowHook+0x10>)
  403dc0:	4b02      	ldr	r3, [pc, #8]	; (403dcc <vApplicationStackOverflowHook+0x14>)
  403dc2:	4798      	blx	r3
  403dc4:	e7fe      	b.n	403dc4 <vApplicationStackOverflowHook+0xc>
  403dc6:	bf00      	nop
  403dc8:	0040a448 	.word	0x0040a448
  403dcc:	00407085 	.word	0x00407085

00403dd0 <vApplicationTickHook>:
extern void vApplicationTickHook(void) { }
  403dd0:	4770      	bx	lr

00403dd2 <vApplicationMallocFailedHook>:

portFORCE_INLINE static void vPortRaiseBASEPRI( void )
{
uint32_t ulNewBASEPRI;

	__asm volatile
  403dd2:	f04f 0380 	mov.w	r3, #128	; 0x80
  403dd6:	b672      	cpsid	i
  403dd8:	f383 8811 	msr	BASEPRI, r3
  403ddc:	f3bf 8f6f 	isb	sy
  403de0:	f3bf 8f4f 	dsb	sy
  403de4:	b662      	cpsie	i
  403de6:	e7fe      	b.n	403de6 <vApplicationMallocFailedHook+0x14>

00403de8 <mcu6050_i2c_bus_write>:
{
  403de8:	b500      	push	{lr}
  403dea:	b087      	sub	sp, #28
	p_packet.chip         = dev_addr;
  403dec:	f88d 0014 	strb.w	r0, [sp, #20]
	p_packet.addr[0]      = reg_addr;
  403df0:	f88d 1004 	strb.w	r1, [sp, #4]
	p_packet.addr_length  = 1;
  403df4:	2101      	movs	r1, #1
  403df6:	9102      	str	r1, [sp, #8]
	p_packet.buffer       = reg_data;
  403df8:	9203      	str	r2, [sp, #12]
	p_packet.length       = cnt;
  403dfa:	9304      	str	r3, [sp, #16]
	ierror = twihs_master_write(TWIHS2, &p_packet);
  403dfc:	a901      	add	r1, sp, #4
  403dfe:	4803      	ldr	r0, [pc, #12]	; (403e0c <mcu6050_i2c_bus_write+0x24>)
  403e00:	4b03      	ldr	r3, [pc, #12]	; (403e10 <mcu6050_i2c_bus_write+0x28>)
  403e02:	4798      	blx	r3
}
  403e04:	b240      	sxtb	r0, r0
  403e06:	b007      	add	sp, #28
  403e08:	f85d fb04 	ldr.w	pc, [sp], #4
  403e0c:	40060000 	.word	0x40060000
  403e10:	00400489 	.word	0x00400489

00403e14 <mcu6050_i2c_bus_read>:
{
  403e14:	b500      	push	{lr}
  403e16:	b087      	sub	sp, #28
	p_packet.chip         = dev_addr;
  403e18:	f88d 0014 	strb.w	r0, [sp, #20]
	p_packet.addr[0]      = reg_addr;
  403e1c:	f88d 1004 	strb.w	r1, [sp, #4]
	p_packet.addr_length  = 1;
  403e20:	2101      	movs	r1, #1
  403e22:	9102      	str	r1, [sp, #8]
	p_packet.buffer       = reg_data;
  403e24:	9203      	str	r2, [sp, #12]
	p_packet.length       = cnt;
  403e26:	9304      	str	r3, [sp, #16]
	ierror = twihs_master_read(TWIHS2, &p_packet);
  403e28:	a901      	add	r1, sp, #4
  403e2a:	4803      	ldr	r0, [pc, #12]	; (403e38 <mcu6050_i2c_bus_read+0x24>)
  403e2c:	4b03      	ldr	r3, [pc, #12]	; (403e3c <mcu6050_i2c_bus_read+0x28>)
  403e2e:	4798      	blx	r3
}
  403e30:	b240      	sxtb	r0, r0
  403e32:	b007      	add	sp, #28
  403e34:	f85d fb04 	ldr.w	pc, [sp], #4
  403e38:	40060000 	.word	0x40060000
  403e3c:	004003dd 	.word	0x004003dd

00403e40 <mcu6050_i2c_bus_init>:
void mcu6050_i2c_bus_init(void){
  403e40:	b530      	push	{r4, r5, lr}
  403e42:	b085      	sub	sp, #20
	pmc_enable_periph_clk(ID_TWIHS2);
  403e44:	2029      	movs	r0, #41	; 0x29
  403e46:	4c0e      	ldr	r4, [pc, #56]	; (403e80 <mcu6050_i2c_bus_init+0x40>)
  403e48:	47a0      	blx	r4
	mcu6050_option.master_clk = sysclk_get_cpu_hz();
  403e4a:	4b0e      	ldr	r3, [pc, #56]	; (403e84 <mcu6050_i2c_bus_init+0x44>)
  403e4c:	9301      	str	r3, [sp, #4]
	mcu6050_option.speed      = 40000;
  403e4e:	f649 4340 	movw	r3, #40000	; 0x9c40
  403e52:	9302      	str	r3, [sp, #8]
	twihs_master_init(TWIHS2, &mcu6050_option);
  403e54:	a901      	add	r1, sp, #4
  403e56:	480c      	ldr	r0, [pc, #48]	; (403e88 <mcu6050_i2c_bus_init+0x48>)
  403e58:	4b0c      	ldr	r3, [pc, #48]	; (403e8c <mcu6050_i2c_bus_init+0x4c>)
  403e5a:	4798      	blx	r3
	pmc_enable_periph_clk(ID_PIOD);
  403e5c:	2010      	movs	r0, #16
  403e5e:	47a0      	blx	r4
	pio_set_peripheral(PIOD, PIO_TYPE_PIO_PERIPH_C, 1 << 28);
  403e60:	4d0b      	ldr	r5, [pc, #44]	; (403e90 <mcu6050_i2c_bus_init+0x50>)
  403e62:	f04f 5280 	mov.w	r2, #268435456	; 0x10000000
  403e66:	f04f 51c0 	mov.w	r1, #402653184	; 0x18000000
  403e6a:	4628      	mov	r0, r5
  403e6c:	4c09      	ldr	r4, [pc, #36]	; (403e94 <mcu6050_i2c_bus_init+0x54>)
  403e6e:	47a0      	blx	r4
	pio_set_peripheral(PIOD, PIO_TYPE_PIO_PERIPH_C, 1 << 27);
  403e70:	f04f 6200 	mov.w	r2, #134217728	; 0x8000000
  403e74:	f04f 51c0 	mov.w	r1, #402653184	; 0x18000000
  403e78:	4628      	mov	r0, r5
  403e7a:	47a0      	blx	r4
}
  403e7c:	b005      	add	sp, #20
  403e7e:	bd30      	pop	{r4, r5, pc}
  403e80:	00403799 	.word	0x00403799
  403e84:	11e1a300 	.word	0x11e1a300
  403e88:	40060000 	.word	0x40060000
  403e8c:	004003a9 	.word	0x004003a9
  403e90:	400e1400 	.word	0x400e1400
  403e94:	0040343d 	.word	0x0040343d

00403e98 <task_imu>:
		}
	}
}


static void task_imu(void *pvParameters) {
  403e98:	e92d 4df0 	stmdb	sp!, {r4, r5, r6, r7, r8, sl, fp, lr}
  403e9c:	ed2d 8b0e 	vpush	{d8-d14}
  403ea0:	b0b4      	sub	sp, #208	; 0xd0
	mcu6050_i2c_bus_init();
  403ea2:	4b6f      	ldr	r3, [pc, #444]	; (404060 <task_imu+0x1c8>)
  403ea4:	4798      	blx	r3


	/* Inicializa Fun  o de fus o */
	FusionAhrs ahrs;
	FusionAhrsInitialise(&ahrs);
  403ea6:	a817      	add	r0, sp, #92	; 0x5c
  403ea8:	4b6e      	ldr	r3, [pc, #440]	; (404064 <task_imu+0x1cc>)
  403eaa:	4798      	blx	r3


	/* resultado da fun  o */
	uint8_t rtn;
	
	 rtn = twihs_probe(TWIHS2, MPU6050_DEFAULT_ADDRESS);
  403eac:	2168      	movs	r1, #104	; 0x68
  403eae:	486e      	ldr	r0, [pc, #440]	; (404068 <task_imu+0x1d0>)
  403eb0:	4b6e      	ldr	r3, [pc, #440]	; (40406c <task_imu+0x1d4>)
  403eb2:	4798      	blx	r3
	 if(rtn != TWIHS_SUCCESS){
  403eb4:	b2c0      	uxtb	r0, r0
  403eb6:	2800      	cmp	r0, #0
  403eb8:	d03c      	beq.n	403f34 <task_imu+0x9c>
		 printf("[ERRO] [i2c] [probe] \n");
  403eba:	486d      	ldr	r0, [pc, #436]	; (404070 <task_imu+0x1d8>)
  403ebc:	4b6d      	ldr	r3, [pc, #436]	; (404074 <task_imu+0x1dc>)
  403ebe:	4798      	blx	r3
		 } else {
		 printf("[DADO] [i2c] probe OK\n" );
	 }
	
	// L  registrador WHO AM I
	rtn = mcu6050_i2c_bus_read(MPU6050_DEFAULT_ADDRESS, MPU6050_RA_WHO_AM_I, bufferRX, 1);
  403ec0:	2301      	movs	r3, #1
  403ec2:	aa14      	add	r2, sp, #80	; 0x50
  403ec4:	2175      	movs	r1, #117	; 0x75
  403ec6:	2068      	movs	r0, #104	; 0x68
  403ec8:	4c6b      	ldr	r4, [pc, #428]	; (404078 <task_imu+0x1e0>)
  403eca:	47a0      	blx	r4
	if(rtn != TWIHS_SUCCESS){
  403ecc:	2800      	cmp	r0, #0
  403ece:	d035      	beq.n	403f3c <task_imu+0xa4>
		printf("[ERRO] [i2c] [read] \n");
  403ed0:	486a      	ldr	r0, [pc, #424]	; (40407c <task_imu+0x1e4>)
  403ed2:	4b68      	ldr	r3, [pc, #416]	; (404074 <task_imu+0x1dc>)
  403ed4:	4798      	blx	r3
		} else {
		printf("[DADO] [i2c] %x:%x", MPU6050_RA_WHO_AM_I, bufferRX[0]);
		printf("%x", bufferRX[0]);
	}
	
	if (bufferRX[0] == 104){
  403ed6:	f89d 3050 	ldrb.w	r3, [sp, #80]	; 0x50
  403eda:	2b68      	cmp	r3, #104	; 0x68
		printf("SUCESSO!");
  403edc:	bf0c      	ite	eq
  403ede:	4868      	ldreq	r0, [pc, #416]	; (404080 <task_imu+0x1e8>)
	}
	else{
		printf("Incorreto :(");
  403ee0:	4868      	ldrne	r0, [pc, #416]	; (404084 <task_imu+0x1ec>)
  403ee2:	4b64      	ldr	r3, [pc, #400]	; (404074 <task_imu+0x1dc>)
  403ee4:	4798      	blx	r3
	}
	
	// Set Clock source
	bufferTX[0] = MPU6050_CLOCK_PLL_XGYRO;
  403ee6:	2301      	movs	r3, #1
  403ee8:	aa34      	add	r2, sp, #208	; 0xd0
  403eea:	f802 3d8c 	strb.w	r3, [r2, #-140]!
	rtn = mcu6050_i2c_bus_write(MPU6050_DEFAULT_ADDRESS, MPU6050_RA_PWR_MGMT_1, bufferTX, 1);
  403eee:	216b      	movs	r1, #107	; 0x6b
  403ef0:	2068      	movs	r0, #104	; 0x68
  403ef2:	4c65      	ldr	r4, [pc, #404]	; (404088 <task_imu+0x1f0>)
  403ef4:	47a0      	blx	r4
	if(rtn != TWIHS_SUCCESS)
  403ef6:	bb60      	cbnz	r0, 403f52 <task_imu+0xba>
	printf("[ERRO] [i2c] [write] \n");

	// Aceletromtro em 2G
	bufferTX[0] = MPU6050_ACCEL_FS_2 << MPU6050_ACONFIG_AFS_SEL_BIT;
  403ef8:	aa34      	add	r2, sp, #208	; 0xd0
  403efa:	2300      	movs	r3, #0
  403efc:	f802 3d8c 	strb.w	r3, [r2, #-140]!
	rtn = mcu6050_i2c_bus_write(MPU6050_DEFAULT_ADDRESS, MPU6050_RA_ACCEL_CONFIG, bufferTX, 1);
  403f00:	2301      	movs	r3, #1
  403f02:	211c      	movs	r1, #28
  403f04:	2068      	movs	r0, #104	; 0x68
  403f06:	4c60      	ldr	r4, [pc, #384]	; (404088 <task_imu+0x1f0>)
  403f08:	47a0      	blx	r4
	if(rtn != TWIHS_SUCCESS)
  403f0a:	bb30      	cbnz	r0, 403f5a <task_imu+0xc2>
	printf("[ERRO] [i2c] [write] \n");

	// Configura range giroscopio para operar com 250  /s
	bufferTX[0] = 0x00; // 250  /s
  403f0c:	aa34      	add	r2, sp, #208	; 0xd0
  403f0e:	2300      	movs	r3, #0
  403f10:	f802 3d8c 	strb.w	r3, [r2, #-140]!
	rtn = mcu6050_i2c_bus_write(MPU6050_DEFAULT_ADDRESS, MPU6050_RA_GYRO_CONFIG, bufferTX, 1);
  403f14:	2301      	movs	r3, #1
  403f16:	211b      	movs	r1, #27
  403f18:	2068      	movs	r0, #104	; 0x68
  403f1a:	4c5b      	ldr	r4, [pc, #364]	; (404088 <task_imu+0x1f0>)
  403f1c:	47a0      	blx	r4
	if(rtn != TWIHS_SUCCESS)
  403f1e:	bb00      	cbnz	r0, 403f62 <task_imu+0xca>
	float valor_anterior_yaw = 0.0;
	float roll, pitch, yaw;
	int d;
	while(1) {
		// Le valor do acc X High e Low
		mcu6050_i2c_bus_read(MPU6050_DEFAULT_ADDRESS, MPU6050_RA_ACCEL_XOUT_H, &raw_acc_xHigh, 1);
  403f20:	f04f 0801 	mov.w	r8, #1
  403f24:	2768      	movs	r7, #104	; 0x68
		raw_gyr_x = (raw_gyr_xHigh << 8) | (raw_gyr_xLow << 0);
		raw_gyr_y = (raw_gyr_yHigh << 8) | (raw_gyr_yLow << 0);
		raw_gyr_z = (raw_gyr_zHigh << 8) | (raw_gyr_zLow << 0);

		// Dados em escala real
		proc_acc_x = (float)raw_acc_x/16384;
  403f26:	ed9f ba59 	vldr	s22, [pc, #356]	; 40408c <task_imu+0x1f4>
		FusionAhrsUpdateNoMagnetometer(&ahrs, gyroscope, accelerometer, dT);

		// dados em pitch roll e yaw
		const FusionEuler euler = FusionQuaternionToEuler(FusionAhrsGetQuaternion(&ahrs));

		printf("Roll %0.1f, Pitch %0.1f, Yaw %0.1f\n", euler.angle.roll, euler.angle.pitch, euler.angle.yaw);
  403f2a:	ed9f ab49 	vldr	d10, [pc, #292]	; 404050 <task_imu+0x1b8>
  403f2e:	ed9f 9b4a 	vldr	d9, [pc, #296]	; 404058 <task_imu+0x1c0>
  403f32:	e0d4      	b.n	4040de <task_imu+0x246>
		 printf("[DADO] [i2c] probe OK\n" );
  403f34:	4856      	ldr	r0, [pc, #344]	; (404090 <task_imu+0x1f8>)
  403f36:	4b4f      	ldr	r3, [pc, #316]	; (404074 <task_imu+0x1dc>)
  403f38:	4798      	blx	r3
  403f3a:	e7c1      	b.n	403ec0 <task_imu+0x28>
		printf("[DADO] [i2c] %x:%x", MPU6050_RA_WHO_AM_I, bufferRX[0]);
  403f3c:	f89d 2050 	ldrb.w	r2, [sp, #80]	; 0x50
  403f40:	2175      	movs	r1, #117	; 0x75
  403f42:	4854      	ldr	r0, [pc, #336]	; (404094 <task_imu+0x1fc>)
  403f44:	4c4b      	ldr	r4, [pc, #300]	; (404074 <task_imu+0x1dc>)
  403f46:	47a0      	blx	r4
		printf("%x", bufferRX[0]);
  403f48:	f89d 1050 	ldrb.w	r1, [sp, #80]	; 0x50
  403f4c:	4852      	ldr	r0, [pc, #328]	; (404098 <task_imu+0x200>)
  403f4e:	47a0      	blx	r4
  403f50:	e7c1      	b.n	403ed6 <task_imu+0x3e>
	printf("[ERRO] [i2c] [write] \n");
  403f52:	4852      	ldr	r0, [pc, #328]	; (40409c <task_imu+0x204>)
  403f54:	4b47      	ldr	r3, [pc, #284]	; (404074 <task_imu+0x1dc>)
  403f56:	4798      	blx	r3
  403f58:	e7ce      	b.n	403ef8 <task_imu+0x60>
	printf("[ERRO] [i2c] [write] \n");
  403f5a:	4850      	ldr	r0, [pc, #320]	; (40409c <task_imu+0x204>)
  403f5c:	4b45      	ldr	r3, [pc, #276]	; (404074 <task_imu+0x1dc>)
  403f5e:	4798      	blx	r3
  403f60:	e7d4      	b.n	403f0c <task_imu+0x74>
	printf("[ERRO] [i2c] [write] \n");
  403f62:	484e      	ldr	r0, [pc, #312]	; (40409c <task_imu+0x204>)
  403f64:	4b43      	ldr	r3, [pc, #268]	; (404074 <task_imu+0x1dc>)
  403f66:	4798      	blx	r3
  403f68:	e7da      	b.n	403f20 <task_imu+0x88>
			printf("Em Queda!!");
  403f6a:	484d      	ldr	r0, [pc, #308]	; (4040a0 <task_imu+0x208>)
  403f6c:	4b41      	ldr	r3, [pc, #260]	; (404074 <task_imu+0x1dc>)
  403f6e:	4798      	blx	r3
			xSemaphoreGive(xSemaphoreHouseDown);
  403f70:	2300      	movs	r3, #0
  403f72:	461a      	mov	r2, r3
  403f74:	4619      	mov	r1, r3
  403f76:	484b      	ldr	r0, [pc, #300]	; (4040a4 <task_imu+0x20c>)
  403f78:	6800      	ldr	r0, [r0, #0]
  403f7a:	4c4b      	ldr	r4, [pc, #300]	; (4040a8 <task_imu+0x210>)
  403f7c:	47a0      	blx	r4
  403f7e:	e17d      	b.n	40427c <task_imu+0x3e4>
        return (float) M_PI / -2.0f;
    }
    if (value >= 1.0f) {
        return (float) M_PI / 2.0f;
    }
    return asinf(value);
  403f80:	ee17 0a90 	vmov	r0, s15
  403f84:	4b49      	ldr	r3, [pc, #292]	; (4040ac <task_imu+0x214>)
  403f86:	4798      	blx	r3
    return radians * (180.0f / (float) M_PI);
  403f88:	ed9f ea49 	vldr	s28, [pc, #292]	; 4040b0 <task_imu+0x218>
  403f8c:	ee07 0a90 	vmov	s15, r0
  403f90:	ee67 da8e 	vmul.f32	s27, s15, s28
#define Q quaternion.element
    const float halfMinusQySquared = 0.5f - Q.y * Q.y; // calculate common terms to avoid repeated operations
    FusionEuler euler;
    euler.angle.roll = FusionRadiansToDegrees(atan2f(Q.w * Q.x + Q.y * Q.z, halfMinusQySquared - Q.x * Q.x));
    euler.angle.pitch = FusionRadiansToDegrees(FusionAsin(2.0f * (Q.w * Q.y - Q.z * Q.x)));
    euler.angle.yaw = FusionRadiansToDegrees(atan2f(Q.w * Q.z + Q.x * Q.y, halfMinusQySquared - Q.z * Q.z));
  403f94:	ee2b 7aab 	vmul.f32	s14, s23, s23
  403f98:	ee6b 7a8c 	vmul.f32	s15, s23, s24
  403f9c:	ee28 8a88 	vmul.f32	s16, s17, s16
  403fa0:	ee3c 7ac7 	vsub.f32	s14, s25, s14
  403fa4:	ee17 1a10 	vmov	r1, s14
  403fa8:	ee77 7a88 	vadd.f32	s15, s15, s16
  403fac:	ee17 0a90 	vmov	r0, s15
  403fb0:	4b40      	ldr	r3, [pc, #256]	; (4040b4 <task_imu+0x21c>)
  403fb2:	4798      	blx	r3
    return radians * (180.0f / (float) M_PI);
  403fb4:	ee07 0a90 	vmov	s15, r0
  403fb8:	ee27 ea8e 	vmul.f32	s28, s15, s28
		printf("Roll %0.1f, Pitch %0.1f, Yaw %0.1f\n", euler.angle.roll, euler.angle.pitch, euler.angle.yaw);
  403fbc:	4c3e      	ldr	r4, [pc, #248]	; (4040b8 <task_imu+0x220>)
  403fbe:	ee1d 0a10 	vmov	r0, s26
  403fc2:	47a0      	blx	r4
  403fc4:	4682      	mov	sl, r0
  403fc6:	468b      	mov	fp, r1
  403fc8:	ee1e 0a10 	vmov	r0, s28
  403fcc:	47a0      	blx	r4
  403fce:	e9cd 0102 	strd	r0, r1, [sp, #8]
  403fd2:	ee1d 0a90 	vmov	r0, s27
  403fd6:	47a0      	blx	r4
  403fd8:	e9cd 0100 	strd	r0, r1, [sp]
  403fdc:	4652      	mov	r2, sl
  403fde:	465b      	mov	r3, fp
  403fe0:	4836      	ldr	r0, [pc, #216]	; (4040bc <task_imu+0x224>)
  403fe2:	4924      	ldr	r1, [pc, #144]	; (404074 <task_imu+0x1dc>)
  403fe4:	4788      	blx	r1
		roll = euler.angle.roll;
		pitch = euler.angle.pitch;
		yaw = euler.angle.yaw;
		int d;
		if ((yaw - sqrt(pow(valor_anterior_yaw, 2)) > 30) && pitch < 15){
  403fe6:	eef3 7a0e 	vmov.f32	s15, #62	; 0x41f00000  30.0
  403fea:	eeb4 eae7 	vcmpe.f32	s28, s15
  403fee:	eef1 fa10 	vmrs	APSR_nzcv, fpscr
  403ff2:	dd10      	ble.n	404016 <task_imu+0x17e>
  403ff4:	eef2 7a0e 	vmov.f32	s15, #46	; 0x41700000  15.0
  403ff8:	eef4 dae7 	vcmpe.f32	s27, s15
  403ffc:	eef1 fa10 	vmrs	APSR_nzcv, fpscr
  404000:	d509      	bpl.n	404016 <task_imu+0x17e>
			d = ESQUERDA;
  404002:	2200      	movs	r2, #0
  404004:	a934      	add	r1, sp, #208	; 0xd0
  404006:	f841 2db4 	str.w	r2, [r1, #-180]!
			xQueueSend(xQueueLado, &d, 0);
  40400a:	4613      	mov	r3, r2
  40400c:	482c      	ldr	r0, [pc, #176]	; (4040c0 <task_imu+0x228>)
  40400e:	6800      	ldr	r0, [r0, #0]
  404010:	4c25      	ldr	r4, [pc, #148]	; (4040a8 <task_imu+0x210>)
  404012:	47a0      	blx	r4
  404014:	e060      	b.n	4040d8 <task_imu+0x240>
		}
		else if (yaw < -30 && pitch < 15){
  404016:	eefb 7a0e 	vmov.f32	s15, #190	; 0xc1f00000 -30.0
  40401a:	eeb4 eae7 	vcmpe.f32	s28, s15
  40401e:	eef1 fa10 	vmrs	APSR_nzcv, fpscr
  404022:	f140 81ac 	bpl.w	40437e <task_imu+0x4e6>
  404026:	eef2 7a0e 	vmov.f32	s15, #46	; 0x41700000  15.0
  40402a:	eef4 dae7 	vcmpe.f32	s27, s15
  40402e:	eef1 fa10 	vmrs	APSR_nzcv, fpscr
  404032:	f140 81a4 	bpl.w	40437e <task_imu+0x4e6>
			d = DIREITA;
  404036:	a934      	add	r1, sp, #208	; 0xd0
  404038:	2302      	movs	r3, #2
  40403a:	f841 3db4 	str.w	r3, [r1, #-180]!
			xQueueSend(xQueueLado, &d, 0);
  40403e:	2300      	movs	r3, #0
  404040:	461a      	mov	r2, r3
  404042:	481f      	ldr	r0, [pc, #124]	; (4040c0 <task_imu+0x228>)
  404044:	6800      	ldr	r0, [r0, #0]
  404046:	4c18      	ldr	r4, [pc, #96]	; (4040a8 <task_imu+0x210>)
  404048:	47a0      	blx	r4
  40404a:	e045      	b.n	4040d8 <task_imu+0x240>
  40404c:	f3af 8000 	nop.w
  404050:	00000000 	.word	0x00000000
  404054:	c0568000 	.word	0xc0568000
  404058:	00000000 	.word	0x00000000
  40405c:	40568000 	.word	0x40568000
  404060:	00403e41 	.word	0x00403e41
  404064:	00402449 	.word	0x00402449
  404068:	40060000 	.word	0x40060000
  40406c:	00400529 	.word	0x00400529
  404070:	0040a33c 	.word	0x0040a33c
  404074:	00407085 	.word	0x00407085
  404078:	00403e15 	.word	0x00403e15
  40407c:	0040a36c 	.word	0x0040a36c
  404080:	0040a398 	.word	0x0040a398
  404084:	0040a3a4 	.word	0x0040a3a4
  404088:	00403de9 	.word	0x00403de9
  40408c:	38800000 	.word	0x38800000
  404090:	0040a354 	.word	0x0040a354
  404094:	0040a384 	.word	0x0040a384
  404098:	0040a394 	.word	0x0040a394
  40409c:	0040a3b4 	.word	0x0040a3b4
  4040a0:	0040a3cc 	.word	0x0040a3cc
  4040a4:	2040c640 	.word	0x2040c640
  4040a8:	00400bf9 	.word	0x00400bf9
  4040ac:	00404a35 	.word	0x00404a35
  4040b0:	42652ee0 	.word	0x42652ee0
  4040b4:	00404ad5 	.word	0x00404ad5
  4040b8:	00406361 	.word	0x00406361
  4040bc:	0040a3d8 	.word	0x0040a3d8
  4040c0:	2040c644 	.word	0x2040c644
		else if (roll < -20 && pitch > 30){
			d = FRENTE;
			xQueueSend(xQueueLado, &d, 0);
		}
		else {
			d = 4;
  4040c4:	a934      	add	r1, sp, #208	; 0xd0
  4040c6:	2304      	movs	r3, #4
  4040c8:	f841 3db4 	str.w	r3, [r1, #-180]!
			xQueueSend(xQueueLado, &d, 0);
  4040cc:	2300      	movs	r3, #0
  4040ce:	461a      	mov	r2, r3
  4040d0:	48bb      	ldr	r0, [pc, #748]	; (4043c0 <task_imu+0x528>)
  4040d2:	6800      	ldr	r0, [r0, #0]
  4040d4:	4cbb      	ldr	r4, [pc, #748]	; (4043c4 <task_imu+0x52c>)
  4040d6:	47a0      	blx	r4
		}
		// uma amostra a cada 1ms
		vTaskDelay(10);
  4040d8:	200a      	movs	r0, #10
  4040da:	4bbb      	ldr	r3, [pc, #748]	; (4043c8 <task_imu+0x530>)
  4040dc:	4798      	blx	r3
		mcu6050_i2c_bus_read(MPU6050_DEFAULT_ADDRESS, MPU6050_RA_ACCEL_XOUT_H, &raw_acc_xHigh, 1);
  4040de:	4643      	mov	r3, r8
  4040e0:	f10d 0243 	add.w	r2, sp, #67	; 0x43
  4040e4:	213b      	movs	r1, #59	; 0x3b
  4040e6:	4638      	mov	r0, r7
  4040e8:	4cb8      	ldr	r4, [pc, #736]	; (4043cc <task_imu+0x534>)
  4040ea:	47a0      	blx	r4
		mcu6050_i2c_bus_read(MPU6050_DEFAULT_ADDRESS, MPU6050_RA_ACCEL_XOUT_L, &raw_acc_xLow,  1);
  4040ec:	4643      	mov	r3, r8
  4040ee:	aa10      	add	r2, sp, #64	; 0x40
  4040f0:	213c      	movs	r1, #60	; 0x3c
  4040f2:	4638      	mov	r0, r7
  4040f4:	47a0      	blx	r4
		mcu6050_i2c_bus_read(MPU6050_DEFAULT_ADDRESS, MPU6050_RA_ACCEL_YOUT_H, &raw_acc_yHigh, 1);
  4040f6:	4643      	mov	r3, r8
  4040f8:	f10d 0242 	add.w	r2, sp, #66	; 0x42
  4040fc:	213d      	movs	r1, #61	; 0x3d
  4040fe:	4638      	mov	r0, r7
  404100:	47a0      	blx	r4
		mcu6050_i2c_bus_read(MPU6050_DEFAULT_ADDRESS, MPU6050_RA_ACCEL_ZOUT_L, &raw_acc_yLow,  1);
  404102:	4643      	mov	r3, r8
  404104:	f10d 023f 	add.w	r2, sp, #63	; 0x3f
  404108:	2140      	movs	r1, #64	; 0x40
  40410a:	4638      	mov	r0, r7
  40410c:	47a0      	blx	r4
		mcu6050_i2c_bus_read(MPU6050_DEFAULT_ADDRESS, MPU6050_RA_ACCEL_ZOUT_H, &raw_acc_zHigh, 1);
  40410e:	4643      	mov	r3, r8
  404110:	f10d 0241 	add.w	r2, sp, #65	; 0x41
  404114:	213f      	movs	r1, #63	; 0x3f
  404116:	4638      	mov	r0, r7
  404118:	47a0      	blx	r4
		mcu6050_i2c_bus_read(MPU6050_DEFAULT_ADDRESS, MPU6050_RA_ACCEL_ZOUT_L, &raw_acc_zLow,  1);
  40411a:	4643      	mov	r3, r8
  40411c:	f10d 023e 	add.w	r2, sp, #62	; 0x3e
  404120:	2140      	movs	r1, #64	; 0x40
  404122:	4638      	mov	r0, r7
  404124:	47a0      	blx	r4
		raw_acc_x = (raw_acc_xHigh << 8) | (raw_acc_xLow << 0);
  404126:	f89d 2043 	ldrb.w	r2, [sp, #67]	; 0x43
  40412a:	f89d 3040 	ldrb.w	r3, [sp, #64]	; 0x40
  40412e:	ea43 2302 	orr.w	r3, r3, r2, lsl #8
  404132:	b21b      	sxth	r3, r3
  404134:	ee0b 3a90 	vmov	s23, r3
		raw_acc_y = (raw_acc_yHigh << 8) | (raw_acc_yLow << 0);
  404138:	f89d 2042 	ldrb.w	r2, [sp, #66]	; 0x42
  40413c:	f89d 303f 	ldrb.w	r3, [sp, #63]	; 0x3f
  404140:	ea43 2302 	orr.w	r3, r3, r2, lsl #8
  404144:	b21b      	sxth	r3, r3
  404146:	ee08 3a90 	vmov	s17, r3
		raw_acc_z = (raw_acc_zHigh << 8) | (raw_acc_zLow << 0);
  40414a:	f89d 2041 	ldrb.w	r2, [sp, #65]	; 0x41
  40414e:	f89d 303e 	ldrb.w	r3, [sp, #62]	; 0x3e
  404152:	ea43 2302 	orr.w	r3, r3, r2, lsl #8
  404156:	b21b      	sxth	r3, r3
  404158:	ee08 3a10 	vmov	s16, r3
		mcu6050_i2c_bus_read(MPU6050_DEFAULT_ADDRESS, MPU6050_RA_GYRO_XOUT_H, &raw_gyr_xHigh, 1);
  40415c:	4643      	mov	r3, r8
  40415e:	f10d 023d 	add.w	r2, sp, #61	; 0x3d
  404162:	2143      	movs	r1, #67	; 0x43
  404164:	4638      	mov	r0, r7
  404166:	47a0      	blx	r4
		mcu6050_i2c_bus_read(MPU6050_DEFAULT_ADDRESS, MPU6050_RA_GYRO_XOUT_L, &raw_gyr_xLow,  1);
  404168:	4643      	mov	r3, r8
  40416a:	f10d 023a 	add.w	r2, sp, #58	; 0x3a
  40416e:	2144      	movs	r1, #68	; 0x44
  404170:	4638      	mov	r0, r7
  404172:	47a0      	blx	r4
		mcu6050_i2c_bus_read(MPU6050_DEFAULT_ADDRESS, MPU6050_RA_GYRO_YOUT_H, &raw_gyr_yHigh, 1);
  404174:	4643      	mov	r3, r8
  404176:	aa0f      	add	r2, sp, #60	; 0x3c
  404178:	2145      	movs	r1, #69	; 0x45
  40417a:	4638      	mov	r0, r7
  40417c:	47a0      	blx	r4
		mcu6050_i2c_bus_read(MPU6050_DEFAULT_ADDRESS, MPU6050_RA_GYRO_ZOUT_L, &raw_gyr_yLow,  1);
  40417e:	4643      	mov	r3, r8
  404180:	f10d 0239 	add.w	r2, sp, #57	; 0x39
  404184:	2148      	movs	r1, #72	; 0x48
  404186:	4638      	mov	r0, r7
  404188:	47a0      	blx	r4
		mcu6050_i2c_bus_read(MPU6050_DEFAULT_ADDRESS, MPU6050_RA_GYRO_ZOUT_H, &raw_gyr_zHigh, 1);
  40418a:	4643      	mov	r3, r8
  40418c:	f10d 023b 	add.w	r2, sp, #59	; 0x3b
  404190:	2147      	movs	r1, #71	; 0x47
  404192:	4638      	mov	r0, r7
  404194:	47a0      	blx	r4
		mcu6050_i2c_bus_read(MPU6050_DEFAULT_ADDRESS, MPU6050_RA_GYRO_ZOUT_L, &raw_gyr_zLow,  1);
  404196:	4643      	mov	r3, r8
  404198:	aa0e      	add	r2, sp, #56	; 0x38
  40419a:	2148      	movs	r1, #72	; 0x48
  40419c:	4638      	mov	r0, r7
  40419e:	47a0      	blx	r4
		raw_gyr_x = (raw_gyr_xHigh << 8) | (raw_gyr_xLow << 0);
  4041a0:	f89d 503d 	ldrb.w	r5, [sp, #61]	; 0x3d
  4041a4:	f89d 103a 	ldrb.w	r1, [sp, #58]	; 0x3a
		raw_gyr_y = (raw_gyr_yHigh << 8) | (raw_gyr_yLow << 0);
  4041a8:	f89d 403c 	ldrb.w	r4, [sp, #60]	; 0x3c
  4041ac:	f89d 2039 	ldrb.w	r2, [sp, #57]	; 0x39
		raw_gyr_z = (raw_gyr_zHigh << 8) | (raw_gyr_zLow << 0);
  4041b0:	f89d 003b 	ldrb.w	r0, [sp, #59]	; 0x3b
  4041b4:	f89d 3038 	ldrb.w	r3, [sp, #56]	; 0x38
		proc_acc_x = (float)raw_acc_x/16384;
  4041b8:	eef8 baeb 	vcvt.f32.s32	s23, s23
  4041bc:	ee6b ba8b 	vmul.f32	s23, s23, s22
		proc_acc_y = (float)raw_acc_y/16384;
  4041c0:	eef8 8ae8 	vcvt.f32.s32	s17, s17
  4041c4:	ee68 8a8b 	vmul.f32	s17, s17, s22
		proc_acc_z = (float)raw_acc_z/16384;
  4041c8:	eeb8 8ac8 	vcvt.f32.s32	s16, s16
  4041cc:	ee28 8a0b 	vmul.f32	s16, s16, s22
		raw_gyr_x = (raw_gyr_xHigh << 8) | (raw_gyr_xLow << 0);
  4041d0:	ea41 2105 	orr.w	r1, r1, r5, lsl #8
		proc_gyr_x = (float)raw_gyr_x/131;
  4041d4:	b209      	sxth	r1, r1
  4041d6:	ee07 1a90 	vmov	s15, r1
  4041da:	eef8 7ae7 	vcvt.f32.s32	s15, s15
  4041de:	ed9f 7a7c 	vldr	s14, [pc, #496]	; 4043d0 <task_imu+0x538>
  4041e2:	eec7 ca87 	vdiv.f32	s25, s15, s14
		raw_gyr_y = (raw_gyr_yHigh << 8) | (raw_gyr_yLow << 0);
  4041e6:	ea42 2204 	orr.w	r2, r2, r4, lsl #8
		proc_gyr_y = (float)raw_gyr_y/131;
  4041ea:	b212      	sxth	r2, r2
  4041ec:	ee07 2a90 	vmov	s15, r2
  4041f0:	eef8 7ae7 	vcvt.f32.s32	s15, s15
  4041f4:	ee87 da87 	vdiv.f32	s26, s15, s14
		raw_gyr_z = (raw_gyr_zHigh << 8) | (raw_gyr_zLow << 0);
  4041f8:	ea43 2300 	orr.w	r3, r3, r0, lsl #8
		proc_gyr_z = (float)raw_gyr_z/131;
  4041fc:	b21b      	sxth	r3, r3
  4041fe:	ee07 3a90 	vmov	s15, r3
  404202:	eef8 7ae7 	vcvt.f32.s32	s15, s15
  404206:	ee87 ca87 	vdiv.f32	s24, s15, s14
		if(sqrt(pow(proc_acc_x, 2) + pow(proc_acc_y, 2) + pow(proc_acc_z, 2)) < 0.1){
  40420a:	4c72      	ldr	r4, [pc, #456]	; (4043d4 <task_imu+0x53c>)
  40420c:	ee1b 0a90 	vmov	r0, s23
  404210:	47a0      	blx	r4
  404212:	4605      	mov	r5, r0
  404214:	460e      	mov	r6, r1
  404216:	ee18 0a90 	vmov	r0, s17
  40421a:	47a0      	blx	r4
  40421c:	4682      	mov	sl, r0
  40421e:	468b      	mov	fp, r1
  404220:	ee18 0a10 	vmov	r0, s16
  404224:	47a0      	blx	r4
  404226:	e9cd 0104 	strd	r0, r1, [sp, #16]
  40422a:	4c6b      	ldr	r4, [pc, #428]	; (4043d8 <task_imu+0x540>)
  40422c:	4652      	mov	r2, sl
  40422e:	465b      	mov	r3, fp
  404230:	4650      	mov	r0, sl
  404232:	4659      	mov	r1, fp
  404234:	47a0      	blx	r4
  404236:	4682      	mov	sl, r0
  404238:	468b      	mov	fp, r1
  40423a:	462a      	mov	r2, r5
  40423c:	4633      	mov	r3, r6
  40423e:	4628      	mov	r0, r5
  404240:	4631      	mov	r1, r6
  404242:	47a0      	blx	r4
  404244:	4d65      	ldr	r5, [pc, #404]	; (4043dc <task_imu+0x544>)
  404246:	4602      	mov	r2, r0
  404248:	460b      	mov	r3, r1
  40424a:	4650      	mov	r0, sl
  40424c:	4659      	mov	r1, fp
  40424e:	47a8      	blx	r5
  404250:	4682      	mov	sl, r0
  404252:	468b      	mov	fp, r1
  404254:	e9dd 0104 	ldrd	r0, r1, [sp, #16]
  404258:	4602      	mov	r2, r0
  40425a:	460b      	mov	r3, r1
  40425c:	47a0      	blx	r4
  40425e:	4602      	mov	r2, r0
  404260:	460b      	mov	r3, r1
  404262:	4650      	mov	r0, sl
  404264:	4659      	mov	r1, fp
  404266:	47a8      	blx	r5
  404268:	4b5d      	ldr	r3, [pc, #372]	; (4043e0 <task_imu+0x548>)
  40426a:	4798      	blx	r3
  40426c:	a352      	add	r3, pc, #328	; (adr r3, 4043b8 <task_imu+0x520>)
  40426e:	e9d3 2300 	ldrd	r2, r3, [r3]
  404272:	4c5c      	ldr	r4, [pc, #368]	; (4043e4 <task_imu+0x54c>)
  404274:	47a0      	blx	r4
  404276:	2800      	cmp	r0, #0
  404278:	f47f ae77 	bne.w	403f6a <task_imu+0xd2>
		const FusionVector gyroscope = {proc_gyr_x, proc_gyr_y, proc_gyr_z};
  40427c:	edcd ca08 	vstr	s25, [sp, #32]
  404280:	ed8d da09 	vstr	s26, [sp, #36]	; 0x24
  404284:	ed8d ca0a 	vstr	s24, [sp, #40]	; 0x28
		const FusionVector accelerometer = {proc_acc_x, proc_acc_y, proc_acc_z};
  404288:	edcd ba0b 	vstr	s23, [sp, #44]	; 0x2c
  40428c:	edcd 8a0c 	vstr	s17, [sp, #48]	; 0x30
  404290:	ed8d 8a0d 	vstr	s16, [sp, #52]	; 0x34
		FusionAhrsUpdateNoMagnetometer(&ahrs, gyroscope, accelerometer, dT);
  404294:	4b54      	ldr	r3, [pc, #336]	; (4043e8 <task_imu+0x550>)
  404296:	9303      	str	r3, [sp, #12]
  404298:	ab0b      	add	r3, sp, #44	; 0x2c
  40429a:	e893 0007 	ldmia.w	r3, {r0, r1, r2}
  40429e:	e88d 0007 	stmia.w	sp, {r0, r1, r2}
  4042a2:	ab08      	add	r3, sp, #32
  4042a4:	cb0e      	ldmia	r3, {r1, r2, r3}
  4042a6:	a817      	add	r0, sp, #92	; 0x5c
  4042a8:	4c50      	ldr	r4, [pc, #320]	; (4043ec <task_imu+0x554>)
  4042aa:	47a0      	blx	r4
		const FusionEuler euler = FusionQuaternionToEuler(FusionAhrsGetQuaternion(&ahrs));
  4042ac:	a917      	add	r1, sp, #92	; 0x5c
  4042ae:	a830      	add	r0, sp, #192	; 0xc0
  4042b0:	4b4f      	ldr	r3, [pc, #316]	; (4043f0 <task_imu+0x558>)
  4042b2:	4798      	blx	r3
  4042b4:	ed9d ca30 	vldr	s24, [sp, #192]	; 0xc0
  4042b8:	ed9d 8a31 	vldr	s16, [sp, #196]	; 0xc4
  4042bc:	eddd 8a32 	vldr	s17, [sp, #200]	; 0xc8
  4042c0:	eddd ba33 	vldr	s23, [sp, #204]	; 0xcc
    const float halfMinusQySquared = 0.5f - Q.y * Q.y; // calculate common terms to avoid repeated operations
  4042c4:	ee68 7aa8 	vmul.f32	s15, s17, s17
  4042c8:	eef6 ca00 	vmov.f32	s25, #96	; 0x3f000000  0.5
  4042cc:	ee7c cae7 	vsub.f32	s25, s25, s15
    euler.angle.roll = FusionRadiansToDegrees(atan2f(Q.w * Q.x + Q.y * Q.z, halfMinusQySquared - Q.x * Q.x));
  4042d0:	ee68 6a08 	vmul.f32	s13, s16, s16
  4042d4:	ee2c 7a08 	vmul.f32	s14, s24, s16
  4042d8:	ee68 7aab 	vmul.f32	s15, s17, s23
  4042dc:	ee7c 6ae6 	vsub.f32	s13, s25, s13
  4042e0:	ee16 1a90 	vmov	r1, s13
  4042e4:	ee77 7a27 	vadd.f32	s15, s14, s15
  4042e8:	ee17 0a90 	vmov	r0, s15
  4042ec:	4b41      	ldr	r3, [pc, #260]	; (4043f4 <task_imu+0x55c>)
  4042ee:	4798      	blx	r3
    return radians * (180.0f / (float) M_PI);
  4042f0:	ed9f da41 	vldr	s26, [pc, #260]	; 4043f8 <task_imu+0x560>
  4042f4:	ee07 0a90 	vmov	s15, r0
  4042f8:	ee27 da8d 	vmul.f32	s26, s15, s26
    euler.angle.pitch = FusionRadiansToDegrees(FusionAsin(2.0f * (Q.w * Q.y - Q.z * Q.x)));
  4042fc:	ee28 7a8c 	vmul.f32	s14, s17, s24
  404300:	ee6b 7a88 	vmul.f32	s15, s23, s16
  404304:	ee77 7a67 	vsub.f32	s15, s14, s15
  404308:	ee77 7aa7 	vadd.f32	s15, s15, s15
    if (value <= -1.0f) {
  40430c:	eebf 7a00 	vmov.f32	s14, #240	; 0xbf800000 -1.0
  404310:	eef4 7ac7 	vcmpe.f32	s15, s14
  404314:	eef1 fa10 	vmrs	APSR_nzcv, fpscr
  404318:	d976      	bls.n	404408 <task_imu+0x570>
    if (value >= 1.0f) {
  40431a:	eeb7 7a00 	vmov.f32	s14, #112	; 0x3f800000  1.0
  40431e:	eef4 7ac7 	vcmpe.f32	s15, s14
  404322:	eef1 fa10 	vmrs	APSR_nzcv, fpscr
  404326:	f6ff ae2b 	blt.w	403f80 <task_imu+0xe8>
    euler.angle.yaw = FusionRadiansToDegrees(atan2f(Q.w * Q.z + Q.x * Q.y, halfMinusQySquared - Q.z * Q.z));
  40432a:	ee2b 7aab 	vmul.f32	s14, s23, s23
  40432e:	ee6b 7a8c 	vmul.f32	s15, s23, s24
  404332:	ee28 8a88 	vmul.f32	s16, s17, s16
  404336:	ee3c 7ac7 	vsub.f32	s14, s25, s14
  40433a:	ee17 1a10 	vmov	r1, s14
  40433e:	ee77 7a88 	vadd.f32	s15, s15, s16
  404342:	ee17 0a90 	vmov	r0, s15
  404346:	4b2b      	ldr	r3, [pc, #172]	; (4043f4 <task_imu+0x55c>)
  404348:	4798      	blx	r3
  40434a:	ee08 0a10 	vmov	s16, r0
		printf("Roll %0.1f, Pitch %0.1f, Yaw %0.1f\n", euler.angle.roll, euler.angle.pitch, euler.angle.yaw);
  40434e:	4c21      	ldr	r4, [pc, #132]	; (4043d4 <task_imu+0x53c>)
  404350:	ee1d 0a10 	vmov	r0, s26
  404354:	47a0      	blx	r4
  404356:	4682      	mov	sl, r0
  404358:	468b      	mov	fp, r1
  40435a:	eddf 7a27 	vldr	s15, [pc, #156]	; 4043f8 <task_imu+0x560>
  40435e:	ee68 7a27 	vmul.f32	s15, s16, s15
  404362:	ee17 0a90 	vmov	r0, s15
  404366:	47a0      	blx	r4
  404368:	e9cd 0102 	strd	r0, r1, [sp, #8]
  40436c:	ed8d 9b00 	vstr	d9, [sp]
  404370:	4652      	mov	r2, sl
  404372:	465b      	mov	r3, fp
  404374:	4821      	ldr	r0, [pc, #132]	; (4043fc <task_imu+0x564>)
  404376:	4922      	ldr	r1, [pc, #136]	; (404400 <task_imu+0x568>)
  404378:	4788      	blx	r1
    return radians * (180.0f / (float) M_PI);
  40437a:	eddf da22 	vldr	s27, [pc, #136]	; 404404 <task_imu+0x56c>
		else if (roll < -20 && pitch > 30){
  40437e:	eefb 7a04 	vmov.f32	s15, #180	; 0xc1a00000 -20.0
  404382:	eeb4 dae7 	vcmpe.f32	s26, s15
  404386:	eef1 fa10 	vmrs	APSR_nzcv, fpscr
  40438a:	f57f ae9b 	bpl.w	4040c4 <task_imu+0x22c>
  40438e:	eef3 7a0e 	vmov.f32	s15, #62	; 0x41f00000  30.0
  404392:	eef4 dae7 	vcmpe.f32	s27, s15
  404396:	eef1 fa10 	vmrs	APSR_nzcv, fpscr
  40439a:	f77f ae93 	ble.w	4040c4 <task_imu+0x22c>
			d = FRENTE;
  40439e:	a934      	add	r1, sp, #208	; 0xd0
  4043a0:	f841 8db4 	str.w	r8, [r1, #-180]!
			xQueueSend(xQueueLado, &d, 0);
  4043a4:	2300      	movs	r3, #0
  4043a6:	461a      	mov	r2, r3
  4043a8:	4805      	ldr	r0, [pc, #20]	; (4043c0 <task_imu+0x528>)
  4043aa:	6800      	ldr	r0, [r0, #0]
  4043ac:	4c05      	ldr	r4, [pc, #20]	; (4043c4 <task_imu+0x52c>)
  4043ae:	47a0      	blx	r4
  4043b0:	e692      	b.n	4040d8 <task_imu+0x240>
  4043b2:	bf00      	nop
  4043b4:	f3af 8000 	nop.w
  4043b8:	9999999a 	.word	0x9999999a
  4043bc:	3fb99999 	.word	0x3fb99999
  4043c0:	2040c644 	.word	0x2040c644
  4043c4:	00400bf9 	.word	0x00400bf9
  4043c8:	00401971 	.word	0x00401971
  4043cc:	00403e15 	.word	0x00403e15
  4043d0:	43030000 	.word	0x43030000
  4043d4:	00406361 	.word	0x00406361
  4043d8:	00406409 	.word	0x00406409
  4043dc:	004060a5 	.word	0x004060a5
  4043e0:	00404979 	.word	0x00404979
  4043e4:	004068ed 	.word	0x004068ed
  4043e8:	3dcccccd 	.word	0x3dcccccd
  4043ec:	00402a81 	.word	0x00402a81
  4043f0:	00402475 	.word	0x00402475
  4043f4:	00404ad5 	.word	0x00404ad5
  4043f8:	42652ee0 	.word	0x42652ee0
  4043fc:	0040a3d8 	.word	0x0040a3d8
  404400:	00407085 	.word	0x00407085
  404404:	42b40000 	.word	0x42b40000
    euler.angle.yaw = FusionRadiansToDegrees(atan2f(Q.w * Q.z + Q.x * Q.y, halfMinusQySquared - Q.z * Q.z));
  404408:	ee2b 7aab 	vmul.f32	s14, s23, s23
  40440c:	ee6b 7a8c 	vmul.f32	s15, s23, s24
  404410:	ee28 8a88 	vmul.f32	s16, s17, s16
  404414:	ee3c 7ac7 	vsub.f32	s14, s25, s14
  404418:	ee17 1a10 	vmov	r1, s14
  40441c:	ee77 7a88 	vadd.f32	s15, s15, s16
  404420:	ee17 0a90 	vmov	r0, s15
  404424:	4b16      	ldr	r3, [pc, #88]	; (404480 <task_imu+0x5e8>)
  404426:	4798      	blx	r3
    return radians * (180.0f / (float) M_PI);
  404428:	ed9f 8a16 	vldr	s16, [pc, #88]	; 404484 <task_imu+0x5ec>
  40442c:	ee07 0a90 	vmov	s15, r0
  404430:	ee27 8a88 	vmul.f32	s16, s15, s16
		printf("Roll %0.1f, Pitch %0.1f, Yaw %0.1f\n", euler.angle.roll, euler.angle.pitch, euler.angle.yaw);
  404434:	4c14      	ldr	r4, [pc, #80]	; (404488 <task_imu+0x5f0>)
  404436:	ee1d 0a10 	vmov	r0, s26
  40443a:	47a0      	blx	r4
  40443c:	4682      	mov	sl, r0
  40443e:	468b      	mov	fp, r1
  404440:	ee18 0a10 	vmov	r0, s16
  404444:	47a0      	blx	r4
  404446:	e9cd 0102 	strd	r0, r1, [sp, #8]
  40444a:	ed8d ab00 	vstr	d10, [sp]
  40444e:	4652      	mov	r2, sl
  404450:	465b      	mov	r3, fp
  404452:	480e      	ldr	r0, [pc, #56]	; (40448c <task_imu+0x5f4>)
  404454:	490e      	ldr	r1, [pc, #56]	; (404490 <task_imu+0x5f8>)
  404456:	4788      	blx	r1
		if ((yaw - sqrt(pow(valor_anterior_yaw, 2)) > 30) && pitch < 15){
  404458:	eef3 7a0e 	vmov.f32	s15, #62	; 0x41f00000  30.0
  40445c:	eeb4 8ae7 	vcmpe.f32	s16, s15
  404460:	eef1 fa10 	vmrs	APSR_nzcv, fpscr
  404464:	f73f adcd 	bgt.w	404002 <task_imu+0x16a>
		else if (yaw < -30 && pitch < 15){
  404468:	eefb 7a0e 	vmov.f32	s15, #190	; 0xc1f00000 -30.0
  40446c:	eeb4 8ae7 	vcmpe.f32	s16, s15
  404470:	eef1 fa10 	vmrs	APSR_nzcv, fpscr
  404474:	f53f addf 	bmi.w	404036 <task_imu+0x19e>
  404478:	eddf da06 	vldr	s27, [pc, #24]	; 404494 <task_imu+0x5fc>
  40447c:	e77f      	b.n	40437e <task_imu+0x4e6>
  40447e:	bf00      	nop
  404480:	00404ad5 	.word	0x00404ad5
  404484:	42652ee0 	.word	0x42652ee0
  404488:	00406361 	.word	0x00406361
  40448c:	0040a3d8 	.word	0x0040a3d8
  404490:	00407085 	.word	0x00407085
  404494:	c2b40000 	.word	0xc2b40000

00404498 <led_init>:
void led_init(void){
  404498:	b570      	push	{r4, r5, r6, lr}
  40449a:	b082      	sub	sp, #8
	pmc_enable_periph_clk(LED1_PIO_ID);
  40449c:	200a      	movs	r0, #10
  40449e:	4c13      	ldr	r4, [pc, #76]	; (4044ec <led_init+0x54>)
  4044a0:	47a0      	blx	r4
	pmc_enable_periph_clk(LED2_PIO_ID);
  4044a2:	200c      	movs	r0, #12
  4044a4:	47a0      	blx	r4
	pmc_enable_periph_clk(LED3_PIO_ID);
  4044a6:	200b      	movs	r0, #11
  4044a8:	47a0      	blx	r4
	pio_configure(LED_PIO, PIO_OUTPUT_0, LED_IDX_MASK, PIO_DEFAULT);
  4044aa:	4e11      	ldr	r6, [pc, #68]	; (4044f0 <led_init+0x58>)
  4044ac:	2300      	movs	r3, #0
  4044ae:	f44f 7280 	mov.w	r2, #256	; 0x100
  4044b2:	f04f 5140 	mov.w	r1, #805306368	; 0x30000000
  4044b6:	4630      	mov	r0, r6
  4044b8:	4c0e      	ldr	r4, [pc, #56]	; (4044f4 <led_init+0x5c>)
  4044ba:	47a0      	blx	r4
	pio_set_output(LED1_PIO, LED1_PIO_IDX_MASK, 1, 0, 0);
  4044bc:	2400      	movs	r4, #0
  4044be:	9400      	str	r4, [sp, #0]
  4044c0:	4623      	mov	r3, r4
  4044c2:	2201      	movs	r2, #1
  4044c4:	4611      	mov	r1, r2
  4044c6:	480c      	ldr	r0, [pc, #48]	; (4044f8 <led_init+0x60>)
  4044c8:	4d0c      	ldr	r5, [pc, #48]	; (4044fc <led_init+0x64>)
  4044ca:	47a8      	blx	r5
	pio_set_output(LED2_PIO, LED2_PIO_IDX_MASK, 1, 0, 0);
  4044cc:	9400      	str	r4, [sp, #0]
  4044ce:	4623      	mov	r3, r4
  4044d0:	2201      	movs	r2, #1
  4044d2:	f04f 4180 	mov.w	r1, #1073741824	; 0x40000000
  4044d6:	4630      	mov	r0, r6
  4044d8:	47a8      	blx	r5
	pio_set_output(LED3_PIO, LED3_PIO_IDX_MASK, 1, 0, 0);
  4044da:	9400      	str	r4, [sp, #0]
  4044dc:	4623      	mov	r3, r4
  4044de:	2201      	movs	r2, #1
  4044e0:	2104      	movs	r1, #4
  4044e2:	4807      	ldr	r0, [pc, #28]	; (404500 <led_init+0x68>)
  4044e4:	47a8      	blx	r5
}
  4044e6:	b002      	add	sp, #8
  4044e8:	bd70      	pop	{r4, r5, r6, pc}
  4044ea:	bf00      	nop
  4044ec:	00403799 	.word	0x00403799
  4044f0:	400e1200 	.word	0x400e1200
  4044f4:	0040352d 	.word	0x0040352d
  4044f8:	400e0e00 	.word	0x400e0e00
  4044fc:	00403505 	.word	0x00403505
  404500:	400e1000 	.word	0x400e1000

00404504 <pisca_led>:
void pisca_led(Pio * pio , const uint32_t idx_mask , int n){
  404504:	e92d 47f0 	stmdb	sp!, {r4, r5, r6, r7, r8, r9, sl, lr}
	for (int i = 0 ; i<n; i++){
  404508:	f1b2 0900 	subs.w	r9, r2, #0
  40450c:	dd15      	ble.n	40453a <pisca_led+0x36>
  40450e:	460e      	mov	r6, r1
  404510:	4605      	mov	r5, r0
  404512:	2400      	movs	r4, #0
		pio_clear(pio, idx_mask);  // Seta pino para 0
  404514:	f8df a030 	ldr.w	sl, [pc, #48]	; 404548 <pisca_led+0x44>
		delay_ms(100);
  404518:	f8df 8030 	ldr.w	r8, [pc, #48]	; 40454c <pisca_led+0x48>
  40451c:	4f08      	ldr	r7, [pc, #32]	; (404540 <pisca_led+0x3c>)
		pio_clear(pio, idx_mask);  // Seta pino para 0
  40451e:	4631      	mov	r1, r6
  404520:	4628      	mov	r0, r5
  404522:	47d0      	blx	sl
		delay_ms(100);
  404524:	4640      	mov	r0, r8
  404526:	47b8      	blx	r7
		pio_set(pio, idx_mask);
  404528:	4631      	mov	r1, r6
  40452a:	4628      	mov	r0, r5
  40452c:	4b05      	ldr	r3, [pc, #20]	; (404544 <pisca_led+0x40>)
  40452e:	4798      	blx	r3
		delay_ms(100);
  404530:	4640      	mov	r0, r8
  404532:	47b8      	blx	r7
	for (int i = 0 ; i<n; i++){
  404534:	3401      	adds	r4, #1
  404536:	45a1      	cmp	r9, r4
  404538:	d1f1      	bne.n	40451e <pisca_led+0x1a>
  40453a:	e8bd 87f0 	ldmia.w	sp!, {r4, r5, r6, r7, r8, r9, sl, pc}
  40453e:	bf00      	nop
  404540:	20400001 	.word	0x20400001
  404544:	00403435 	.word	0x00403435
  404548:	00403439 	.word	0x00403439
  40454c:	004d2b25 	.word	0x004d2b25

00404550 <task_house_down>:
static void task_house_down(void *pvParameters) {
  404550:	b570      	push	{r4, r5, r6, lr}
	led_init();
  404552:	4b0c      	ldr	r3, [pc, #48]	; (404584 <task_house_down+0x34>)
  404554:	4798      	blx	r3
		if(xSemaphoreTake(xSemaphoreHouseDown, 1000)){
  404556:	4e0c      	ldr	r6, [pc, #48]	; (404588 <task_house_down+0x38>)
  404558:	4d0c      	ldr	r5, [pc, #48]	; (40458c <task_house_down+0x3c>)
			pio_set(LED_PIO, LED_IDX_MASK);
  40455a:	4c0d      	ldr	r4, [pc, #52]	; (404590 <task_house_down+0x40>)
  40455c:	e004      	b.n	404568 <task_house_down+0x18>
  40455e:	f44f 7180 	mov.w	r1, #256	; 0x100
  404562:	4620      	mov	r0, r4
  404564:	4b0b      	ldr	r3, [pc, #44]	; (404594 <task_house_down+0x44>)
  404566:	4798      	blx	r3
		if(xSemaphoreTake(xSemaphoreHouseDown, 1000)){
  404568:	f44f 717a 	mov.w	r1, #1000	; 0x3e8
  40456c:	6830      	ldr	r0, [r6, #0]
  40456e:	47a8      	blx	r5
  404570:	2800      	cmp	r0, #0
  404572:	d0f4      	beq.n	40455e <task_house_down+0xe>
			pisca_led(LED_PIO, LED_IDX_MASK, n);
  404574:	220a      	movs	r2, #10
  404576:	f44f 7180 	mov.w	r1, #256	; 0x100
  40457a:	4620      	mov	r0, r4
  40457c:	4b06      	ldr	r3, [pc, #24]	; (404598 <task_house_down+0x48>)
  40457e:	4798      	blx	r3
  404580:	e7f2      	b.n	404568 <task_house_down+0x18>
  404582:	bf00      	nop
  404584:	00404499 	.word	0x00404499
  404588:	2040c640 	.word	0x2040c640
  40458c:	00401095 	.word	0x00401095
  404590:	400e1200 	.word	0x400e1200
  404594:	00403435 	.word	0x00403435
  404598:	00404505 	.word	0x00404505

0040459c <apaga_tela>:
void apaga_tela() {
  40459c:	b510      	push	{r4, lr}
  40459e:	b082      	sub	sp, #8
	gfx_mono_draw_filled_rect(0, 0, 120, 30, GFX_PIXEL_CLR);
  4045a0:	2000      	movs	r0, #0
  4045a2:	9000      	str	r0, [sp, #0]
  4045a4:	231e      	movs	r3, #30
  4045a6:	2278      	movs	r2, #120	; 0x78
  4045a8:	4601      	mov	r1, r0
  4045aa:	4c02      	ldr	r4, [pc, #8]	; (4045b4 <apaga_tela+0x18>)
  4045ac:	47a0      	blx	r4
}
  4045ae:	b002      	add	sp, #8
  4045b0:	bd10      	pop	{r4, pc}
  4045b2:	bf00      	nop
  4045b4:	00402d05 	.word	0x00402d05

004045b8 <task_orientacao>:
static void task_orientacao(void *pvParameters) {
  4045b8:	b580      	push	{r7, lr}
  4045ba:	b082      	sub	sp, #8
	led_init();
  4045bc:	4b3a      	ldr	r3, [pc, #232]	; (4046a8 <task_orientacao+0xf0>)
  4045be:	4798      	blx	r3
	gfx_mono_ssd1306_init();
  4045c0:	4b3a      	ldr	r3, [pc, #232]	; (4046ac <task_orientacao+0xf4>)
  4045c2:	4798      	blx	r3
	gfx_mono_draw_string("aaaaaaaaaa", 0, 0, &sysfont);
  4045c4:	4b3a      	ldr	r3, [pc, #232]	; (4046b0 <task_orientacao+0xf8>)
  4045c6:	2200      	movs	r2, #0
  4045c8:	4611      	mov	r1, r2
  4045ca:	483a      	ldr	r0, [pc, #232]	; (4046b4 <task_orientacao+0xfc>)
  4045cc:	4c3a      	ldr	r4, [pc, #232]	; (4046b8 <task_orientacao+0x100>)
  4045ce:	47a0      	blx	r4
	printf("ashdsauuhuha");
  4045d0:	483a      	ldr	r0, [pc, #232]	; (4046bc <task_orientacao+0x104>)
  4045d2:	4b3b      	ldr	r3, [pc, #236]	; (4046c0 <task_orientacao+0x108>)
  4045d4:	4798      	blx	r3
				pio_clear(LED1_PIO, LED1_PIO_IDX_MASK);
  4045d6:	4f3b      	ldr	r7, [pc, #236]	; (4046c4 <task_orientacao+0x10c>)
				pio_set(LED2_PIO, LED2_PIO_IDX_MASK);
  4045d8:	4e3b      	ldr	r6, [pc, #236]	; (4046c8 <task_orientacao+0x110>)
  4045da:	e062      	b.n	4046a2 <task_orientacao+0xea>
			if (lado == FRENTE){
  4045dc:	9b01      	ldr	r3, [sp, #4]
  4045de:	2b01      	cmp	r3, #1
  4045e0:	d024      	beq.n	40462c <task_orientacao+0x74>
			if (lado == DIREITA){
  4045e2:	9b01      	ldr	r3, [sp, #4]
  4045e4:	2b02      	cmp	r3, #2
  4045e6:	d036      	beq.n	404656 <task_orientacao+0x9e>
			if (lado == 4){
  4045e8:	9b01      	ldr	r3, [sp, #4]
  4045ea:	2b04      	cmp	r3, #4
  4045ec:	d04c      	beq.n	404688 <task_orientacao+0xd0>
		if(xQueueReceive(xQueueLado, &(lado), 0)){
  4045ee:	4c37      	ldr	r4, [pc, #220]	; (4046cc <task_orientacao+0x114>)
  4045f0:	2200      	movs	r2, #0
  4045f2:	a901      	add	r1, sp, #4
  4045f4:	6828      	ldr	r0, [r5, #0]
  4045f6:	47a0      	blx	r4
  4045f8:	2800      	cmp	r0, #0
  4045fa:	d0f9      	beq.n	4045f0 <task_orientacao+0x38>
			if (lado == ESQUERDA){
  4045fc:	9b01      	ldr	r3, [sp, #4]
  4045fe:	2b00      	cmp	r3, #0
  404600:	d1ec      	bne.n	4045dc <task_orientacao+0x24>
				apaga_tela();
  404602:	4b33      	ldr	r3, [pc, #204]	; (4046d0 <task_orientacao+0x118>)
  404604:	4798      	blx	r3
				gfx_mono_draw_string("esquerda", 0, 0, &sysfont);
  404606:	4b2a      	ldr	r3, [pc, #168]	; (4046b0 <task_orientacao+0xf8>)
  404608:	2200      	movs	r2, #0
  40460a:	4611      	mov	r1, r2
  40460c:	4831      	ldr	r0, [pc, #196]	; (4046d4 <task_orientacao+0x11c>)
  40460e:	4c2a      	ldr	r4, [pc, #168]	; (4046b8 <task_orientacao+0x100>)
  404610:	47a0      	blx	r4
				pio_set(LED2_PIO, LED2_PIO_IDX_MASK);
  404612:	f04f 4180 	mov.w	r1, #1073741824	; 0x40000000
  404616:	4630      	mov	r0, r6
  404618:	4c2f      	ldr	r4, [pc, #188]	; (4046d8 <task_orientacao+0x120>)
  40461a:	47a0      	blx	r4
				pio_clear(LED1_PIO, LED1_PIO_IDX_MASK);
  40461c:	2101      	movs	r1, #1
  40461e:	4638      	mov	r0, r7
  404620:	4b2e      	ldr	r3, [pc, #184]	; (4046dc <task_orientacao+0x124>)
  404622:	4798      	blx	r3
				pio_set(LED3_PIO, LED3_PIO_IDX_MASK);
  404624:	2104      	movs	r1, #4
  404626:	482e      	ldr	r0, [pc, #184]	; (4046e0 <task_orientacao+0x128>)
  404628:	47a0      	blx	r4
  40462a:	e7d7      	b.n	4045dc <task_orientacao+0x24>
				apaga_tela();
  40462c:	4b28      	ldr	r3, [pc, #160]	; (4046d0 <task_orientacao+0x118>)
  40462e:	4798      	blx	r3
				gfx_mono_draw_string("frente", 0, 0, &sysfont);
  404630:	4b1f      	ldr	r3, [pc, #124]	; (4046b0 <task_orientacao+0xf8>)
  404632:	2200      	movs	r2, #0
  404634:	4611      	mov	r1, r2
  404636:	482b      	ldr	r0, [pc, #172]	; (4046e4 <task_orientacao+0x12c>)
  404638:	4c1f      	ldr	r4, [pc, #124]	; (4046b8 <task_orientacao+0x100>)
  40463a:	47a0      	blx	r4
				pio_clear(LED2_PIO, LED2_PIO_IDX_MASK);
  40463c:	f04f 4180 	mov.w	r1, #1073741824	; 0x40000000
  404640:	4630      	mov	r0, r6
  404642:	4b26      	ldr	r3, [pc, #152]	; (4046dc <task_orientacao+0x124>)
  404644:	4798      	blx	r3
				pio_set(LED1_PIO, LED1_PIO_IDX_MASK);
  404646:	2101      	movs	r1, #1
  404648:	4638      	mov	r0, r7
  40464a:	4c23      	ldr	r4, [pc, #140]	; (4046d8 <task_orientacao+0x120>)
  40464c:	47a0      	blx	r4
				pio_set(LED3_PIO, LED3_PIO_IDX_MASK);
  40464e:	2104      	movs	r1, #4
  404650:	4823      	ldr	r0, [pc, #140]	; (4046e0 <task_orientacao+0x128>)
  404652:	47a0      	blx	r4
  404654:	e7c5      	b.n	4045e2 <task_orientacao+0x2a>
				apaga_tela();
  404656:	4b1e      	ldr	r3, [pc, #120]	; (4046d0 <task_orientacao+0x118>)
  404658:	4798      	blx	r3
				printf("direita");
  40465a:	4c23      	ldr	r4, [pc, #140]	; (4046e8 <task_orientacao+0x130>)
  40465c:	4620      	mov	r0, r4
  40465e:	4b18      	ldr	r3, [pc, #96]	; (4046c0 <task_orientacao+0x108>)
  404660:	4798      	blx	r3
				gfx_mono_draw_string("direita", 0, 0, &sysfont);
  404662:	4b13      	ldr	r3, [pc, #76]	; (4046b0 <task_orientacao+0xf8>)
  404664:	2200      	movs	r2, #0
  404666:	4611      	mov	r1, r2
  404668:	4620      	mov	r0, r4
  40466a:	4c13      	ldr	r4, [pc, #76]	; (4046b8 <task_orientacao+0x100>)
  40466c:	47a0      	blx	r4
				pio_clear(LED3_PIO, LED3_PIO_IDX_MASK);
  40466e:	2104      	movs	r1, #4
  404670:	481b      	ldr	r0, [pc, #108]	; (4046e0 <task_orientacao+0x128>)
  404672:	4b1a      	ldr	r3, [pc, #104]	; (4046dc <task_orientacao+0x124>)
  404674:	4798      	blx	r3
				pio_set(LED1_PIO, LED1_PIO_IDX_MASK);
  404676:	2101      	movs	r1, #1
  404678:	4638      	mov	r0, r7
  40467a:	4c17      	ldr	r4, [pc, #92]	; (4046d8 <task_orientacao+0x120>)
  40467c:	47a0      	blx	r4
				pio_set(LED2_PIO, LED2_PIO_IDX_MASK);
  40467e:	f04f 4180 	mov.w	r1, #1073741824	; 0x40000000
  404682:	4630      	mov	r0, r6
  404684:	47a0      	blx	r4
  404686:	e7af      	b.n	4045e8 <task_orientacao+0x30>
				apaga_tela();
  404688:	4b11      	ldr	r3, [pc, #68]	; (4046d0 <task_orientacao+0x118>)
  40468a:	4798      	blx	r3
				pio_set(LED3_PIO, LED3_PIO_IDX_MASK);
  40468c:	2104      	movs	r1, #4
  40468e:	4814      	ldr	r0, [pc, #80]	; (4046e0 <task_orientacao+0x128>)
  404690:	4c11      	ldr	r4, [pc, #68]	; (4046d8 <task_orientacao+0x120>)
  404692:	47a0      	blx	r4
				pio_set(LED1_PIO, LED1_PIO_IDX_MASK);
  404694:	2101      	movs	r1, #1
  404696:	4638      	mov	r0, r7
  404698:	47a0      	blx	r4
				pio_set(LED2_PIO, LED2_PIO_IDX_MASK);
  40469a:	f04f 4180 	mov.w	r1, #1073741824	; 0x40000000
  40469e:	4630      	mov	r0, r6
  4046a0:	47a0      	blx	r4
		if(xQueueReceive(xQueueLado, &(lado), 0)){
  4046a2:	4d12      	ldr	r5, [pc, #72]	; (4046ec <task_orientacao+0x134>)
  4046a4:	e7a3      	b.n	4045ee <task_orientacao+0x36>
  4046a6:	bf00      	nop
  4046a8:	00404499 	.word	0x00404499
  4046ac:	00402e81 	.word	0x00402e81
  4046b0:	20400010 	.word	0x20400010
  4046b4:	0040a410 	.word	0x0040a410
  4046b8:	00402de9 	.word	0x00402de9
  4046bc:	0040a41c 	.word	0x0040a41c
  4046c0:	00407085 	.word	0x00407085
  4046c4:	400e0e00 	.word	0x400e0e00
  4046c8:	400e1200 	.word	0x400e1200
  4046cc:	00400efd 	.word	0x00400efd
  4046d0:	0040459d 	.word	0x0040459d
  4046d4:	0040a42c 	.word	0x0040a42c
  4046d8:	00403435 	.word	0x00403435
  4046dc:	00403439 	.word	0x00403439
  4046e0:	400e1000 	.word	0x400e1000
  4046e4:	0040a438 	.word	0x0040a438
  4046e8:	0040a440 	.word	0x0040a440
  4046ec:	2040c644 	.word	0x2040c644

004046f0 <main>:
/************************************************************************/
/* main                                                                 */
/************************************************************************/


int main(void) {
  4046f0:	b500      	push	{lr}
  4046f2:	b089      	sub	sp, #36	; 0x24
	/* Initialize the SAM system */
	sysclk_init();
  4046f4:	4b41      	ldr	r3, [pc, #260]	; (4047fc <main+0x10c>)
  4046f6:	4798      	blx	r3
	board_init();
  4046f8:	4b41      	ldr	r3, [pc, #260]	; (404800 <main+0x110>)
  4046fa:	4798      	blx	r3
 * \param opt         Options needed to set up RS232 communication (see \ref usart_options_t).
 *
 */
static inline void stdio_serial_init(volatile void *usart, const usart_serial_options_t *opt)
{
	stdio_base = (void *)usart;
  4046fc:	4d41      	ldr	r5, [pc, #260]	; (404804 <main+0x114>)
  4046fe:	4b42      	ldr	r3, [pc, #264]	; (404808 <main+0x118>)
  404700:	601d      	str	r5, [r3, #0]
	ptr_put = (int (*)(void volatile*,char))&usart_serial_putchar;
  404702:	4a42      	ldr	r2, [pc, #264]	; (40480c <main+0x11c>)
  404704:	4b42      	ldr	r3, [pc, #264]	; (404810 <main+0x120>)
  404706:	601a      	str	r2, [r3, #0]
	ptr_get = (void (*)(void volatile*,char*))&usart_serial_getchar;
  404708:	4a42      	ldr	r2, [pc, #264]	; (404814 <main+0x124>)
  40470a:	4b43      	ldr	r3, [pc, #268]	; (404818 <main+0x128>)
  40470c:	601a      	str	r2, [r3, #0]
	usart_settings.baudrate = opt->baudrate;
  40470e:	f44f 33e1 	mov.w	r3, #115200	; 0x1c200
  404712:	9302      	str	r3, [sp, #8]
	usart_settings.char_length = opt->charlength;
  404714:	23c0      	movs	r3, #192	; 0xc0
  404716:	9303      	str	r3, [sp, #12]
	usart_settings.parity_type = opt->paritytype;
  404718:	f44f 6300 	mov.w	r3, #2048	; 0x800
  40471c:	9304      	str	r3, [sp, #16]
	usart_settings.stop_bits= opt->stopbits;
  40471e:	2400      	movs	r4, #0
  404720:	9405      	str	r4, [sp, #20]
	usart_settings.channel_mode= US_MR_CHMODE_NORMAL;
  404722:	9406      	str	r4, [sp, #24]
 *
 * \param ul_id Id (number) of the peripheral clock.
 */
static inline void sysclk_enable_peripheral_clock(uint32_t ul_id)
{
	pmc_enable_periph_clk(ul_id);
  404724:	200e      	movs	r0, #14
  404726:	4b3d      	ldr	r3, [pc, #244]	; (40481c <main+0x12c>)
  404728:	4798      	blx	r3
		usart_init_rs232(p_usart, &usart_settings,
  40472a:	4a3d      	ldr	r2, [pc, #244]	; (404820 <main+0x130>)
  40472c:	a902      	add	r1, sp, #8
  40472e:	4628      	mov	r0, r5
  404730:	4b3c      	ldr	r3, [pc, #240]	; (404824 <main+0x134>)
  404732:	4798      	blx	r3
		usart_enable_tx(p_usart);
  404734:	4628      	mov	r0, r5
  404736:	4b3c      	ldr	r3, [pc, #240]	; (404828 <main+0x138>)
  404738:	4798      	blx	r3
		usart_enable_rx(p_usart);
  40473a:	4628      	mov	r0, r5
  40473c:	4b3b      	ldr	r3, [pc, #236]	; (40482c <main+0x13c>)
  40473e:	4798      	blx	r3
	fdevopen((int (*)(char, FILE*))(_write),(int (*)(FILE*))(_read));
#  endif
#  if UC3 || SAM
	// For AVR32 and SAM GCC
	// Specify that stdout and stdin should not be buffered.
	setbuf(stdout, NULL);
  404740:	4e3b      	ldr	r6, [pc, #236]	; (404830 <main+0x140>)
  404742:	6833      	ldr	r3, [r6, #0]
  404744:	4621      	mov	r1, r4
  404746:	6898      	ldr	r0, [r3, #8]
  404748:	4d3a      	ldr	r5, [pc, #232]	; (404834 <main+0x144>)
  40474a:	47a8      	blx	r5
	setbuf(stdin, NULL);
  40474c:	6833      	ldr	r3, [r6, #0]
  40474e:	4621      	mov	r1, r4
  404750:	6858      	ldr	r0, [r3, #4]
  404752:	47a8      	blx	r5
	setbuf(stdout, NULL);
  404754:	6833      	ldr	r3, [r6, #0]
  404756:	4621      	mov	r1, r4
  404758:	6898      	ldr	r0, [r3, #8]
  40475a:	47a8      	blx	r5

	/* Initialize the console uart */
	configure_console();
	/* Create task to control oled */
	if (xTaskCreate(task_oled, "oled", TASK_IMU_STACK_SIZE, NULL, TASK_IMU_STACK_PRIORITY, NULL) != pdPASS) {
  40475c:	9401      	str	r4, [sp, #4]
  40475e:	9400      	str	r4, [sp, #0]
  404760:	4623      	mov	r3, r4
  404762:	f44f 62c0 	mov.w	r2, #1536	; 0x600
  404766:	4934      	ldr	r1, [pc, #208]	; (404838 <main+0x148>)
  404768:	4834      	ldr	r0, [pc, #208]	; (40483c <main+0x14c>)
  40476a:	4c35      	ldr	r4, [pc, #212]	; (404840 <main+0x150>)
  40476c:	47a0      	blx	r4
  40476e:	2801      	cmp	r0, #1
  404770:	d002      	beq.n	404778 <main+0x88>
	  printf("Failed to create oled task\r\n");
  404772:	4834      	ldr	r0, [pc, #208]	; (404844 <main+0x154>)
  404774:	4b34      	ldr	r3, [pc, #208]	; (404848 <main+0x158>)
  404776:	4798      	blx	r3
	}
	if (xTaskCreate(task_imu, "imu", TASK_IMU_STACK_SIZE, NULL, TASK_IMU_STACK_PRIORITY, NULL) != pdPASS) {
  404778:	2300      	movs	r3, #0
  40477a:	9301      	str	r3, [sp, #4]
  40477c:	9300      	str	r3, [sp, #0]
  40477e:	f44f 62c0 	mov.w	r2, #1536	; 0x600
  404782:	4932      	ldr	r1, [pc, #200]	; (40484c <main+0x15c>)
  404784:	4832      	ldr	r0, [pc, #200]	; (404850 <main+0x160>)
  404786:	4c2e      	ldr	r4, [pc, #184]	; (404840 <main+0x150>)
  404788:	47a0      	blx	r4
  40478a:	2801      	cmp	r0, #1
  40478c:	d002      	beq.n	404794 <main+0xa4>
		printf("Failed to create oled imu\r\n");
  40478e:	4831      	ldr	r0, [pc, #196]	; (404854 <main+0x164>)
  404790:	4b2d      	ldr	r3, [pc, #180]	; (404848 <main+0x158>)
  404792:	4798      	blx	r3
	}

	if (xTaskCreate(task_house_down, "house_down", TASK_IMU_STACK_SIZE, NULL, TASK_IMU_STACK_PRIORITY, NULL) != pdPASS) {
  404794:	2300      	movs	r3, #0
  404796:	9301      	str	r3, [sp, #4]
  404798:	9300      	str	r3, [sp, #0]
  40479a:	f44f 62c0 	mov.w	r2, #1536	; 0x600
  40479e:	492e      	ldr	r1, [pc, #184]	; (404858 <main+0x168>)
  4047a0:	482e      	ldr	r0, [pc, #184]	; (40485c <main+0x16c>)
  4047a2:	4c27      	ldr	r4, [pc, #156]	; (404840 <main+0x150>)
  4047a4:	47a0      	blx	r4
  4047a6:	2801      	cmp	r0, #1
  4047a8:	d002      	beq.n	4047b0 <main+0xc0>
		printf("Failed to create `HOUSE DOWN\r\n");
  4047aa:	482d      	ldr	r0, [pc, #180]	; (404860 <main+0x170>)
  4047ac:	4b26      	ldr	r3, [pc, #152]	; (404848 <main+0x158>)
  4047ae:	4798      	blx	r3
	}

	if (xTaskCreate(task_orientacao, "orientacao", TASK_IMU_STACK_SIZE, NULL, TASK_IMU_STACK_PRIORITY, NULL) != pdPASS) {
  4047b0:	2300      	movs	r3, #0
  4047b2:	9301      	str	r3, [sp, #4]
  4047b4:	9300      	str	r3, [sp, #0]
  4047b6:	f44f 62c0 	mov.w	r2, #1536	; 0x600
  4047ba:	492a      	ldr	r1, [pc, #168]	; (404864 <main+0x174>)
  4047bc:	482a      	ldr	r0, [pc, #168]	; (404868 <main+0x178>)
  4047be:	4c20      	ldr	r4, [pc, #128]	; (404840 <main+0x150>)
  4047c0:	47a0      	blx	r4
  4047c2:	2801      	cmp	r0, #1
  4047c4:	d002      	beq.n	4047cc <main+0xdc>
		printf("Failed to create ORIENTATION\r\n");
  4047c6:	4829      	ldr	r0, [pc, #164]	; (40486c <main+0x17c>)
  4047c8:	4b1f      	ldr	r3, [pc, #124]	; (404848 <main+0x158>)
  4047ca:	4798      	blx	r3
	}

	// Sem?foro
	xSemaphoreHouseDown = xSemaphoreCreateBinary();
  4047cc:	2203      	movs	r2, #3
  4047ce:	2100      	movs	r1, #0
  4047d0:	2001      	movs	r0, #1
  4047d2:	4b27      	ldr	r3, [pc, #156]	; (404870 <main+0x180>)
  4047d4:	4798      	blx	r3
  4047d6:	4b27      	ldr	r3, [pc, #156]	; (404874 <main+0x184>)
  4047d8:	6018      	str	r0, [r3, #0]
	if (xSemaphoreHouseDown == NULL){
  4047da:	b140      	cbz	r0, 4047ee <main+0xfe>
		printf("falha em criar o semaforo \n");
	}
	
	xQueueLado = xQueueCreate(32, sizeof(int));
  4047dc:	2200      	movs	r2, #0
  4047de:	2104      	movs	r1, #4
  4047e0:	2020      	movs	r0, #32
  4047e2:	4b23      	ldr	r3, [pc, #140]	; (404870 <main+0x180>)
  4047e4:	4798      	blx	r3
  4047e6:	4b24      	ldr	r3, [pc, #144]	; (404878 <main+0x188>)
  4047e8:	6018      	str	r0, [r3, #0]
	
	if (xQueueLado == NULL)
  4047ea:	b120      	cbz	r0, 4047f6 <main+0x106>
  4047ec:	e7fe      	b.n	4047ec <main+0xfc>
		printf("falha em criar o semaforo \n");
  4047ee:	4823      	ldr	r0, [pc, #140]	; (40487c <main+0x18c>)
  4047f0:	4b15      	ldr	r3, [pc, #84]	; (404848 <main+0x158>)
  4047f2:	4798      	blx	r3
  4047f4:	e7f2      	b.n	4047dc <main+0xec>
	/* Start the scheduler. */
	vTaskStartScheduler();
  4047f6:	4b22      	ldr	r3, [pc, #136]	; (404880 <main+0x190>)
  4047f8:	4798      	blx	r3
  4047fa:	e7f7      	b.n	4047ec <main+0xfc>
  4047fc:	004031a1 	.word	0x004031a1
  404800:	0040329d 	.word	0x0040329d
  404804:	40028000 	.word	0x40028000
  404808:	2040c63c 	.word	0x2040c63c
  40480c:	00403ce5 	.word	0x00403ce5
  404810:	2040c638 	.word	0x2040c638
  404814:	00403c09 	.word	0x00403c09
  404818:	2040c634 	.word	0x2040c634
  40481c:	00403799 	.word	0x00403799
  404820:	08f0d180 	.word	0x08f0d180
  404824:	00403895 	.word	0x00403895
  404828:	004038e9 	.word	0x004038e9
  40482c:	004038ef 	.word	0x004038ef
  404830:	20400028 	.word	0x20400028
  404834:	0040727d 	.word	0x0040727d
  404838:	0040a280 	.word	0x0040a280
  40483c:	00403bd5 	.word	0x00403bd5
  404840:	0040146d 	.word	0x0040146d
  404844:	0040a288 	.word	0x0040a288
  404848:	00407085 	.word	0x00407085
  40484c:	0040a2a8 	.word	0x0040a2a8
  404850:	00403e99 	.word	0x00403e99
  404854:	0040a2ac 	.word	0x0040a2ac
  404858:	0040a2c8 	.word	0x0040a2c8
  40485c:	00404551 	.word	0x00404551
  404860:	0040a2d4 	.word	0x0040a2d4
  404864:	0040a2f4 	.word	0x0040a2f4
  404868:	004045b9 	.word	0x004045b9
  40486c:	0040a300 	.word	0x0040a300
  404870:	00400b9d 	.word	0x00400b9d
  404874:	2040c640 	.word	0x2040c640
  404878:	2040c644 	.word	0x2040c644
  40487c:	0040a320 	.word	0x0040a320
  404880:	00401661 	.word	0x00401661

00404884 <cosf>:
  404884:	b500      	push	{lr}
  404886:	4a1c      	ldr	r2, [pc, #112]	; (4048f8 <cosf+0x74>)
  404888:	f020 4300 	bic.w	r3, r0, #2147483648	; 0x80000000
  40488c:	4293      	cmp	r3, r2
  40488e:	b083      	sub	sp, #12
  404890:	dd18      	ble.n	4048c4 <cosf+0x40>
  404892:	f1b3 4fff 	cmp.w	r3, #2139095040	; 0x7f800000
  404896:	db05      	blt.n	4048a4 <cosf+0x20>
  404898:	4601      	mov	r1, r0
  40489a:	f002 f8b9 	bl	406a10 <__aeabi_fsub>
  40489e:	b003      	add	sp, #12
  4048a0:	f85d fb04 	ldr.w	pc, [sp], #4
  4048a4:	4669      	mov	r1, sp
  4048a6:	f000 fbaf 	bl	405008 <__ieee754_rem_pio2f>
  4048aa:	f000 0203 	and.w	r2, r0, #3
  4048ae:	2a01      	cmp	r2, #1
  4048b0:	d015      	beq.n	4048de <cosf+0x5a>
  4048b2:	2a02      	cmp	r2, #2
  4048b4:	d00c      	beq.n	4048d0 <cosf+0x4c>
  4048b6:	b1ca      	cbz	r2, 4048ec <cosf+0x68>
  4048b8:	2201      	movs	r2, #1
  4048ba:	9901      	ldr	r1, [sp, #4]
  4048bc:	9800      	ldr	r0, [sp, #0]
  4048be:	f001 f9af 	bl	405c20 <__kernel_sinf>
  4048c2:	e7ec      	b.n	40489e <cosf+0x1a>
  4048c4:	2100      	movs	r1, #0
  4048c6:	f000 fd61 	bl	40538c <__kernel_cosf>
  4048ca:	b003      	add	sp, #12
  4048cc:	f85d fb04 	ldr.w	pc, [sp], #4
  4048d0:	9901      	ldr	r1, [sp, #4]
  4048d2:	9800      	ldr	r0, [sp, #0]
  4048d4:	f000 fd5a 	bl	40538c <__kernel_cosf>
  4048d8:	f100 4000 	add.w	r0, r0, #2147483648	; 0x80000000
  4048dc:	e7df      	b.n	40489e <cosf+0x1a>
  4048de:	9901      	ldr	r1, [sp, #4]
  4048e0:	9800      	ldr	r0, [sp, #0]
  4048e2:	f001 f99d 	bl	405c20 <__kernel_sinf>
  4048e6:	f100 4000 	add.w	r0, r0, #2147483648	; 0x80000000
  4048ea:	e7d8      	b.n	40489e <cosf+0x1a>
  4048ec:	9901      	ldr	r1, [sp, #4]
  4048ee:	9800      	ldr	r0, [sp, #0]
  4048f0:	f000 fd4c 	bl	40538c <__kernel_cosf>
  4048f4:	e7d3      	b.n	40489e <cosf+0x1a>
  4048f6:	bf00      	nop
  4048f8:	3f490fd8 	.word	0x3f490fd8

004048fc <sinf>:
  4048fc:	b500      	push	{lr}
  4048fe:	4a1d      	ldr	r2, [pc, #116]	; (404974 <sinf+0x78>)
  404900:	f020 4300 	bic.w	r3, r0, #2147483648	; 0x80000000
  404904:	4293      	cmp	r3, r2
  404906:	b083      	sub	sp, #12
  404908:	dd19      	ble.n	40493e <sinf+0x42>
  40490a:	f1b3 4fff 	cmp.w	r3, #2139095040	; 0x7f800000
  40490e:	db05      	blt.n	40491c <sinf+0x20>
  404910:	4601      	mov	r1, r0
  404912:	f002 f87d 	bl	406a10 <__aeabi_fsub>
  404916:	b003      	add	sp, #12
  404918:	f85d fb04 	ldr.w	pc, [sp], #4
  40491c:	4669      	mov	r1, sp
  40491e:	f000 fb73 	bl	405008 <__ieee754_rem_pio2f>
  404922:	f000 0003 	and.w	r0, r0, #3
  404926:	2801      	cmp	r0, #1
  404928:	d018      	beq.n	40495c <sinf+0x60>
  40492a:	2802      	cmp	r0, #2
  40492c:	d00e      	beq.n	40494c <sinf+0x50>
  40492e:	b1d0      	cbz	r0, 404966 <sinf+0x6a>
  404930:	9901      	ldr	r1, [sp, #4]
  404932:	9800      	ldr	r0, [sp, #0]
  404934:	f000 fd2a 	bl	40538c <__kernel_cosf>
  404938:	f100 4000 	add.w	r0, r0, #2147483648	; 0x80000000
  40493c:	e7eb      	b.n	404916 <sinf+0x1a>
  40493e:	2200      	movs	r2, #0
  404940:	2100      	movs	r1, #0
  404942:	f001 f96d 	bl	405c20 <__kernel_sinf>
  404946:	b003      	add	sp, #12
  404948:	f85d fb04 	ldr.w	pc, [sp], #4
  40494c:	2201      	movs	r2, #1
  40494e:	9901      	ldr	r1, [sp, #4]
  404950:	9800      	ldr	r0, [sp, #0]
  404952:	f001 f965 	bl	405c20 <__kernel_sinf>
  404956:	f100 4000 	add.w	r0, r0, #2147483648	; 0x80000000
  40495a:	e7dc      	b.n	404916 <sinf+0x1a>
  40495c:	9901      	ldr	r1, [sp, #4]
  40495e:	9800      	ldr	r0, [sp, #0]
  404960:	f000 fd14 	bl	40538c <__kernel_cosf>
  404964:	e7d7      	b.n	404916 <sinf+0x1a>
  404966:	2201      	movs	r2, #1
  404968:	9901      	ldr	r1, [sp, #4]
  40496a:	9800      	ldr	r0, [sp, #0]
  40496c:	f001 f958 	bl	405c20 <__kernel_sinf>
  404970:	e7d1      	b.n	404916 <sinf+0x1a>
  404972:	bf00      	nop
  404974:	3f490fd8 	.word	0x3f490fd8

00404978 <sqrt>:
  404978:	e92d 4ff0 	stmdb	sp!, {r4, r5, r6, r7, r8, r9, sl, fp, lr}
  40497c:	b08b      	sub	sp, #44	; 0x2c
  40497e:	4604      	mov	r4, r0
  404980:	460d      	mov	r5, r1
  404982:	f000 f8a9 	bl	404ad8 <__ieee754_sqrt>
  404986:	4b29      	ldr	r3, [pc, #164]	; (404a2c <sqrt+0xb4>)
  404988:	f993 a000 	ldrsb.w	sl, [r3]
  40498c:	f1ba 3fff 	cmp.w	sl, #4294967295
  404990:	4606      	mov	r6, r0
  404992:	460f      	mov	r7, r1
  404994:	d012      	beq.n	4049bc <sqrt+0x44>
  404996:	4622      	mov	r2, r4
  404998:	462b      	mov	r3, r5
  40499a:	4620      	mov	r0, r4
  40499c:	4629      	mov	r1, r5
  40499e:	f001 ffcd 	bl	40693c <__aeabi_dcmpun>
  4049a2:	4683      	mov	fp, r0
  4049a4:	b950      	cbnz	r0, 4049bc <sqrt+0x44>
  4049a6:	f04f 0800 	mov.w	r8, #0
  4049aa:	f04f 0900 	mov.w	r9, #0
  4049ae:	4642      	mov	r2, r8
  4049b0:	464b      	mov	r3, r9
  4049b2:	4620      	mov	r0, r4
  4049b4:	4629      	mov	r1, r5
  4049b6:	f001 ff99 	bl	4068ec <__aeabi_dcmplt>
  4049ba:	b920      	cbnz	r0, 4049c6 <sqrt+0x4e>
  4049bc:	4630      	mov	r0, r6
  4049be:	4639      	mov	r1, r7
  4049c0:	b00b      	add	sp, #44	; 0x2c
  4049c2:	e8bd 8ff0 	ldmia.w	sp!, {r4, r5, r6, r7, r8, r9, sl, fp, pc}
  4049c6:	4b1a      	ldr	r3, [pc, #104]	; (404a30 <sqrt+0xb8>)
  4049c8:	f8cd b020 	str.w	fp, [sp, #32]
  4049cc:	2201      	movs	r2, #1
  4049ce:	e9cd 4504 	strd	r4, r5, [sp, #16]
  4049d2:	e9cd 4502 	strd	r4, r5, [sp, #8]
  4049d6:	e88d 000c 	stmia.w	sp, {r2, r3}
  4049da:	f1ba 0f00 	cmp.w	sl, #0
  4049de:	d017      	beq.n	404a10 <sqrt+0x98>
  4049e0:	4642      	mov	r2, r8
  4049e2:	464b      	mov	r3, r9
  4049e4:	4640      	mov	r0, r8
  4049e6:	4649      	mov	r1, r9
  4049e8:	f001 fe38 	bl	40665c <__aeabi_ddiv>
  4049ec:	f1ba 0f02 	cmp.w	sl, #2
  4049f0:	e9cd 0106 	strd	r0, r1, [sp, #24]
  4049f4:	d10e      	bne.n	404a14 <sqrt+0x9c>
  4049f6:	f002 fb17 	bl	407028 <__errno>
  4049fa:	2321      	movs	r3, #33	; 0x21
  4049fc:	6003      	str	r3, [r0, #0]
  4049fe:	9b08      	ldr	r3, [sp, #32]
  404a00:	b973      	cbnz	r3, 404a20 <sqrt+0xa8>
  404a02:	e9dd 6706 	ldrd	r6, r7, [sp, #24]
  404a06:	4630      	mov	r0, r6
  404a08:	4639      	mov	r1, r7
  404a0a:	b00b      	add	sp, #44	; 0x2c
  404a0c:	e8bd 8ff0 	ldmia.w	sp!, {r4, r5, r6, r7, r8, r9, sl, fp, pc}
  404a10:	e9cd 8906 	strd	r8, r9, [sp, #24]
  404a14:	4668      	mov	r0, sp
  404a16:	f001 f979 	bl	405d0c <matherr>
  404a1a:	2800      	cmp	r0, #0
  404a1c:	d1ef      	bne.n	4049fe <sqrt+0x86>
  404a1e:	e7ea      	b.n	4049f6 <sqrt+0x7e>
  404a20:	f002 fb02 	bl	407028 <__errno>
  404a24:	9b08      	ldr	r3, [sp, #32]
  404a26:	6003      	str	r3, [r0, #0]
  404a28:	e7eb      	b.n	404a02 <sqrt+0x8a>
  404a2a:	bf00      	nop
  404a2c:	20400024 	.word	0x20400024
  404a30:	0040a460 	.word	0x0040a460

00404a34 <asinf>:
  404a34:	b5f0      	push	{r4, r5, r6, r7, lr}
  404a36:	4e24      	ldr	r6, [pc, #144]	; (404ac8 <asinf+0x94>)
  404a38:	b08b      	sub	sp, #44	; 0x2c
  404a3a:	4604      	mov	r4, r0
  404a3c:	f000 f908 	bl	404c50 <__ieee754_asinf>
  404a40:	f996 3000 	ldrsb.w	r3, [r6]
  404a44:	3301      	adds	r3, #1
  404a46:	4605      	mov	r5, r0
  404a48:	d02f      	beq.n	404aaa <asinf+0x76>
  404a4a:	4621      	mov	r1, r4
  404a4c:	4620      	mov	r0, r4
  404a4e:	f002 faaf 	bl	406fb0 <__aeabi_fcmpun>
  404a52:	4607      	mov	r7, r0
  404a54:	bb48      	cbnz	r0, 404aaa <asinf+0x76>
  404a56:	4620      	mov	r0, r4
  404a58:	f001 fa76 	bl	405f48 <fabsf>
  404a5c:	f04f 517e 	mov.w	r1, #1065353216	; 0x3f800000
  404a60:	f002 fa9c 	bl	406f9c <__aeabi_fcmpgt>
  404a64:	b308      	cbz	r0, 404aaa <asinf+0x76>
  404a66:	4b19      	ldr	r3, [pc, #100]	; (404acc <asinf+0x98>)
  404a68:	9708      	str	r7, [sp, #32]
  404a6a:	2201      	movs	r2, #1
  404a6c:	4620      	mov	r0, r4
  404a6e:	e88d 000c 	stmia.w	sp, {r2, r3}
  404a72:	f001 fc75 	bl	406360 <__aeabi_f2d>
  404a76:	4602      	mov	r2, r0
  404a78:	460b      	mov	r3, r1
  404a7a:	4815      	ldr	r0, [pc, #84]	; (404ad0 <asinf+0x9c>)
  404a7c:	e9cd 2304 	strd	r2, r3, [sp, #16]
  404a80:	e9cd 2302 	strd	r2, r3, [sp, #8]
  404a84:	f001 f944 	bl	405d10 <nan>
  404a88:	f996 3000 	ldrsb.w	r3, [r6]
  404a8c:	2b02      	cmp	r3, #2
  404a8e:	e9cd 0106 	strd	r0, r1, [sp, #24]
  404a92:	d00d      	beq.n	404ab0 <asinf+0x7c>
  404a94:	4668      	mov	r0, sp
  404a96:	f001 f939 	bl	405d0c <matherr>
  404a9a:	b148      	cbz	r0, 404ab0 <asinf+0x7c>
  404a9c:	9b08      	ldr	r3, [sp, #32]
  404a9e:	b973      	cbnz	r3, 404abe <asinf+0x8a>
  404aa0:	e9dd 0106 	ldrd	r0, r1, [sp, #24]
  404aa4:	f001 ff60 	bl	406968 <__aeabi_d2f>
  404aa8:	4605      	mov	r5, r0
  404aaa:	4628      	mov	r0, r5
  404aac:	b00b      	add	sp, #44	; 0x2c
  404aae:	bdf0      	pop	{r4, r5, r6, r7, pc}
  404ab0:	f002 faba 	bl	407028 <__errno>
  404ab4:	2321      	movs	r3, #33	; 0x21
  404ab6:	6003      	str	r3, [r0, #0]
  404ab8:	9b08      	ldr	r3, [sp, #32]
  404aba:	2b00      	cmp	r3, #0
  404abc:	d0f0      	beq.n	404aa0 <asinf+0x6c>
  404abe:	f002 fab3 	bl	407028 <__errno>
  404ac2:	9b08      	ldr	r3, [sp, #32]
  404ac4:	6003      	str	r3, [r0, #0]
  404ac6:	e7eb      	b.n	404aa0 <asinf+0x6c>
  404ac8:	20400024 	.word	0x20400024
  404acc:	0040a468 	.word	0x0040a468
  404ad0:	0040a2a4 	.word	0x0040a2a4

00404ad4 <atan2f>:
  404ad4:	f000 ba06 	b.w	404ee4 <__ieee754_atan2f>

00404ad8 <__ieee754_sqrt>:
  404ad8:	e92d 43f8 	stmdb	sp!, {r3, r4, r5, r6, r7, r8, r9, lr}
  404adc:	4f5b      	ldr	r7, [pc, #364]	; (404c4c <__ieee754_sqrt+0x174>)
  404ade:	438f      	bics	r7, r1
  404ae0:	4605      	mov	r5, r0
  404ae2:	460c      	mov	r4, r1
  404ae4:	f000 8092 	beq.w	404c0c <__ieee754_sqrt+0x134>
  404ae8:	2900      	cmp	r1, #0
  404aea:	460b      	mov	r3, r1
  404aec:	4602      	mov	r2, r0
  404aee:	dd6f      	ble.n	404bd0 <__ieee754_sqrt+0xf8>
  404af0:	150f      	asrs	r7, r1, #20
  404af2:	d07b      	beq.n	404bec <__ieee754_sqrt+0x114>
  404af4:	f2a7 37ff 	subw	r7, r7, #1023	; 0x3ff
  404af8:	f3c3 0313 	ubfx	r3, r3, #0, #20
  404afc:	07f8      	lsls	r0, r7, #31
  404afe:	f443 1380 	orr.w	r3, r3, #1048576	; 0x100000
  404b02:	d45c      	bmi.n	404bbe <__ieee754_sqrt+0xe6>
  404b04:	eb03 71d2 	add.w	r1, r3, r2, lsr #31
  404b08:	2600      	movs	r6, #0
  404b0a:	440b      	add	r3, r1
  404b0c:	107f      	asrs	r7, r7, #1
  404b0e:	0052      	lsls	r2, r2, #1
  404b10:	46b6      	mov	lr, r6
  404b12:	2016      	movs	r0, #22
  404b14:	f44f 1100 	mov.w	r1, #2097152	; 0x200000
  404b18:	eb0e 0401 	add.w	r4, lr, r1
  404b1c:	429c      	cmp	r4, r3
  404b1e:	ea4f 75d2 	mov.w	r5, r2, lsr #31
  404b22:	ea4f 0242 	mov.w	r2, r2, lsl #1
  404b26:	dc03      	bgt.n	404b30 <__ieee754_sqrt+0x58>
  404b28:	1b1b      	subs	r3, r3, r4
  404b2a:	eb04 0e01 	add.w	lr, r4, r1
  404b2e:	440e      	add	r6, r1
  404b30:	3801      	subs	r0, #1
  404b32:	eb05 0343 	add.w	r3, r5, r3, lsl #1
  404b36:	ea4f 0151 	mov.w	r1, r1, lsr #1
  404b3a:	d1ed      	bne.n	404b18 <__ieee754_sqrt+0x40>
  404b3c:	4684      	mov	ip, r0
  404b3e:	2420      	movs	r4, #32
  404b40:	f04f 4100 	mov.w	r1, #2147483648	; 0x80000000
  404b44:	e009      	b.n	404b5a <__ieee754_sqrt+0x82>
  404b46:	d020      	beq.n	404b8a <__ieee754_sqrt+0xb2>
  404b48:	eb03 75d2 	add.w	r5, r3, r2, lsr #31
  404b4c:	3c01      	subs	r4, #1
  404b4e:	ea4f 0151 	mov.w	r1, r1, lsr #1
  404b52:	442b      	add	r3, r5
  404b54:	ea4f 0242 	mov.w	r2, r2, lsl #1
  404b58:	d020      	beq.n	404b9c <__ieee754_sqrt+0xc4>
  404b5a:	4573      	cmp	r3, lr
  404b5c:	eb01 050c 	add.w	r5, r1, ip
  404b60:	ddf1      	ble.n	404b46 <__ieee754_sqrt+0x6e>
  404b62:	2d00      	cmp	r5, #0
  404b64:	eb05 0c01 	add.w	ip, r5, r1
  404b68:	db09      	blt.n	404b7e <__ieee754_sqrt+0xa6>
  404b6a:	46f0      	mov	r8, lr
  404b6c:	4295      	cmp	r5, r2
  404b6e:	eba3 030e 	sub.w	r3, r3, lr
  404b72:	d900      	bls.n	404b76 <__ieee754_sqrt+0x9e>
  404b74:	3b01      	subs	r3, #1
  404b76:	1b52      	subs	r2, r2, r5
  404b78:	4408      	add	r0, r1
  404b7a:	46c6      	mov	lr, r8
  404b7c:	e7e4      	b.n	404b48 <__ieee754_sqrt+0x70>
  404b7e:	f1bc 0f00 	cmp.w	ip, #0
  404b82:	dbf2      	blt.n	404b6a <__ieee754_sqrt+0x92>
  404b84:	f10e 0801 	add.w	r8, lr, #1
  404b88:	e7f0      	b.n	404b6c <__ieee754_sqrt+0x94>
  404b8a:	4295      	cmp	r5, r2
  404b8c:	d8dc      	bhi.n	404b48 <__ieee754_sqrt+0x70>
  404b8e:	2d00      	cmp	r5, #0
  404b90:	eb05 0c01 	add.w	ip, r5, r1
  404b94:	db44      	blt.n	404c20 <__ieee754_sqrt+0x148>
  404b96:	4698      	mov	r8, r3
  404b98:	2300      	movs	r3, #0
  404b9a:	e7ec      	b.n	404b76 <__ieee754_sqrt+0x9e>
  404b9c:	4313      	orrs	r3, r2
  404b9e:	d113      	bne.n	404bc8 <__ieee754_sqrt+0xf0>
  404ba0:	0840      	lsrs	r0, r0, #1
  404ba2:	1073      	asrs	r3, r6, #1
  404ba4:	f103 537f 	add.w	r3, r3, #1069547520	; 0x3fc00000
  404ba8:	f503 1300 	add.w	r3, r3, #2097152	; 0x200000
  404bac:	07f2      	lsls	r2, r6, #31
  404bae:	eb03 5907 	add.w	r9, r3, r7, lsl #20
  404bb2:	bf48      	it	mi
  404bb4:	f040 4000 	orrmi.w	r0, r0, #2147483648	; 0x80000000
  404bb8:	4649      	mov	r1, r9
  404bba:	e8bd 83f8 	ldmia.w	sp!, {r3, r4, r5, r6, r7, r8, r9, pc}
  404bbe:	005b      	lsls	r3, r3, #1
  404bc0:	eb03 73d2 	add.w	r3, r3, r2, lsr #31
  404bc4:	0052      	lsls	r2, r2, #1
  404bc6:	e79d      	b.n	404b04 <__ieee754_sqrt+0x2c>
  404bc8:	1c41      	adds	r1, r0, #1
  404bca:	d02d      	beq.n	404c28 <__ieee754_sqrt+0x150>
  404bcc:	3001      	adds	r0, #1
  404bce:	e7e7      	b.n	404ba0 <__ieee754_sqrt+0xc8>
  404bd0:	4606      	mov	r6, r0
  404bd2:	f021 4700 	bic.w	r7, r1, #2147483648	; 0x80000000
  404bd6:	433e      	orrs	r6, r7
  404bd8:	d0ef      	beq.n	404bba <__ieee754_sqrt+0xe2>
  404bda:	bb69      	cbnz	r1, 404c38 <__ieee754_sqrt+0x160>
  404bdc:	460f      	mov	r7, r1
  404bde:	0ad3      	lsrs	r3, r2, #11
  404be0:	3f15      	subs	r7, #21
  404be2:	0552      	lsls	r2, r2, #21
  404be4:	2b00      	cmp	r3, #0
  404be6:	d0fa      	beq.n	404bde <__ieee754_sqrt+0x106>
  404be8:	02de      	lsls	r6, r3, #11
  404bea:	d420      	bmi.n	404c2e <__ieee754_sqrt+0x156>
  404bec:	2400      	movs	r4, #0
  404bee:	e000      	b.n	404bf2 <__ieee754_sqrt+0x11a>
  404bf0:	4604      	mov	r4, r0
  404bf2:	005b      	lsls	r3, r3, #1
  404bf4:	02dd      	lsls	r5, r3, #11
  404bf6:	f104 0001 	add.w	r0, r4, #1
  404bfa:	d5f9      	bpl.n	404bf0 <__ieee754_sqrt+0x118>
  404bfc:	f1c0 0120 	rsb	r1, r0, #32
  404c00:	fa22 f101 	lsr.w	r1, r2, r1
  404c04:	430b      	orrs	r3, r1
  404c06:	1b3f      	subs	r7, r7, r4
  404c08:	4082      	lsls	r2, r0
  404c0a:	e773      	b.n	404af4 <__ieee754_sqrt+0x1c>
  404c0c:	4602      	mov	r2, r0
  404c0e:	460b      	mov	r3, r1
  404c10:	f001 fbfa 	bl	406408 <__aeabi_dmul>
  404c14:	462a      	mov	r2, r5
  404c16:	4623      	mov	r3, r4
  404c18:	f001 fa44 	bl	4060a4 <__adddf3>
  404c1c:	e8bd 83f8 	ldmia.w	sp!, {r3, r4, r5, r6, r7, r8, r9, pc}
  404c20:	f1bc 0f00 	cmp.w	ip, #0
  404c24:	daae      	bge.n	404b84 <__ieee754_sqrt+0xac>
  404c26:	e7b6      	b.n	404b96 <__ieee754_sqrt+0xbe>
  404c28:	3601      	adds	r6, #1
  404c2a:	4620      	mov	r0, r4
  404c2c:	e7b9      	b.n	404ba2 <__ieee754_sqrt+0xca>
  404c2e:	2000      	movs	r0, #0
  404c30:	2120      	movs	r1, #32
  404c32:	f04f 34ff 	mov.w	r4, #4294967295
  404c36:	e7e3      	b.n	404c00 <__ieee754_sqrt+0x128>
  404c38:	4602      	mov	r2, r0
  404c3a:	460b      	mov	r3, r1
  404c3c:	f001 fa30 	bl	4060a0 <__aeabi_dsub>
  404c40:	4602      	mov	r2, r0
  404c42:	460b      	mov	r3, r1
  404c44:	f001 fd0a 	bl	40665c <__aeabi_ddiv>
  404c48:	e7b7      	b.n	404bba <__ieee754_sqrt+0xe2>
  404c4a:	bf00      	nop
  404c4c:	7ff00000 	.word	0x7ff00000

00404c50 <__ieee754_asinf>:
  404c50:	e92d 43f8 	stmdb	sp!, {r3, r4, r5, r6, r7, r8, r9, lr}
  404c54:	f020 4500 	bic.w	r5, r0, #2147483648	; 0x80000000
  404c58:	f1b5 5f7e 	cmp.w	r5, #1065353216	; 0x3f800000
  404c5c:	4604      	mov	r4, r0
  404c5e:	f000 80c6 	beq.w	404dee <__ieee754_asinf+0x19e>
  404c62:	dc12      	bgt.n	404c8a <__ieee754_asinf+0x3a>
  404c64:	f1b5 5f7c 	cmp.w	r5, #1056964608	; 0x3f000000
  404c68:	4606      	mov	r6, r0
  404c6a:	da16      	bge.n	404c9a <__ieee754_asinf+0x4a>
  404c6c:	f1b5 5f48 	cmp.w	r5, #838860800	; 0x32000000
  404c70:	f280 80cb 	bge.w	404e0a <__ieee754_asinf+0x1ba>
  404c74:	498b      	ldr	r1, [pc, #556]	; (404ea4 <__ieee754_asinf+0x254>)
  404c76:	f001 fecd 	bl	406a14 <__addsf3>
  404c7a:	f04f 517e 	mov.w	r1, #1065353216	; 0x3f800000
  404c7e:	f002 f98d 	bl	406f9c <__aeabi_fcmpgt>
  404c82:	b150      	cbz	r0, 404c9a <__ieee754_asinf+0x4a>
  404c84:	4620      	mov	r0, r4
  404c86:	e8bd 83f8 	ldmia.w	sp!, {r3, r4, r5, r6, r7, r8, r9, pc}
  404c8a:	4601      	mov	r1, r0
  404c8c:	f001 fec0 	bl	406a10 <__aeabi_fsub>
  404c90:	4601      	mov	r1, r0
  404c92:	f002 f87b 	bl	406d8c <__aeabi_fdiv>
  404c96:	e8bd 83f8 	ldmia.w	sp!, {r3, r4, r5, r6, r7, r8, r9, pc}
  404c9a:	4620      	mov	r0, r4
  404c9c:	f001 f954 	bl	405f48 <fabsf>
  404ca0:	4601      	mov	r1, r0
  404ca2:	f04f 507e 	mov.w	r0, #1065353216	; 0x3f800000
  404ca6:	f001 feb3 	bl	406a10 <__aeabi_fsub>
  404caa:	f04f 517c 	mov.w	r1, #1056964608	; 0x3f000000
  404cae:	f001 ffb9 	bl	406c24 <__aeabi_fmul>
  404cb2:	497d      	ldr	r1, [pc, #500]	; (404ea8 <__ieee754_asinf+0x258>)
  404cb4:	4604      	mov	r4, r0
  404cb6:	f001 ffb5 	bl	406c24 <__aeabi_fmul>
  404cba:	497c      	ldr	r1, [pc, #496]	; (404eac <__ieee754_asinf+0x25c>)
  404cbc:	f001 feaa 	bl	406a14 <__addsf3>
  404cc0:	4621      	mov	r1, r4
  404cc2:	f001 ffaf 	bl	406c24 <__aeabi_fmul>
  404cc6:	497a      	ldr	r1, [pc, #488]	; (404eb0 <__ieee754_asinf+0x260>)
  404cc8:	f001 fea2 	bl	406a10 <__aeabi_fsub>
  404ccc:	4621      	mov	r1, r4
  404cce:	f001 ffa9 	bl	406c24 <__aeabi_fmul>
  404cd2:	4978      	ldr	r1, [pc, #480]	; (404eb4 <__ieee754_asinf+0x264>)
  404cd4:	f001 fe9e 	bl	406a14 <__addsf3>
  404cd8:	4621      	mov	r1, r4
  404cda:	f001 ffa3 	bl	406c24 <__aeabi_fmul>
  404cde:	4976      	ldr	r1, [pc, #472]	; (404eb8 <__ieee754_asinf+0x268>)
  404ce0:	f001 fe96 	bl	406a10 <__aeabi_fsub>
  404ce4:	4621      	mov	r1, r4
  404ce6:	f001 ff9d 	bl	406c24 <__aeabi_fmul>
  404cea:	4974      	ldr	r1, [pc, #464]	; (404ebc <__ieee754_asinf+0x26c>)
  404cec:	f001 fe92 	bl	406a14 <__addsf3>
  404cf0:	4621      	mov	r1, r4
  404cf2:	f001 ff97 	bl	406c24 <__aeabi_fmul>
  404cf6:	4972      	ldr	r1, [pc, #456]	; (404ec0 <__ieee754_asinf+0x270>)
  404cf8:	4680      	mov	r8, r0
  404cfa:	4620      	mov	r0, r4
  404cfc:	f001 ff92 	bl	406c24 <__aeabi_fmul>
  404d00:	4970      	ldr	r1, [pc, #448]	; (404ec4 <__ieee754_asinf+0x274>)
  404d02:	f001 fe85 	bl	406a10 <__aeabi_fsub>
  404d06:	4621      	mov	r1, r4
  404d08:	f001 ff8c 	bl	406c24 <__aeabi_fmul>
  404d0c:	496e      	ldr	r1, [pc, #440]	; (404ec8 <__ieee754_asinf+0x278>)
  404d0e:	f001 fe81 	bl	406a14 <__addsf3>
  404d12:	4621      	mov	r1, r4
  404d14:	f001 ff86 	bl	406c24 <__aeabi_fmul>
  404d18:	496c      	ldr	r1, [pc, #432]	; (404ecc <__ieee754_asinf+0x27c>)
  404d1a:	f001 fe79 	bl	406a10 <__aeabi_fsub>
  404d1e:	4621      	mov	r1, r4
  404d20:	f001 ff80 	bl	406c24 <__aeabi_fmul>
  404d24:	f04f 517e 	mov.w	r1, #1065353216	; 0x3f800000
  404d28:	f001 fe74 	bl	406a14 <__addsf3>
  404d2c:	4681      	mov	r9, r0
  404d2e:	4620      	mov	r0, r4
  404d30:	f000 fad8 	bl	4052e4 <__ieee754_sqrtf>
  404d34:	4b66      	ldr	r3, [pc, #408]	; (404ed0 <__ieee754_asinf+0x280>)
  404d36:	429d      	cmp	r5, r3
  404d38:	4607      	mov	r7, r0
  404d3a:	4649      	mov	r1, r9
  404d3c:	4640      	mov	r0, r8
  404d3e:	dc43      	bgt.n	404dc8 <__ieee754_asinf+0x178>
  404d40:	f002 f824 	bl	406d8c <__aeabi_fdiv>
  404d44:	4639      	mov	r1, r7
  404d46:	4680      	mov	r8, r0
  404d48:	4638      	mov	r0, r7
  404d4a:	f001 fe63 	bl	406a14 <__addsf3>
  404d4e:	4601      	mov	r1, r0
  404d50:	4640      	mov	r0, r8
  404d52:	f001 ff67 	bl	406c24 <__aeabi_fmul>
  404d56:	f427 657f 	bic.w	r5, r7, #4080	; 0xff0
  404d5a:	f025 050f 	bic.w	r5, r5, #15
  404d5e:	4680      	mov	r8, r0
  404d60:	4629      	mov	r1, r5
  404d62:	4628      	mov	r0, r5
  404d64:	f001 ff5e 	bl	406c24 <__aeabi_fmul>
  404d68:	4601      	mov	r1, r0
  404d6a:	4620      	mov	r0, r4
  404d6c:	f001 fe50 	bl	406a10 <__aeabi_fsub>
  404d70:	4639      	mov	r1, r7
  404d72:	4604      	mov	r4, r0
  404d74:	4628      	mov	r0, r5
  404d76:	f001 fe4d 	bl	406a14 <__addsf3>
  404d7a:	4601      	mov	r1, r0
  404d7c:	4620      	mov	r0, r4
  404d7e:	f002 f805 	bl	406d8c <__aeabi_fdiv>
  404d82:	4601      	mov	r1, r0
  404d84:	f001 fe46 	bl	406a14 <__addsf3>
  404d88:	4601      	mov	r1, r0
  404d8a:	4852      	ldr	r0, [pc, #328]	; (404ed4 <__ieee754_asinf+0x284>)
  404d8c:	f001 fe40 	bl	406a10 <__aeabi_fsub>
  404d90:	4601      	mov	r1, r0
  404d92:	4640      	mov	r0, r8
  404d94:	f001 fe3c 	bl	406a10 <__aeabi_fsub>
  404d98:	4629      	mov	r1, r5
  404d9a:	4604      	mov	r4, r0
  404d9c:	4628      	mov	r0, r5
  404d9e:	f001 fe39 	bl	406a14 <__addsf3>
  404da2:	4601      	mov	r1, r0
  404da4:	484c      	ldr	r0, [pc, #304]	; (404ed8 <__ieee754_asinf+0x288>)
  404da6:	f001 fe33 	bl	406a10 <__aeabi_fsub>
  404daa:	4601      	mov	r1, r0
  404dac:	4620      	mov	r0, r4
  404dae:	f001 fe2f 	bl	406a10 <__aeabi_fsub>
  404db2:	4601      	mov	r1, r0
  404db4:	4848      	ldr	r0, [pc, #288]	; (404ed8 <__ieee754_asinf+0x288>)
  404db6:	f001 fe2b 	bl	406a10 <__aeabi_fsub>
  404dba:	2e00      	cmp	r6, #0
  404dbc:	f73f af63 	bgt.w	404c86 <__ieee754_asinf+0x36>
  404dc0:	f100 4000 	add.w	r0, r0, #2147483648	; 0x80000000
  404dc4:	e8bd 83f8 	ldmia.w	sp!, {r3, r4, r5, r6, r7, r8, r9, pc}
  404dc8:	f001 ffe0 	bl	406d8c <__aeabi_fdiv>
  404dcc:	4639      	mov	r1, r7
  404dce:	f001 ff29 	bl	406c24 <__aeabi_fmul>
  404dd2:	4639      	mov	r1, r7
  404dd4:	f001 fe1e 	bl	406a14 <__addsf3>
  404dd8:	4601      	mov	r1, r0
  404dda:	f001 fe1b 	bl	406a14 <__addsf3>
  404dde:	493f      	ldr	r1, [pc, #252]	; (404edc <__ieee754_asinf+0x28c>)
  404de0:	f001 fe18 	bl	406a14 <__addsf3>
  404de4:	4601      	mov	r1, r0
  404de6:	483e      	ldr	r0, [pc, #248]	; (404ee0 <__ieee754_asinf+0x290>)
  404de8:	f001 fe12 	bl	406a10 <__aeabi_fsub>
  404dec:	e7e5      	b.n	404dba <__ieee754_asinf+0x16a>
  404dee:	493c      	ldr	r1, [pc, #240]	; (404ee0 <__ieee754_asinf+0x290>)
  404df0:	f001 ff18 	bl	406c24 <__aeabi_fmul>
  404df4:	4937      	ldr	r1, [pc, #220]	; (404ed4 <__ieee754_asinf+0x284>)
  404df6:	4605      	mov	r5, r0
  404df8:	4620      	mov	r0, r4
  404dfa:	f001 ff13 	bl	406c24 <__aeabi_fmul>
  404dfe:	4601      	mov	r1, r0
  404e00:	4628      	mov	r0, r5
  404e02:	f001 fe07 	bl	406a14 <__addsf3>
  404e06:	e8bd 83f8 	ldmia.w	sp!, {r3, r4, r5, r6, r7, r8, r9, pc}
  404e0a:	4601      	mov	r1, r0
  404e0c:	f001 ff0a 	bl	406c24 <__aeabi_fmul>
  404e10:	4925      	ldr	r1, [pc, #148]	; (404ea8 <__ieee754_asinf+0x258>)
  404e12:	4605      	mov	r5, r0
  404e14:	f001 ff06 	bl	406c24 <__aeabi_fmul>
  404e18:	4924      	ldr	r1, [pc, #144]	; (404eac <__ieee754_asinf+0x25c>)
  404e1a:	f001 fdfb 	bl	406a14 <__addsf3>
  404e1e:	4629      	mov	r1, r5
  404e20:	f001 ff00 	bl	406c24 <__aeabi_fmul>
  404e24:	4922      	ldr	r1, [pc, #136]	; (404eb0 <__ieee754_asinf+0x260>)
  404e26:	f001 fdf3 	bl	406a10 <__aeabi_fsub>
  404e2a:	4629      	mov	r1, r5
  404e2c:	f001 fefa 	bl	406c24 <__aeabi_fmul>
  404e30:	4920      	ldr	r1, [pc, #128]	; (404eb4 <__ieee754_asinf+0x264>)
  404e32:	f001 fdef 	bl	406a14 <__addsf3>
  404e36:	4629      	mov	r1, r5
  404e38:	f001 fef4 	bl	406c24 <__aeabi_fmul>
  404e3c:	491e      	ldr	r1, [pc, #120]	; (404eb8 <__ieee754_asinf+0x268>)
  404e3e:	f001 fde7 	bl	406a10 <__aeabi_fsub>
  404e42:	4629      	mov	r1, r5
  404e44:	f001 feee 	bl	406c24 <__aeabi_fmul>
  404e48:	491c      	ldr	r1, [pc, #112]	; (404ebc <__ieee754_asinf+0x26c>)
  404e4a:	f001 fde3 	bl	406a14 <__addsf3>
  404e4e:	4629      	mov	r1, r5
  404e50:	f001 fee8 	bl	406c24 <__aeabi_fmul>
  404e54:	491a      	ldr	r1, [pc, #104]	; (404ec0 <__ieee754_asinf+0x270>)
  404e56:	4606      	mov	r6, r0
  404e58:	4628      	mov	r0, r5
  404e5a:	f001 fee3 	bl	406c24 <__aeabi_fmul>
  404e5e:	4919      	ldr	r1, [pc, #100]	; (404ec4 <__ieee754_asinf+0x274>)
  404e60:	f001 fdd6 	bl	406a10 <__aeabi_fsub>
  404e64:	4629      	mov	r1, r5
  404e66:	f001 fedd 	bl	406c24 <__aeabi_fmul>
  404e6a:	4917      	ldr	r1, [pc, #92]	; (404ec8 <__ieee754_asinf+0x278>)
  404e6c:	f001 fdd2 	bl	406a14 <__addsf3>
  404e70:	4629      	mov	r1, r5
  404e72:	f001 fed7 	bl	406c24 <__aeabi_fmul>
  404e76:	4915      	ldr	r1, [pc, #84]	; (404ecc <__ieee754_asinf+0x27c>)
  404e78:	f001 fdca 	bl	406a10 <__aeabi_fsub>
  404e7c:	4629      	mov	r1, r5
  404e7e:	f001 fed1 	bl	406c24 <__aeabi_fmul>
  404e82:	f04f 517e 	mov.w	r1, #1065353216	; 0x3f800000
  404e86:	f001 fdc5 	bl	406a14 <__addsf3>
  404e8a:	4601      	mov	r1, r0
  404e8c:	4630      	mov	r0, r6
  404e8e:	f001 ff7d 	bl	406d8c <__aeabi_fdiv>
  404e92:	4621      	mov	r1, r4
  404e94:	f001 fec6 	bl	406c24 <__aeabi_fmul>
  404e98:	4621      	mov	r1, r4
  404e9a:	f001 fdbb 	bl	406a14 <__addsf3>
  404e9e:	e8bd 83f8 	ldmia.w	sp!, {r3, r4, r5, r6, r7, r8, r9, pc}
  404ea2:	bf00      	nop
  404ea4:	7149f2ca 	.word	0x7149f2ca
  404ea8:	3811ef08 	.word	0x3811ef08
  404eac:	3a4f7f04 	.word	0x3a4f7f04
  404eb0:	3d241146 	.word	0x3d241146
  404eb4:	3e4e0aa8 	.word	0x3e4e0aa8
  404eb8:	3ea6b090 	.word	0x3ea6b090
  404ebc:	3e2aaaab 	.word	0x3e2aaaab
  404ec0:	3d9dc62e 	.word	0x3d9dc62e
  404ec4:	3f303361 	.word	0x3f303361
  404ec8:	4001572d 	.word	0x4001572d
  404ecc:	4019d139 	.word	0x4019d139
  404ed0:	3f799999 	.word	0x3f799999
  404ed4:	b33bbd2e 	.word	0xb33bbd2e
  404ed8:	3f490fdb 	.word	0x3f490fdb
  404edc:	333bbd2e 	.word	0x333bbd2e
  404ee0:	3fc90fdb 	.word	0x3fc90fdb

00404ee4 <__ieee754_atan2f>:
  404ee4:	b5f8      	push	{r3, r4, r5, r6, r7, lr}
  404ee6:	460c      	mov	r4, r1
  404ee8:	f021 4100 	bic.w	r1, r1, #2147483648	; 0x80000000
  404eec:	f1b1 4fff 	cmp.w	r1, #2139095040	; 0x7f800000
  404ef0:	4603      	mov	r3, r0
  404ef2:	dc14      	bgt.n	404f1e <__ieee754_atan2f+0x3a>
  404ef4:	f020 4600 	bic.w	r6, r0, #2147483648	; 0x80000000
  404ef8:	f1b6 4fff 	cmp.w	r6, #2139095040	; 0x7f800000
  404efc:	4607      	mov	r7, r0
  404efe:	dc0e      	bgt.n	404f1e <__ieee754_atan2f+0x3a>
  404f00:	f1b4 5f7e 	cmp.w	r4, #1065353216	; 0x3f800000
  404f04:	d03d      	beq.n	404f82 <__ieee754_atan2f+0x9e>
  404f06:	17a5      	asrs	r5, r4, #30
  404f08:	f005 0502 	and.w	r5, r5, #2
  404f0c:	ea45 75d0 	orr.w	r5, r5, r0, lsr #31
  404f10:	b956      	cbnz	r6, 404f28 <__ieee754_atan2f+0x44>
  404f12:	2d02      	cmp	r5, #2
  404f14:	d030      	beq.n	404f78 <__ieee754_atan2f+0x94>
  404f16:	2d03      	cmp	r5, #3
  404f18:	d130      	bne.n	404f7c <__ieee754_atan2f+0x98>
  404f1a:	4832      	ldr	r0, [pc, #200]	; (404fe4 <__ieee754_atan2f+0x100>)
  404f1c:	bdf8      	pop	{r3, r4, r5, r6, r7, pc}
  404f1e:	4619      	mov	r1, r3
  404f20:	4620      	mov	r0, r4
  404f22:	f001 fd77 	bl	406a14 <__addsf3>
  404f26:	bdf8      	pop	{r3, r4, r5, r6, r7, pc}
  404f28:	b301      	cbz	r1, 404f6c <__ieee754_atan2f+0x88>
  404f2a:	f1b1 4fff 	cmp.w	r1, #2139095040	; 0x7f800000
  404f2e:	d02c      	beq.n	404f8a <__ieee754_atan2f+0xa6>
  404f30:	f1b6 4fff 	cmp.w	r6, #2139095040	; 0x7f800000
  404f34:	d01a      	beq.n	404f6c <__ieee754_atan2f+0x88>
  404f36:	1a71      	subs	r1, r6, r1
  404f38:	15c9      	asrs	r1, r1, #23
  404f3a:	293c      	cmp	r1, #60	; 0x3c
  404f3c:	dc1a      	bgt.n	404f74 <__ieee754_atan2f+0x90>
  404f3e:	2c00      	cmp	r4, #0
  404f40:	db39      	blt.n	404fb6 <__ieee754_atan2f+0xd2>
  404f42:	4621      	mov	r1, r4
  404f44:	4618      	mov	r0, r3
  404f46:	f001 ff21 	bl	406d8c <__aeabi_fdiv>
  404f4a:	f000 fffd 	bl	405f48 <fabsf>
  404f4e:	f000 fee5 	bl	405d1c <atanf>
  404f52:	2d01      	cmp	r5, #1
  404f54:	d02c      	beq.n	404fb0 <__ieee754_atan2f+0xcc>
  404f56:	2d02      	cmp	r5, #2
  404f58:	d022      	beq.n	404fa0 <__ieee754_atan2f+0xbc>
  404f5a:	2d00      	cmp	r5, #0
  404f5c:	d02f      	beq.n	404fbe <__ieee754_atan2f+0xda>
  404f5e:	4922      	ldr	r1, [pc, #136]	; (404fe8 <__ieee754_atan2f+0x104>)
  404f60:	f001 fd58 	bl	406a14 <__addsf3>
  404f64:	4921      	ldr	r1, [pc, #132]	; (404fec <__ieee754_atan2f+0x108>)
  404f66:	f001 fd53 	bl	406a10 <__aeabi_fsub>
  404f6a:	bdf8      	pop	{r3, r4, r5, r6, r7, pc}
  404f6c:	2f00      	cmp	r7, #0
  404f6e:	db06      	blt.n	404f7e <__ieee754_atan2f+0x9a>
  404f70:	481f      	ldr	r0, [pc, #124]	; (404ff0 <__ieee754_atan2f+0x10c>)
  404f72:	bdf8      	pop	{r3, r4, r5, r6, r7, pc}
  404f74:	481e      	ldr	r0, [pc, #120]	; (404ff0 <__ieee754_atan2f+0x10c>)
  404f76:	e7ec      	b.n	404f52 <__ieee754_atan2f+0x6e>
  404f78:	481c      	ldr	r0, [pc, #112]	; (404fec <__ieee754_atan2f+0x108>)
  404f7a:	bdf8      	pop	{r3, r4, r5, r6, r7, pc}
  404f7c:	bdf8      	pop	{r3, r4, r5, r6, r7, pc}
  404f7e:	481d      	ldr	r0, [pc, #116]	; (404ff4 <__ieee754_atan2f+0x110>)
  404f80:	bdf8      	pop	{r3, r4, r5, r6, r7, pc}
  404f82:	e8bd 40f8 	ldmia.w	sp!, {r3, r4, r5, r6, r7, lr}
  404f86:	f000 bec9 	b.w	405d1c <atanf>
  404f8a:	f1b6 4fff 	cmp.w	r6, #2139095040	; 0x7f800000
  404f8e:	d017      	beq.n	404fc0 <__ieee754_atan2f+0xdc>
  404f90:	2d02      	cmp	r5, #2
  404f92:	d0f1      	beq.n	404f78 <__ieee754_atan2f+0x94>
  404f94:	2d03      	cmp	r5, #3
  404f96:	d0c0      	beq.n	404f1a <__ieee754_atan2f+0x36>
  404f98:	2d01      	cmp	r5, #1
  404f9a:	d019      	beq.n	404fd0 <__ieee754_atan2f+0xec>
  404f9c:	2000      	movs	r0, #0
  404f9e:	bdf8      	pop	{r3, r4, r5, r6, r7, pc}
  404fa0:	4911      	ldr	r1, [pc, #68]	; (404fe8 <__ieee754_atan2f+0x104>)
  404fa2:	f001 fd37 	bl	406a14 <__addsf3>
  404fa6:	4601      	mov	r1, r0
  404fa8:	4810      	ldr	r0, [pc, #64]	; (404fec <__ieee754_atan2f+0x108>)
  404faa:	f001 fd31 	bl	406a10 <__aeabi_fsub>
  404fae:	bdf8      	pop	{r3, r4, r5, r6, r7, pc}
  404fb0:	f100 4000 	add.w	r0, r0, #2147483648	; 0x80000000
  404fb4:	bdf8      	pop	{r3, r4, r5, r6, r7, pc}
  404fb6:	313c      	adds	r1, #60	; 0x3c
  404fb8:	dac3      	bge.n	404f42 <__ieee754_atan2f+0x5e>
  404fba:	2000      	movs	r0, #0
  404fbc:	e7c9      	b.n	404f52 <__ieee754_atan2f+0x6e>
  404fbe:	bdf8      	pop	{r3, r4, r5, r6, r7, pc}
  404fc0:	2d02      	cmp	r5, #2
  404fc2:	d00c      	beq.n	404fde <__ieee754_atan2f+0xfa>
  404fc4:	2d03      	cmp	r5, #3
  404fc6:	d008      	beq.n	404fda <__ieee754_atan2f+0xf6>
  404fc8:	2d01      	cmp	r5, #1
  404fca:	d004      	beq.n	404fd6 <__ieee754_atan2f+0xf2>
  404fcc:	480a      	ldr	r0, [pc, #40]	; (404ff8 <__ieee754_atan2f+0x114>)
  404fce:	bdf8      	pop	{r3, r4, r5, r6, r7, pc}
  404fd0:	f04f 4000 	mov.w	r0, #2147483648	; 0x80000000
  404fd4:	bdf8      	pop	{r3, r4, r5, r6, r7, pc}
  404fd6:	4809      	ldr	r0, [pc, #36]	; (404ffc <__ieee754_atan2f+0x118>)
  404fd8:	bdf8      	pop	{r3, r4, r5, r6, r7, pc}
  404fda:	4809      	ldr	r0, [pc, #36]	; (405000 <__ieee754_atan2f+0x11c>)
  404fdc:	bdf8      	pop	{r3, r4, r5, r6, r7, pc}
  404fde:	4809      	ldr	r0, [pc, #36]	; (405004 <__ieee754_atan2f+0x120>)
  404fe0:	bdf8      	pop	{r3, r4, r5, r6, r7, pc}
  404fe2:	bf00      	nop
  404fe4:	c0490fdb 	.word	0xc0490fdb
  404fe8:	33bbbd2e 	.word	0x33bbbd2e
  404fec:	40490fdb 	.word	0x40490fdb
  404ff0:	3fc90fdb 	.word	0x3fc90fdb
  404ff4:	bfc90fdb 	.word	0xbfc90fdb
  404ff8:	3f490fdb 	.word	0x3f490fdb
  404ffc:	bf490fdb 	.word	0xbf490fdb
  405000:	c016cbe4 	.word	0xc016cbe4
  405004:	4016cbe4 	.word	0x4016cbe4

00405008 <__ieee754_rem_pio2f>:
  405008:	e92d 4ff0 	stmdb	sp!, {r4, r5, r6, r7, r8, r9, sl, fp, lr}
  40500c:	4aa8      	ldr	r2, [pc, #672]	; (4052b0 <__ieee754_rem_pio2f+0x2a8>)
  40500e:	f020 4400 	bic.w	r4, r0, #2147483648	; 0x80000000
  405012:	4294      	cmp	r4, r2
  405014:	b089      	sub	sp, #36	; 0x24
  405016:	dd6e      	ble.n	4050f6 <__ieee754_rem_pio2f+0xee>
  405018:	4aa6      	ldr	r2, [pc, #664]	; (4052b4 <__ieee754_rem_pio2f+0x2ac>)
  40501a:	4294      	cmp	r4, r2
  40501c:	4606      	mov	r6, r0
  40501e:	460d      	mov	r5, r1
  405020:	dc1c      	bgt.n	40505c <__ieee754_rem_pio2f+0x54>
  405022:	2800      	cmp	r0, #0
  405024:	49a4      	ldr	r1, [pc, #656]	; (4052b8 <__ieee754_rem_pio2f+0x2b0>)
  405026:	f340 80fc 	ble.w	405222 <__ieee754_rem_pio2f+0x21a>
  40502a:	f001 fcf1 	bl	406a10 <__aeabi_fsub>
  40502e:	4ba3      	ldr	r3, [pc, #652]	; (4052bc <__ieee754_rem_pio2f+0x2b4>)
  405030:	f024 040f 	bic.w	r4, r4, #15
  405034:	429c      	cmp	r4, r3
  405036:	4606      	mov	r6, r0
  405038:	d06c      	beq.n	405114 <__ieee754_rem_pio2f+0x10c>
  40503a:	49a1      	ldr	r1, [pc, #644]	; (4052c0 <__ieee754_rem_pio2f+0x2b8>)
  40503c:	f001 fce8 	bl	406a10 <__aeabi_fsub>
  405040:	4601      	mov	r1, r0
  405042:	6028      	str	r0, [r5, #0]
  405044:	4630      	mov	r0, r6
  405046:	f001 fce3 	bl	406a10 <__aeabi_fsub>
  40504a:	499d      	ldr	r1, [pc, #628]	; (4052c0 <__ieee754_rem_pio2f+0x2b8>)
  40504c:	f001 fce0 	bl	406a10 <__aeabi_fsub>
  405050:	2701      	movs	r7, #1
  405052:	6068      	str	r0, [r5, #4]
  405054:	4638      	mov	r0, r7
  405056:	b009      	add	sp, #36	; 0x24
  405058:	e8bd 8ff0 	ldmia.w	sp!, {r4, r5, r6, r7, r8, r9, sl, fp, pc}
  40505c:	4a99      	ldr	r2, [pc, #612]	; (4052c4 <__ieee754_rem_pio2f+0x2bc>)
  40505e:	4294      	cmp	r4, r2
  405060:	dd6a      	ble.n	405138 <__ieee754_rem_pio2f+0x130>
  405062:	f1b4 4fff 	cmp.w	r4, #2139095040	; 0x7f800000
  405066:	da4e      	bge.n	405106 <__ieee754_rem_pio2f+0xfe>
  405068:	15e7      	asrs	r7, r4, #23
  40506a:	3f86      	subs	r7, #134	; 0x86
  40506c:	eba4 54c7 	sub.w	r4, r4, r7, lsl #23
  405070:	4620      	mov	r0, r4
  405072:	f001 ffb3 	bl	406fdc <__aeabi_f2iz>
  405076:	f001 fd81 	bl	406b7c <__aeabi_i2f>
  40507a:	4603      	mov	r3, r0
  40507c:	4601      	mov	r1, r0
  40507e:	4620      	mov	r0, r4
  405080:	9305      	str	r3, [sp, #20]
  405082:	f001 fcc5 	bl	406a10 <__aeabi_fsub>
  405086:	f04f 4187 	mov.w	r1, #1132462080	; 0x43800000
  40508a:	f001 fdcb 	bl	406c24 <__aeabi_fmul>
  40508e:	4680      	mov	r8, r0
  405090:	f001 ffa4 	bl	406fdc <__aeabi_f2iz>
  405094:	f001 fd72 	bl	406b7c <__aeabi_i2f>
  405098:	4601      	mov	r1, r0
  40509a:	4604      	mov	r4, r0
  40509c:	4640      	mov	r0, r8
  40509e:	9406      	str	r4, [sp, #24]
  4050a0:	f001 fcb6 	bl	406a10 <__aeabi_fsub>
  4050a4:	f04f 4187 	mov.w	r1, #1132462080	; 0x43800000
  4050a8:	f001 fdbc 	bl	406c24 <__aeabi_fmul>
  4050ac:	2100      	movs	r1, #0
  4050ae:	9007      	str	r0, [sp, #28]
  4050b0:	f001 ff4c 	bl	406f4c <__aeabi_fcmpeq>
  4050b4:	2800      	cmp	r0, #0
  4050b6:	f000 80cb 	beq.w	405250 <__ieee754_rem_pio2f+0x248>
  4050ba:	4620      	mov	r0, r4
  4050bc:	2100      	movs	r1, #0
  4050be:	f001 ff45 	bl	406f4c <__aeabi_fcmpeq>
  4050c2:	2800      	cmp	r0, #0
  4050c4:	bf14      	ite	ne
  4050c6:	2301      	movne	r3, #1
  4050c8:	2302      	moveq	r3, #2
  4050ca:	4a7f      	ldr	r2, [pc, #508]	; (4052c8 <__ieee754_rem_pio2f+0x2c0>)
  4050cc:	9201      	str	r2, [sp, #4]
  4050ce:	2102      	movs	r1, #2
  4050d0:	463a      	mov	r2, r7
  4050d2:	9100      	str	r1, [sp, #0]
  4050d4:	a805      	add	r0, sp, #20
  4050d6:	4629      	mov	r1, r5
  4050d8:	f000 fa1c 	bl	405514 <__kernel_rem_pio2f>
  4050dc:	2e00      	cmp	r6, #0
  4050de:	4607      	mov	r7, r0
  4050e0:	da0d      	bge.n	4050fe <__ieee754_rem_pio2f+0xf6>
  4050e2:	e895 000c 	ldmia.w	r5, {r2, r3}
  4050e6:	f102 4200 	add.w	r2, r2, #2147483648	; 0x80000000
  4050ea:	f103 4300 	add.w	r3, r3, #2147483648	; 0x80000000
  4050ee:	4247      	negs	r7, r0
  4050f0:	602a      	str	r2, [r5, #0]
  4050f2:	606b      	str	r3, [r5, #4]
  4050f4:	e003      	b.n	4050fe <__ieee754_rem_pio2f+0xf6>
  4050f6:	2200      	movs	r2, #0
  4050f8:	6008      	str	r0, [r1, #0]
  4050fa:	604a      	str	r2, [r1, #4]
  4050fc:	2700      	movs	r7, #0
  4050fe:	4638      	mov	r0, r7
  405100:	b009      	add	sp, #36	; 0x24
  405102:	e8bd 8ff0 	ldmia.w	sp!, {r4, r5, r6, r7, r8, r9, sl, fp, pc}
  405106:	4601      	mov	r1, r0
  405108:	f001 fc82 	bl	406a10 <__aeabi_fsub>
  40510c:	2700      	movs	r7, #0
  40510e:	6068      	str	r0, [r5, #4]
  405110:	6028      	str	r0, [r5, #0]
  405112:	e7f4      	b.n	4050fe <__ieee754_rem_pio2f+0xf6>
  405114:	496d      	ldr	r1, [pc, #436]	; (4052cc <__ieee754_rem_pio2f+0x2c4>)
  405116:	f001 fc7b 	bl	406a10 <__aeabi_fsub>
  40511a:	496d      	ldr	r1, [pc, #436]	; (4052d0 <__ieee754_rem_pio2f+0x2c8>)
  40511c:	4604      	mov	r4, r0
  40511e:	f001 fc77 	bl	406a10 <__aeabi_fsub>
  405122:	4601      	mov	r1, r0
  405124:	6028      	str	r0, [r5, #0]
  405126:	4620      	mov	r0, r4
  405128:	f001 fc72 	bl	406a10 <__aeabi_fsub>
  40512c:	4968      	ldr	r1, [pc, #416]	; (4052d0 <__ieee754_rem_pio2f+0x2c8>)
  40512e:	f001 fc6f 	bl	406a10 <__aeabi_fsub>
  405132:	2701      	movs	r7, #1
  405134:	6068      	str	r0, [r5, #4]
  405136:	e7e2      	b.n	4050fe <__ieee754_rem_pio2f+0xf6>
  405138:	f000 ff06 	bl	405f48 <fabsf>
  40513c:	4965      	ldr	r1, [pc, #404]	; (4052d4 <__ieee754_rem_pio2f+0x2cc>)
  40513e:	4680      	mov	r8, r0
  405140:	f001 fd70 	bl	406c24 <__aeabi_fmul>
  405144:	f04f 517c 	mov.w	r1, #1056964608	; 0x3f000000
  405148:	f001 fc64 	bl	406a14 <__addsf3>
  40514c:	f001 ff46 	bl	406fdc <__aeabi_f2iz>
  405150:	4607      	mov	r7, r0
  405152:	f001 fd13 	bl	406b7c <__aeabi_i2f>
  405156:	4958      	ldr	r1, [pc, #352]	; (4052b8 <__ieee754_rem_pio2f+0x2b0>)
  405158:	4683      	mov	fp, r0
  40515a:	f001 fd63 	bl	406c24 <__aeabi_fmul>
  40515e:	4601      	mov	r1, r0
  405160:	4640      	mov	r0, r8
  405162:	f001 fc55 	bl	406a10 <__aeabi_fsub>
  405166:	4956      	ldr	r1, [pc, #344]	; (4052c0 <__ieee754_rem_pio2f+0x2b8>)
  405168:	4681      	mov	r9, r0
  40516a:	4658      	mov	r0, fp
  40516c:	f001 fd5a 	bl	406c24 <__aeabi_fmul>
  405170:	2f1f      	cmp	r7, #31
  405172:	4682      	mov	sl, r0
  405174:	dc21      	bgt.n	4051ba <__ieee754_rem_pio2f+0x1b2>
  405176:	4a58      	ldr	r2, [pc, #352]	; (4052d8 <__ieee754_rem_pio2f+0x2d0>)
  405178:	1e79      	subs	r1, r7, #1
  40517a:	f024 03ff 	bic.w	r3, r4, #255	; 0xff
  40517e:	f852 2021 	ldr.w	r2, [r2, r1, lsl #2]
  405182:	4293      	cmp	r3, r2
  405184:	d019      	beq.n	4051ba <__ieee754_rem_pio2f+0x1b2>
  405186:	4651      	mov	r1, sl
  405188:	4648      	mov	r0, r9
  40518a:	f001 fc41 	bl	406a10 <__aeabi_fsub>
  40518e:	4680      	mov	r8, r0
  405190:	f8c5 8000 	str.w	r8, [r5]
  405194:	4641      	mov	r1, r8
  405196:	4648      	mov	r0, r9
  405198:	f001 fc3a 	bl	406a10 <__aeabi_fsub>
  40519c:	4651      	mov	r1, sl
  40519e:	f001 fc37 	bl	406a10 <__aeabi_fsub>
  4051a2:	2e00      	cmp	r6, #0
  4051a4:	6068      	str	r0, [r5, #4]
  4051a6:	daaa      	bge.n	4050fe <__ieee754_rem_pio2f+0xf6>
  4051a8:	f108 4800 	add.w	r8, r8, #2147483648	; 0x80000000
  4051ac:	f100 4000 	add.w	r0, r0, #2147483648	; 0x80000000
  4051b0:	f8c5 8000 	str.w	r8, [r5]
  4051b4:	6068      	str	r0, [r5, #4]
  4051b6:	427f      	negs	r7, r7
  4051b8:	e7a1      	b.n	4050fe <__ieee754_rem_pio2f+0xf6>
  4051ba:	4651      	mov	r1, sl
  4051bc:	4648      	mov	r0, r9
  4051be:	f001 fc27 	bl	406a10 <__aeabi_fsub>
  4051c2:	15e2      	asrs	r2, r4, #23
  4051c4:	f3c0 53c7 	ubfx	r3, r0, #23, #8
  4051c8:	1ad3      	subs	r3, r2, r3
  4051ca:	2b08      	cmp	r3, #8
  4051cc:	4680      	mov	r8, r0
  4051ce:	dddf      	ble.n	405190 <__ieee754_rem_pio2f+0x188>
  4051d0:	493e      	ldr	r1, [pc, #248]	; (4052cc <__ieee754_rem_pio2f+0x2c4>)
  4051d2:	9203      	str	r2, [sp, #12]
  4051d4:	4658      	mov	r0, fp
  4051d6:	f001 fd25 	bl	406c24 <__aeabi_fmul>
  4051da:	4680      	mov	r8, r0
  4051dc:	4601      	mov	r1, r0
  4051de:	4648      	mov	r0, r9
  4051e0:	f001 fc16 	bl	406a10 <__aeabi_fsub>
  4051e4:	4601      	mov	r1, r0
  4051e6:	4604      	mov	r4, r0
  4051e8:	4648      	mov	r0, r9
  4051ea:	f001 fc11 	bl	406a10 <__aeabi_fsub>
  4051ee:	4641      	mov	r1, r8
  4051f0:	f001 fc0e 	bl	406a10 <__aeabi_fsub>
  4051f4:	4936      	ldr	r1, [pc, #216]	; (4052d0 <__ieee754_rem_pio2f+0x2c8>)
  4051f6:	4680      	mov	r8, r0
  4051f8:	4658      	mov	r0, fp
  4051fa:	f001 fd13 	bl	406c24 <__aeabi_fmul>
  4051fe:	4641      	mov	r1, r8
  405200:	f001 fc06 	bl	406a10 <__aeabi_fsub>
  405204:	4601      	mov	r1, r0
  405206:	4682      	mov	sl, r0
  405208:	4620      	mov	r0, r4
  40520a:	f001 fc01 	bl	406a10 <__aeabi_fsub>
  40520e:	9a03      	ldr	r2, [sp, #12]
  405210:	f3c0 53c7 	ubfx	r3, r0, #23, #8
  405214:	1ad2      	subs	r2, r2, r3
  405216:	2a19      	cmp	r2, #25
  405218:	4680      	mov	r8, r0
  40521a:	dc2e      	bgt.n	40527a <__ieee754_rem_pio2f+0x272>
  40521c:	6028      	str	r0, [r5, #0]
  40521e:	46a1      	mov	r9, r4
  405220:	e7b8      	b.n	405194 <__ieee754_rem_pio2f+0x18c>
  405222:	f001 fbf7 	bl	406a14 <__addsf3>
  405226:	4b25      	ldr	r3, [pc, #148]	; (4052bc <__ieee754_rem_pio2f+0x2b4>)
  405228:	f024 040f 	bic.w	r4, r4, #15
  40522c:	429c      	cmp	r4, r3
  40522e:	4606      	mov	r6, r0
  405230:	d010      	beq.n	405254 <__ieee754_rem_pio2f+0x24c>
  405232:	4923      	ldr	r1, [pc, #140]	; (4052c0 <__ieee754_rem_pio2f+0x2b8>)
  405234:	f001 fbee 	bl	406a14 <__addsf3>
  405238:	4601      	mov	r1, r0
  40523a:	6028      	str	r0, [r5, #0]
  40523c:	4630      	mov	r0, r6
  40523e:	f001 fbe7 	bl	406a10 <__aeabi_fsub>
  405242:	491f      	ldr	r1, [pc, #124]	; (4052c0 <__ieee754_rem_pio2f+0x2b8>)
  405244:	f001 fbe6 	bl	406a14 <__addsf3>
  405248:	f04f 37ff 	mov.w	r7, #4294967295
  40524c:	6068      	str	r0, [r5, #4]
  40524e:	e756      	b.n	4050fe <__ieee754_rem_pio2f+0xf6>
  405250:	2303      	movs	r3, #3
  405252:	e73a      	b.n	4050ca <__ieee754_rem_pio2f+0xc2>
  405254:	491d      	ldr	r1, [pc, #116]	; (4052cc <__ieee754_rem_pio2f+0x2c4>)
  405256:	f001 fbdd 	bl	406a14 <__addsf3>
  40525a:	491d      	ldr	r1, [pc, #116]	; (4052d0 <__ieee754_rem_pio2f+0x2c8>)
  40525c:	4604      	mov	r4, r0
  40525e:	f001 fbd9 	bl	406a14 <__addsf3>
  405262:	4601      	mov	r1, r0
  405264:	6028      	str	r0, [r5, #0]
  405266:	4620      	mov	r0, r4
  405268:	f001 fbd2 	bl	406a10 <__aeabi_fsub>
  40526c:	4918      	ldr	r1, [pc, #96]	; (4052d0 <__ieee754_rem_pio2f+0x2c8>)
  40526e:	f001 fbd1 	bl	406a14 <__addsf3>
  405272:	f04f 37ff 	mov.w	r7, #4294967295
  405276:	6068      	str	r0, [r5, #4]
  405278:	e741      	b.n	4050fe <__ieee754_rem_pio2f+0xf6>
  40527a:	4918      	ldr	r1, [pc, #96]	; (4052dc <__ieee754_rem_pio2f+0x2d4>)
  40527c:	4658      	mov	r0, fp
  40527e:	f001 fcd1 	bl	406c24 <__aeabi_fmul>
  405282:	4601      	mov	r1, r0
  405284:	4680      	mov	r8, r0
  405286:	4620      	mov	r0, r4
  405288:	f001 fbc2 	bl	406a10 <__aeabi_fsub>
  40528c:	4601      	mov	r1, r0
  40528e:	4681      	mov	r9, r0
  405290:	4620      	mov	r0, r4
  405292:	f001 fbbd 	bl	406a10 <__aeabi_fsub>
  405296:	4641      	mov	r1, r8
  405298:	f001 fbba 	bl	406a10 <__aeabi_fsub>
  40529c:	4910      	ldr	r1, [pc, #64]	; (4052e0 <__ieee754_rem_pio2f+0x2d8>)
  40529e:	4604      	mov	r4, r0
  4052a0:	4658      	mov	r0, fp
  4052a2:	f001 fcbf 	bl	406c24 <__aeabi_fmul>
  4052a6:	4621      	mov	r1, r4
  4052a8:	f001 fbb2 	bl	406a10 <__aeabi_fsub>
  4052ac:	4682      	mov	sl, r0
  4052ae:	e76a      	b.n	405186 <__ieee754_rem_pio2f+0x17e>
  4052b0:	3f490fd8 	.word	0x3f490fd8
  4052b4:	4016cbe3 	.word	0x4016cbe3
  4052b8:	3fc90f80 	.word	0x3fc90f80
  4052bc:	3fc90fd0 	.word	0x3fc90fd0
  4052c0:	37354443 	.word	0x37354443
  4052c4:	43490f80 	.word	0x43490f80
  4052c8:	0040a4f0 	.word	0x0040a4f0
  4052cc:	37354400 	.word	0x37354400
  4052d0:	2e85a308 	.word	0x2e85a308
  4052d4:	3f22f984 	.word	0x3f22f984
  4052d8:	0040a470 	.word	0x0040a470
  4052dc:	2e85a300 	.word	0x2e85a300
  4052e0:	248d3132 	.word	0x248d3132

004052e4 <__ieee754_sqrtf>:
  4052e4:	f020 4200 	bic.w	r2, r0, #2147483648	; 0x80000000
  4052e8:	f1b2 4fff 	cmp.w	r2, #2139095040	; 0x7f800000
  4052ec:	b5f8      	push	{r3, r4, r5, r6, r7, lr}
  4052ee:	4604      	mov	r4, r0
  4052f0:	d22e      	bcs.n	405350 <__ieee754_sqrtf+0x6c>
  4052f2:	b362      	cbz	r2, 40534e <__ieee754_sqrtf+0x6a>
  4052f4:	2800      	cmp	r0, #0
  4052f6:	4603      	mov	r3, r0
  4052f8:	db3d      	blt.n	405376 <__ieee754_sqrtf+0x92>
  4052fa:	f5b2 0f00 	cmp.w	r2, #8388608	; 0x800000
  4052fe:	ea4f 50e0 	mov.w	r0, r0, asr #23
  405302:	d32c      	bcc.n	40535e <__ieee754_sqrtf+0x7a>
  405304:	387f      	subs	r0, #127	; 0x7f
  405306:	f3c3 0316 	ubfx	r3, r3, #0, #23
  40530a:	f443 0300 	orr.w	r3, r3, #8388608	; 0x800000
  40530e:	07c2      	lsls	r2, r0, #31
  405310:	bf48      	it	mi
  405312:	005b      	lslmi	r3, r3, #1
  405314:	2600      	movs	r6, #0
  405316:	1047      	asrs	r7, r0, #1
  405318:	005b      	lsls	r3, r3, #1
  40531a:	4631      	mov	r1, r6
  40531c:	2419      	movs	r4, #25
  40531e:	f04f 7280 	mov.w	r2, #16777216	; 0x1000000
  405322:	188d      	adds	r5, r1, r2
  405324:	429d      	cmp	r5, r3
  405326:	dc02      	bgt.n	40532e <__ieee754_sqrtf+0x4a>
  405328:	1b5b      	subs	r3, r3, r5
  40532a:	18a9      	adds	r1, r5, r2
  40532c:	4416      	add	r6, r2
  40532e:	3c01      	subs	r4, #1
  405330:	ea4f 0343 	mov.w	r3, r3, lsl #1
  405334:	ea4f 0252 	mov.w	r2, r2, lsr #1
  405338:	d1f3      	bne.n	405322 <__ieee754_sqrtf+0x3e>
  40533a:	b113      	cbz	r3, 405342 <__ieee754_sqrtf+0x5e>
  40533c:	3601      	adds	r6, #1
  40533e:	f026 0601 	bic.w	r6, r6, #1
  405342:	1070      	asrs	r0, r6, #1
  405344:	f100 507c 	add.w	r0, r0, #1056964608	; 0x3f000000
  405348:	eb00 50c7 	add.w	r0, r0, r7, lsl #23
  40534c:	bdf8      	pop	{r3, r4, r5, r6, r7, pc}
  40534e:	bdf8      	pop	{r3, r4, r5, r6, r7, pc}
  405350:	4601      	mov	r1, r0
  405352:	f001 fc67 	bl	406c24 <__aeabi_fmul>
  405356:	4621      	mov	r1, r4
  405358:	f001 fb5c 	bl	406a14 <__addsf3>
  40535c:	bdf8      	pop	{r3, r4, r5, r6, r7, pc}
  40535e:	f414 0200 	ands.w	r2, r4, #8388608	; 0x800000
  405362:	d001      	beq.n	405368 <__ieee754_sqrtf+0x84>
  405364:	e00e      	b.n	405384 <__ieee754_sqrtf+0xa0>
  405366:	460a      	mov	r2, r1
  405368:	005b      	lsls	r3, r3, #1
  40536a:	021c      	lsls	r4, r3, #8
  40536c:	f102 0101 	add.w	r1, r2, #1
  405370:	d5f9      	bpl.n	405366 <__ieee754_sqrtf+0x82>
  405372:	1a80      	subs	r0, r0, r2
  405374:	e7c6      	b.n	405304 <__ieee754_sqrtf+0x20>
  405376:	4601      	mov	r1, r0
  405378:	f001 fb4a 	bl	406a10 <__aeabi_fsub>
  40537c:	4601      	mov	r1, r0
  40537e:	f001 fd05 	bl	406d8c <__aeabi_fdiv>
  405382:	bdf8      	pop	{r3, r4, r5, r6, r7, pc}
  405384:	f04f 32ff 	mov.w	r2, #4294967295
  405388:	e7f3      	b.n	405372 <__ieee754_sqrtf+0x8e>
  40538a:	bf00      	nop

0040538c <__kernel_cosf>:
  40538c:	e92d 43f8 	stmdb	sp!, {r3, r4, r5, r6, r7, r8, r9, lr}
  405390:	f020 4400 	bic.w	r4, r0, #2147483648	; 0x80000000
  405394:	f1b4 5f48 	cmp.w	r4, #838860800	; 0x32000000
  405398:	4606      	mov	r6, r0
  40539a:	460f      	mov	r7, r1
  40539c:	da49      	bge.n	405432 <__kernel_cosf+0xa6>
  40539e:	f001 fe1d 	bl	406fdc <__aeabi_f2iz>
  4053a2:	2800      	cmp	r0, #0
  4053a4:	f000 809d 	beq.w	4054e2 <__kernel_cosf+0x156>
  4053a8:	4631      	mov	r1, r6
  4053aa:	4630      	mov	r0, r6
  4053ac:	f001 fc3a 	bl	406c24 <__aeabi_fmul>
  4053b0:	494e      	ldr	r1, [pc, #312]	; (4054ec <__kernel_cosf+0x160>)
  4053b2:	4605      	mov	r5, r0
  4053b4:	f001 fc36 	bl	406c24 <__aeabi_fmul>
  4053b8:	494d      	ldr	r1, [pc, #308]	; (4054f0 <__kernel_cosf+0x164>)
  4053ba:	f001 fb2b 	bl	406a14 <__addsf3>
  4053be:	4629      	mov	r1, r5
  4053c0:	f001 fc30 	bl	406c24 <__aeabi_fmul>
  4053c4:	494b      	ldr	r1, [pc, #300]	; (4054f4 <__kernel_cosf+0x168>)
  4053c6:	f001 fb23 	bl	406a10 <__aeabi_fsub>
  4053ca:	4629      	mov	r1, r5
  4053cc:	f001 fc2a 	bl	406c24 <__aeabi_fmul>
  4053d0:	4949      	ldr	r1, [pc, #292]	; (4054f8 <__kernel_cosf+0x16c>)
  4053d2:	f001 fb1f 	bl	406a14 <__addsf3>
  4053d6:	4629      	mov	r1, r5
  4053d8:	f001 fc24 	bl	406c24 <__aeabi_fmul>
  4053dc:	4947      	ldr	r1, [pc, #284]	; (4054fc <__kernel_cosf+0x170>)
  4053de:	f001 fb17 	bl	406a10 <__aeabi_fsub>
  4053e2:	4629      	mov	r1, r5
  4053e4:	f001 fc1e 	bl	406c24 <__aeabi_fmul>
  4053e8:	4945      	ldr	r1, [pc, #276]	; (405500 <__kernel_cosf+0x174>)
  4053ea:	f001 fb13 	bl	406a14 <__addsf3>
  4053ee:	4629      	mov	r1, r5
  4053f0:	f001 fc18 	bl	406c24 <__aeabi_fmul>
  4053f4:	4680      	mov	r8, r0
  4053f6:	f04f 517c 	mov.w	r1, #1056964608	; 0x3f000000
  4053fa:	4628      	mov	r0, r5
  4053fc:	f001 fc12 	bl	406c24 <__aeabi_fmul>
  405400:	4641      	mov	r1, r8
  405402:	4604      	mov	r4, r0
  405404:	4628      	mov	r0, r5
  405406:	f001 fc0d 	bl	406c24 <__aeabi_fmul>
  40540a:	4639      	mov	r1, r7
  40540c:	4605      	mov	r5, r0
  40540e:	4630      	mov	r0, r6
  405410:	f001 fc08 	bl	406c24 <__aeabi_fmul>
  405414:	4601      	mov	r1, r0
  405416:	4628      	mov	r0, r5
  405418:	f001 fafa 	bl	406a10 <__aeabi_fsub>
  40541c:	4601      	mov	r1, r0
  40541e:	4620      	mov	r0, r4
  405420:	f001 faf6 	bl	406a10 <__aeabi_fsub>
  405424:	4601      	mov	r1, r0
  405426:	f04f 507e 	mov.w	r0, #1065353216	; 0x3f800000
  40542a:	f001 faf1 	bl	406a10 <__aeabi_fsub>
  40542e:	e8bd 83f8 	ldmia.w	sp!, {r3, r4, r5, r6, r7, r8, r9, pc}
  405432:	4601      	mov	r1, r0
  405434:	f001 fbf6 	bl	406c24 <__aeabi_fmul>
  405438:	492c      	ldr	r1, [pc, #176]	; (4054ec <__kernel_cosf+0x160>)
  40543a:	4605      	mov	r5, r0
  40543c:	f001 fbf2 	bl	406c24 <__aeabi_fmul>
  405440:	492b      	ldr	r1, [pc, #172]	; (4054f0 <__kernel_cosf+0x164>)
  405442:	f001 fae7 	bl	406a14 <__addsf3>
  405446:	4629      	mov	r1, r5
  405448:	f001 fbec 	bl	406c24 <__aeabi_fmul>
  40544c:	4929      	ldr	r1, [pc, #164]	; (4054f4 <__kernel_cosf+0x168>)
  40544e:	f001 fadf 	bl	406a10 <__aeabi_fsub>
  405452:	4629      	mov	r1, r5
  405454:	f001 fbe6 	bl	406c24 <__aeabi_fmul>
  405458:	4927      	ldr	r1, [pc, #156]	; (4054f8 <__kernel_cosf+0x16c>)
  40545a:	f001 fadb 	bl	406a14 <__addsf3>
  40545e:	4629      	mov	r1, r5
  405460:	f001 fbe0 	bl	406c24 <__aeabi_fmul>
  405464:	4925      	ldr	r1, [pc, #148]	; (4054fc <__kernel_cosf+0x170>)
  405466:	f001 fad3 	bl	406a10 <__aeabi_fsub>
  40546a:	4629      	mov	r1, r5
  40546c:	f001 fbda 	bl	406c24 <__aeabi_fmul>
  405470:	4923      	ldr	r1, [pc, #140]	; (405500 <__kernel_cosf+0x174>)
  405472:	f001 facf 	bl	406a14 <__addsf3>
  405476:	4629      	mov	r1, r5
  405478:	f001 fbd4 	bl	406c24 <__aeabi_fmul>
  40547c:	4b21      	ldr	r3, [pc, #132]	; (405504 <__kernel_cosf+0x178>)
  40547e:	429c      	cmp	r4, r3
  405480:	4680      	mov	r8, r0
  405482:	ddb8      	ble.n	4053f6 <__kernel_cosf+0x6a>
  405484:	4b20      	ldr	r3, [pc, #128]	; (405508 <__kernel_cosf+0x17c>)
  405486:	429c      	cmp	r4, r3
  405488:	dc27      	bgt.n	4054da <__kernel_cosf+0x14e>
  40548a:	f104 447f 	add.w	r4, r4, #4278190080	; 0xff000000
  40548e:	4621      	mov	r1, r4
  405490:	f04f 507e 	mov.w	r0, #1065353216	; 0x3f800000
  405494:	f001 fabc 	bl	406a10 <__aeabi_fsub>
  405498:	4681      	mov	r9, r0
  40549a:	f04f 517c 	mov.w	r1, #1056964608	; 0x3f000000
  40549e:	4628      	mov	r0, r5
  4054a0:	f001 fbc0 	bl	406c24 <__aeabi_fmul>
  4054a4:	4621      	mov	r1, r4
  4054a6:	f001 fab3 	bl	406a10 <__aeabi_fsub>
  4054aa:	4641      	mov	r1, r8
  4054ac:	4604      	mov	r4, r0
  4054ae:	4628      	mov	r0, r5
  4054b0:	f001 fbb8 	bl	406c24 <__aeabi_fmul>
  4054b4:	4639      	mov	r1, r7
  4054b6:	4605      	mov	r5, r0
  4054b8:	4630      	mov	r0, r6
  4054ba:	f001 fbb3 	bl	406c24 <__aeabi_fmul>
  4054be:	4601      	mov	r1, r0
  4054c0:	4628      	mov	r0, r5
  4054c2:	f001 faa5 	bl	406a10 <__aeabi_fsub>
  4054c6:	4601      	mov	r1, r0
  4054c8:	4620      	mov	r0, r4
  4054ca:	f001 faa1 	bl	406a10 <__aeabi_fsub>
  4054ce:	4601      	mov	r1, r0
  4054d0:	4648      	mov	r0, r9
  4054d2:	f001 fa9d 	bl	406a10 <__aeabi_fsub>
  4054d6:	e8bd 83f8 	ldmia.w	sp!, {r3, r4, r5, r6, r7, r8, r9, pc}
  4054da:	f8df 9034 	ldr.w	r9, [pc, #52]	; 405510 <__kernel_cosf+0x184>
  4054de:	4c0b      	ldr	r4, [pc, #44]	; (40550c <__kernel_cosf+0x180>)
  4054e0:	e7db      	b.n	40549a <__kernel_cosf+0x10e>
  4054e2:	f04f 507e 	mov.w	r0, #1065353216	; 0x3f800000
  4054e6:	e8bd 83f8 	ldmia.w	sp!, {r3, r4, r5, r6, r7, r8, r9, pc}
  4054ea:	bf00      	nop
  4054ec:	ad47d74e 	.word	0xad47d74e
  4054f0:	310f74f6 	.word	0x310f74f6
  4054f4:	3493f27c 	.word	0x3493f27c
  4054f8:	37d00d01 	.word	0x37d00d01
  4054fc:	3ab60b61 	.word	0x3ab60b61
  405500:	3d2aaaab 	.word	0x3d2aaaab
  405504:	3e999999 	.word	0x3e999999
  405508:	3f480000 	.word	0x3f480000
  40550c:	3e900000 	.word	0x3e900000
  405510:	3f380000 	.word	0x3f380000

00405514 <__kernel_rem_pio2f>:
  405514:	e92d 4ff0 	stmdb	sp!, {r4, r5, r6, r7, r8, r9, sl, fp, lr}
  405518:	b0dd      	sub	sp, #372	; 0x174
  40551a:	4c90      	ldr	r4, [pc, #576]	; (40575c <__kernel_rem_pio2f+0x248>)
  40551c:	9308      	str	r3, [sp, #32]
  40551e:	3b01      	subs	r3, #1
  405520:	9301      	str	r3, [sp, #4]
  405522:	1ed3      	subs	r3, r2, #3
  405524:	bf48      	it	mi
  405526:	1d13      	addmi	r3, r2, #4
  405528:	9d66      	ldr	r5, [sp, #408]	; 0x198
  40552a:	9107      	str	r1, [sp, #28]
  40552c:	10db      	asrs	r3, r3, #3
  40552e:	ea23 73e3 	bic.w	r3, r3, r3, asr #31
  405532:	f854 4025 	ldr.w	r4, [r4, r5, lsl #2]
  405536:	9309      	str	r3, [sp, #36]	; 0x24
  405538:	4619      	mov	r1, r3
  40553a:	3301      	adds	r3, #1
  40553c:	eba2 03c3 	sub.w	r3, r2, r3, lsl #3
  405540:	9405      	str	r4, [sp, #20]
  405542:	9a01      	ldr	r2, [sp, #4]
  405544:	9304      	str	r3, [sp, #16]
  405546:	9b05      	ldr	r3, [sp, #20]
  405548:	9002      	str	r0, [sp, #8]
  40554a:	189c      	adds	r4, r3, r2
  40554c:	eba1 0602 	sub.w	r6, r1, r2
  405550:	d417      	bmi.n	405582 <__kernel_rem_pio2f+0x6e>
  405552:	4434      	add	r4, r6
  405554:	2500      	movs	r5, #0
  405556:	3401      	adds	r4, #1
  405558:	af1f      	add	r7, sp, #124	; 0x7c
  40555a:	f8dd 819c 	ldr.w	r8, [sp, #412]	; 0x19c
  40555e:	e008      	b.n	405572 <__kernel_rem_pio2f+0x5e>
  405560:	f858 0026 	ldr.w	r0, [r8, r6, lsl #2]
  405564:	f001 fb0a 	bl	406b7c <__aeabi_i2f>
  405568:	3601      	adds	r6, #1
  40556a:	42a6      	cmp	r6, r4
  40556c:	f847 0f04 	str.w	r0, [r7, #4]!
  405570:	d007      	beq.n	405582 <__kernel_rem_pio2f+0x6e>
  405572:	2e00      	cmp	r6, #0
  405574:	daf4      	bge.n	405560 <__kernel_rem_pio2f+0x4c>
  405576:	3601      	adds	r6, #1
  405578:	4628      	mov	r0, r5
  40557a:	42a6      	cmp	r6, r4
  40557c:	f847 0f04 	str.w	r0, [r7, #4]!
  405580:	d1f7      	bne.n	405572 <__kernel_rem_pio2f+0x5e>
  405582:	9b05      	ldr	r3, [sp, #20]
  405584:	2b00      	cmp	r3, #0
  405586:	db28      	blt.n	4055da <__kernel_rem_pio2f+0xc6>
  405588:	9b08      	ldr	r3, [sp, #32]
  40558a:	009e      	lsls	r6, r3, #2
  40558c:	9b02      	ldr	r3, [sp, #8]
  40558e:	1f35      	subs	r5, r6, #4
  405590:	441d      	add	r5, r3
  405592:	ab20      	add	r3, sp, #128	; 0x80
  405594:	441e      	add	r6, r3
  405596:	9b05      	ldr	r3, [sp, #20]
  405598:	aa48      	add	r2, sp, #288	; 0x120
  40559a:	f04f 0900 	mov.w	r9, #0
  40559e:	eb02 0883 	add.w	r8, r2, r3, lsl #2
  4055a2:	af47      	add	r7, sp, #284	; 0x11c
  4055a4:	9b01      	ldr	r3, [sp, #4]
  4055a6:	2b00      	cmp	r3, #0
  4055a8:	f2c0 82b9 	blt.w	405b1e <__kernel_rem_pio2f+0x60a>
  4055ac:	9b02      	ldr	r3, [sp, #8]
  4055ae:	46b3      	mov	fp, r6
  4055b0:	1f1c      	subs	r4, r3, #4
  4055b2:	46ca      	mov	sl, r9
  4055b4:	f85b 1d04 	ldr.w	r1, [fp, #-4]!
  4055b8:	f854 0f04 	ldr.w	r0, [r4, #4]!
  4055bc:	f001 fb32 	bl	406c24 <__aeabi_fmul>
  4055c0:	4601      	mov	r1, r0
  4055c2:	4650      	mov	r0, sl
  4055c4:	f001 fa26 	bl	406a14 <__addsf3>
  4055c8:	42ac      	cmp	r4, r5
  4055ca:	4682      	mov	sl, r0
  4055cc:	d1f2      	bne.n	4055b4 <__kernel_rem_pio2f+0xa0>
  4055ce:	f847 af04 	str.w	sl, [r7, #4]!
  4055d2:	4547      	cmp	r7, r8
  4055d4:	f106 0604 	add.w	r6, r6, #4
  4055d8:	d1e4      	bne.n	4055a4 <__kernel_rem_pio2f+0x90>
  4055da:	9805      	ldr	r0, [sp, #20]
  4055dc:	9908      	ldr	r1, [sp, #32]
  4055de:	9c02      	ldr	r4, [sp, #8]
  4055e0:	f06f 4240 	mvn.w	r2, #3221225472	; 0xc0000000
  4055e4:	4603      	mov	r3, r0
  4055e6:	4413      	add	r3, r2
  4055e8:	009b      	lsls	r3, r3, #2
  4055ea:	440a      	add	r2, r1
  4055ec:	f10d 0a30 	add.w	sl, sp, #48	; 0x30
  4055f0:	1f19      	subs	r1, r3, #4
  4055f2:	eb04 0582 	add.w	r5, r4, r2, lsl #2
  4055f6:	4453      	add	r3, sl
  4055f8:	eb0a 0201 	add.w	r2, sl, r1
  4055fc:	920a      	str	r2, [sp, #40]	; 0x28
  4055fe:	930b      	str	r3, [sp, #44]	; 0x2c
  405600:	4680      	mov	r8, r0
  405602:	ea4f 0388 	mov.w	r3, r8, lsl #2
  405606:	aa5c      	add	r2, sp, #368	; 0x170
  405608:	9303      	str	r3, [sp, #12]
  40560a:	18d3      	adds	r3, r2, r3
  40560c:	f1b8 0f00 	cmp.w	r8, #0
  405610:	f853 9c50 	ldr.w	r9, [r3, #-80]
  405614:	dd22      	ble.n	40565c <__kernel_rem_pio2f+0x148>
  405616:	eb02 0488 	add.w	r4, r2, r8, lsl #2
  40561a:	3c54      	subs	r4, #84	; 0x54
  40561c:	ae0b      	add	r6, sp, #44	; 0x2c
  40561e:	af47      	add	r7, sp, #284	; 0x11c
  405620:	f04f 516e 	mov.w	r1, #998244352	; 0x3b800000
  405624:	4648      	mov	r0, r9
  405626:	f001 fafd 	bl	406c24 <__aeabi_fmul>
  40562a:	f001 fcd7 	bl	406fdc <__aeabi_f2iz>
  40562e:	f001 faa5 	bl	406b7c <__aeabi_i2f>
  405632:	f04f 4187 	mov.w	r1, #1132462080	; 0x43800000
  405636:	4683      	mov	fp, r0
  405638:	f001 faf4 	bl	406c24 <__aeabi_fmul>
  40563c:	4601      	mov	r1, r0
  40563e:	4648      	mov	r0, r9
  405640:	f001 f9e6 	bl	406a10 <__aeabi_fsub>
  405644:	f001 fcca 	bl	406fdc <__aeabi_f2iz>
  405648:	f854 1904 	ldr.w	r1, [r4], #-4
  40564c:	f846 0f04 	str.w	r0, [r6, #4]!
  405650:	4658      	mov	r0, fp
  405652:	f001 f9df 	bl	406a14 <__addsf3>
  405656:	42bc      	cmp	r4, r7
  405658:	4681      	mov	r9, r0
  40565a:	d1e1      	bne.n	405620 <__kernel_rem_pio2f+0x10c>
  40565c:	9e04      	ldr	r6, [sp, #16]
  40565e:	4648      	mov	r0, r9
  405660:	4631      	mov	r1, r6
  405662:	f000 fcbb 	bl	405fdc <scalbnf>
  405666:	f04f 5178 	mov.w	r1, #1040187392	; 0x3e000000
  40566a:	4604      	mov	r4, r0
  40566c:	f001 fada 	bl	406c24 <__aeabi_fmul>
  405670:	f000 fc6e 	bl	405f50 <floorf>
  405674:	f04f 4182 	mov.w	r1, #1090519040	; 0x41000000
  405678:	f001 fad4 	bl	406c24 <__aeabi_fmul>
  40567c:	4601      	mov	r1, r0
  40567e:	4620      	mov	r0, r4
  405680:	f001 f9c6 	bl	406a10 <__aeabi_fsub>
  405684:	4604      	mov	r4, r0
  405686:	f001 fca9 	bl	406fdc <__aeabi_f2iz>
  40568a:	4681      	mov	r9, r0
  40568c:	9006      	str	r0, [sp, #24]
  40568e:	f001 fa75 	bl	406b7c <__aeabi_i2f>
  405692:	4601      	mov	r1, r0
  405694:	4620      	mov	r0, r4
  405696:	f001 f9bb 	bl	406a10 <__aeabi_fsub>
  40569a:	2e00      	cmp	r6, #0
  40569c:	4607      	mov	r7, r0
  40569e:	f340 80e6 	ble.w	40586e <__kernel_rem_pio2f+0x35a>
  4056a2:	f108 31ff 	add.w	r1, r8, #4294967295
  4056a6:	f1c6 0308 	rsb	r3, r6, #8
  4056aa:	f85a 2021 	ldr.w	r2, [sl, r1, lsl #2]
  4056ae:	fa42 f003 	asr.w	r0, r2, r3
  4056b2:	fa00 f303 	lsl.w	r3, r0, r3
  4056b6:	1ad3      	subs	r3, r2, r3
  4056b8:	464a      	mov	r2, r9
  4056ba:	f1c6 0407 	rsb	r4, r6, #7
  4056be:	4402      	add	r2, r0
  4056c0:	f84a 3021 	str.w	r3, [sl, r1, lsl #2]
  4056c4:	9206      	str	r2, [sp, #24]
  4056c6:	fa43 f404 	asr.w	r4, r3, r4
  4056ca:	2c00      	cmp	r4, #0
  4056cc:	dd5b      	ble.n	405786 <__kernel_rem_pio2f+0x272>
  4056ce:	9b06      	ldr	r3, [sp, #24]
  4056d0:	f1b8 0f00 	cmp.w	r8, #0
  4056d4:	f103 0301 	add.w	r3, r3, #1
  4056d8:	9306      	str	r3, [sp, #24]
  4056da:	f340 823b 	ble.w	405b54 <__kernel_rem_pio2f+0x640>
  4056de:	f8da 6000 	ldr.w	r6, [sl]
  4056e2:	2e00      	cmp	r6, #0
  4056e4:	f040 8294 	bne.w	405c10 <__kernel_rem_pio2f+0x6fc>
  4056e8:	f1b8 0f01 	cmp.w	r8, #1
  4056ec:	f340 8255 	ble.w	405b9a <__kernel_rem_pio2f+0x686>
  4056f0:	4652      	mov	r2, sl
  4056f2:	2301      	movs	r3, #1
  4056f4:	f852 6f04 	ldr.w	r6, [r2, #4]!
  4056f8:	2e00      	cmp	r6, #0
  4056fa:	f000 824a 	beq.w	405b92 <__kernel_rem_pio2f+0x67e>
  4056fe:	1c59      	adds	r1, r3, #1
  405700:	f5c6 7680 	rsb	r6, r6, #256	; 0x100
  405704:	4588      	cmp	r8, r1
  405706:	f84a 6023 	str.w	r6, [sl, r3, lsl #2]
  40570a:	dd14      	ble.n	405736 <__kernel_rem_pio2f+0x222>
  40570c:	f85a 2021 	ldr.w	r2, [sl, r1, lsl #2]
  405710:	3302      	adds	r3, #2
  405712:	f1c2 02ff 	rsb	r2, r2, #255	; 0xff
  405716:	4598      	cmp	r8, r3
  405718:	f84a 2021 	str.w	r2, [sl, r1, lsl #2]
  40571c:	dd0b      	ble.n	405736 <__kernel_rem_pio2f+0x222>
  40571e:	9a03      	ldr	r2, [sp, #12]
  405720:	4452      	add	r2, sl
  405722:	eb0a 0383 	add.w	r3, sl, r3, lsl #2
  405726:	4691      	mov	r9, r2
  405728:	681a      	ldr	r2, [r3, #0]
  40572a:	f1c2 02ff 	rsb	r2, r2, #255	; 0xff
  40572e:	f843 2b04 	str.w	r2, [r3], #4
  405732:	454b      	cmp	r3, r9
  405734:	d1f8      	bne.n	405728 <__kernel_rem_pio2f+0x214>
  405736:	9b04      	ldr	r3, [sp, #16]
  405738:	2b00      	cmp	r3, #0
  40573a:	dd11      	ble.n	405760 <__kernel_rem_pio2f+0x24c>
  40573c:	9b04      	ldr	r3, [sp, #16]
  40573e:	2b01      	cmp	r3, #1
  405740:	f04f 0601 	mov.w	r6, #1
  405744:	f040 820e 	bne.w	405b64 <__kernel_rem_pio2f+0x650>
  405748:	f108 32ff 	add.w	r2, r8, #4294967295
  40574c:	f85a 3022 	ldr.w	r3, [sl, r2, lsl #2]
  405750:	f003 037f 	and.w	r3, r3, #127	; 0x7f
  405754:	f84a 3022 	str.w	r3, [sl, r2, lsl #2]
  405758:	e20e      	b.n	405b78 <__kernel_rem_pio2f+0x664>
  40575a:	bf00      	nop
  40575c:	0040a834 	.word	0x0040a834
  405760:	2c02      	cmp	r4, #2
  405762:	d110      	bne.n	405786 <__kernel_rem_pio2f+0x272>
  405764:	4639      	mov	r1, r7
  405766:	f04f 507e 	mov.w	r0, #1065353216	; 0x3f800000
  40576a:	f001 f951 	bl	406a10 <__aeabi_fsub>
  40576e:	4607      	mov	r7, r0
  405770:	9904      	ldr	r1, [sp, #16]
  405772:	f04f 507e 	mov.w	r0, #1065353216	; 0x3f800000
  405776:	f000 fc31 	bl	405fdc <scalbnf>
  40577a:	4601      	mov	r1, r0
  40577c:	4638      	mov	r0, r7
  40577e:	f001 f947 	bl	406a10 <__aeabi_fsub>
  405782:	2402      	movs	r4, #2
  405784:	4607      	mov	r7, r0
  405786:	2100      	movs	r1, #0
  405788:	4638      	mov	r0, r7
  40578a:	f001 fbdf 	bl	406f4c <__aeabi_fcmpeq>
  40578e:	2800      	cmp	r0, #0
  405790:	f000 8083 	beq.w	40589a <__kernel_rem_pio2f+0x386>
  405794:	9b05      	ldr	r3, [sp, #20]
  405796:	f108 37ff 	add.w	r7, r8, #4294967295
  40579a:	42bb      	cmp	r3, r7
  40579c:	dc0f      	bgt.n	4057be <__kernel_rem_pio2f+0x2aa>
  40579e:	f108 4380 	add.w	r3, r8, #1073741824	; 0x40000000
  4057a2:	3b01      	subs	r3, #1
  4057a4:	980b      	ldr	r0, [sp, #44]	; 0x2c
  4057a6:	eb0a 0383 	add.w	r3, sl, r3, lsl #2
  4057aa:	2200      	movs	r2, #0
  4057ac:	f853 1904 	ldr.w	r1, [r3], #-4
  4057b0:	4283      	cmp	r3, r0
  4057b2:	ea42 0201 	orr.w	r2, r2, r1
  4057b6:	d1f9      	bne.n	4057ac <__kernel_rem_pio2f+0x298>
  4057b8:	2a00      	cmp	r2, #0
  4057ba:	f040 809d 	bne.w	4058f8 <__kernel_rem_pio2f+0x3e4>
  4057be:	9b05      	ldr	r3, [sp, #20]
  4057c0:	3b01      	subs	r3, #1
  4057c2:	f85a 3023 	ldr.w	r3, [sl, r3, lsl #2]
  4057c6:	2b00      	cmp	r3, #0
  4057c8:	f040 81f4 	bne.w	405bb4 <__kernel_rem_pio2f+0x6a0>
  4057cc:	9a0a      	ldr	r2, [sp, #40]	; 0x28
  4057ce:	2301      	movs	r3, #1
  4057d0:	f852 1904 	ldr.w	r1, [r2], #-4
  4057d4:	3301      	adds	r3, #1
  4057d6:	2900      	cmp	r1, #0
  4057d8:	d0fa      	beq.n	4057d0 <__kernel_rem_pio2f+0x2bc>
  4057da:	4443      	add	r3, r8
  4057dc:	461a      	mov	r2, r3
  4057de:	9306      	str	r3, [sp, #24]
  4057e0:	f108 0301 	add.w	r3, r8, #1
  4057e4:	4293      	cmp	r3, r2
  4057e6:	dc37      	bgt.n	405858 <__kernel_rem_pio2f+0x344>
  4057e8:	9908      	ldr	r1, [sp, #32]
  4057ea:	9a09      	ldr	r2, [sp, #36]	; 0x24
  4057ec:	eb01 0708 	add.w	r7, r1, r8
  4057f0:	a920      	add	r1, sp, #128	; 0x80
  4057f2:	eb01 0787 	add.w	r7, r1, r7, lsl #2
  4057f6:	9906      	ldr	r1, [sp, #24]
  4057f8:	189e      	adds	r6, r3, r2
  4057fa:	eb01 0902 	add.w	r9, r1, r2
  4057fe:	f106 4680 	add.w	r6, r6, #1073741824	; 0x40000000
  405802:	9a67      	ldr	r2, [sp, #412]	; 0x19c
  405804:	3e01      	subs	r6, #1
  405806:	eb02 0686 	add.w	r6, r2, r6, lsl #2
  40580a:	aa48      	add	r2, sp, #288	; 0x120
  40580c:	eb02 0883 	add.w	r8, r2, r3, lsl #2
  405810:	9b67      	ldr	r3, [sp, #412]	; 0x19c
  405812:	eb03 0389 	add.w	r3, r3, r9, lsl #2
  405816:	9303      	str	r3, [sp, #12]
  405818:	f856 0f04 	ldr.w	r0, [r6, #4]!
  40581c:	f001 f9ae 	bl	406b7c <__aeabi_i2f>
  405820:	9b01      	ldr	r3, [sp, #4]
  405822:	f847 0b04 	str.w	r0, [r7], #4
  405826:	2b00      	cmp	r3, #0
  405828:	db19      	blt.n	40585e <__kernel_rem_pio2f+0x34a>
  40582a:	9b02      	ldr	r3, [sp, #8]
  40582c:	46bb      	mov	fp, r7
  40582e:	1f1c      	subs	r4, r3, #4
  405830:	f04f 0900 	mov.w	r9, #0
  405834:	f85b 1d04 	ldr.w	r1, [fp, #-4]!
  405838:	f854 0f04 	ldr.w	r0, [r4, #4]!
  40583c:	f001 f9f2 	bl	406c24 <__aeabi_fmul>
  405840:	4601      	mov	r1, r0
  405842:	4648      	mov	r0, r9
  405844:	f001 f8e6 	bl	406a14 <__addsf3>
  405848:	42ac      	cmp	r4, r5
  40584a:	4681      	mov	r9, r0
  40584c:	d1f2      	bne.n	405834 <__kernel_rem_pio2f+0x320>
  40584e:	9b03      	ldr	r3, [sp, #12]
  405850:	f848 9b04 	str.w	r9, [r8], #4
  405854:	429e      	cmp	r6, r3
  405856:	d1df      	bne.n	405818 <__kernel_rem_pio2f+0x304>
  405858:	f8dd 8018 	ldr.w	r8, [sp, #24]
  40585c:	e6d1      	b.n	405602 <__kernel_rem_pio2f+0xee>
  40585e:	9b03      	ldr	r3, [sp, #12]
  405860:	f04f 0900 	mov.w	r9, #0
  405864:	429e      	cmp	r6, r3
  405866:	f848 9b04 	str.w	r9, [r8], #4
  40586a:	d1d5      	bne.n	405818 <__kernel_rem_pio2f+0x304>
  40586c:	e7f4      	b.n	405858 <__kernel_rem_pio2f+0x344>
  40586e:	d105      	bne.n	40587c <__kernel_rem_pio2f+0x368>
  405870:	f108 33ff 	add.w	r3, r8, #4294967295
  405874:	f85a 4023 	ldr.w	r4, [sl, r3, lsl #2]
  405878:	1224      	asrs	r4, r4, #8
  40587a:	e726      	b.n	4056ca <__kernel_rem_pio2f+0x1b6>
  40587c:	f04f 517c 	mov.w	r1, #1056964608	; 0x3f000000
  405880:	f001 fb82 	bl	406f88 <__aeabi_fcmpge>
  405884:	2800      	cmp	r0, #0
  405886:	f040 8153 	bne.w	405b30 <__kernel_rem_pio2f+0x61c>
  40588a:	4604      	mov	r4, r0
  40588c:	2100      	movs	r1, #0
  40588e:	4638      	mov	r0, r7
  405890:	f001 fb5c 	bl	406f4c <__aeabi_fcmpeq>
  405894:	2800      	cmp	r0, #0
  405896:	f47f af7d 	bne.w	405794 <__kernel_rem_pio2f+0x280>
  40589a:	9e04      	ldr	r6, [sp, #16]
  40589c:	4638      	mov	r0, r7
  40589e:	4271      	negs	r1, r6
  4058a0:	f000 fb9c 	bl	405fdc <scalbnf>
  4058a4:	f04f 4187 	mov.w	r1, #1132462080	; 0x43800000
  4058a8:	46a1      	mov	r9, r4
  4058aa:	4604      	mov	r4, r0
  4058ac:	f001 fb6c 	bl	406f88 <__aeabi_fcmpge>
  4058b0:	2800      	cmp	r0, #0
  4058b2:	f000 818d 	beq.w	405bd0 <__kernel_rem_pio2f+0x6bc>
  4058b6:	f04f 516e 	mov.w	r1, #998244352	; 0x3b800000
  4058ba:	4620      	mov	r0, r4
  4058bc:	f001 f9b2 	bl	406c24 <__aeabi_fmul>
  4058c0:	f001 fb8c 	bl	406fdc <__aeabi_f2iz>
  4058c4:	f001 f95a 	bl	406b7c <__aeabi_i2f>
  4058c8:	f04f 4187 	mov.w	r1, #1132462080	; 0x43800000
  4058cc:	4605      	mov	r5, r0
  4058ce:	f001 f9a9 	bl	406c24 <__aeabi_fmul>
  4058d2:	4601      	mov	r1, r0
  4058d4:	4620      	mov	r0, r4
  4058d6:	f001 f89b 	bl	406a10 <__aeabi_fsub>
  4058da:	f001 fb7f 	bl	406fdc <__aeabi_f2iz>
  4058de:	f84a 0028 	str.w	r0, [sl, r8, lsl #2]
  4058e2:	4628      	mov	r0, r5
  4058e4:	f001 fb7a 	bl	406fdc <__aeabi_f2iz>
  4058e8:	f108 0701 	add.w	r7, r8, #1
  4058ec:	4633      	mov	r3, r6
  4058ee:	3308      	adds	r3, #8
  4058f0:	9304      	str	r3, [sp, #16]
  4058f2:	f84a 0027 	str.w	r0, [sl, r7, lsl #2]
  4058f6:	e012      	b.n	40591e <__kernel_rem_pio2f+0x40a>
  4058f8:	9a04      	ldr	r2, [sp, #16]
  4058fa:	f85a 3027 	ldr.w	r3, [sl, r7, lsl #2]
  4058fe:	3a08      	subs	r2, #8
  405900:	46a1      	mov	r9, r4
  405902:	9204      	str	r2, [sp, #16]
  405904:	b95b      	cbnz	r3, 40591e <__kernel_rem_pio2f+0x40a>
  405906:	f107 4380 	add.w	r3, r7, #1073741824	; 0x40000000
  40590a:	3b01      	subs	r3, #1
  40590c:	eb0a 0383 	add.w	r3, sl, r3, lsl #2
  405910:	f853 1904 	ldr.w	r1, [r3], #-4
  405914:	3f01      	subs	r7, #1
  405916:	3a08      	subs	r2, #8
  405918:	2900      	cmp	r1, #0
  40591a:	d0f9      	beq.n	405910 <__kernel_rem_pio2f+0x3fc>
  40591c:	9204      	str	r2, [sp, #16]
  40591e:	9904      	ldr	r1, [sp, #16]
  405920:	f04f 507e 	mov.w	r0, #1065353216	; 0x3f800000
  405924:	f000 fb5a 	bl	405fdc <scalbnf>
  405928:	2f00      	cmp	r7, #0
  40592a:	4604      	mov	r4, r0
  40592c:	f2c0 815c 	blt.w	405be8 <__kernel_rem_pio2f+0x6d4>
  405930:	00bb      	lsls	r3, r7, #2
  405932:	a948      	add	r1, sp, #288	; 0x120
  405934:	1d1a      	adds	r2, r3, #4
  405936:	eb01 0803 	add.w	r8, r1, r3
  40593a:	9301      	str	r3, [sp, #4]
  40593c:	9202      	str	r2, [sp, #8]
  40593e:	f04f 566e 	mov.w	r6, #998244352	; 0x3b800000
  405942:	eb0a 0b02 	add.w	fp, sl, r2
  405946:	f108 0504 	add.w	r5, r8, #4
  40594a:	f85b 0d04 	ldr.w	r0, [fp, #-4]!
  40594e:	f001 f915 	bl	406b7c <__aeabi_i2f>
  405952:	4621      	mov	r1, r4
  405954:	f001 f966 	bl	406c24 <__aeabi_fmul>
  405958:	4631      	mov	r1, r6
  40595a:	f845 0d04 	str.w	r0, [r5, #-4]!
  40595e:	4620      	mov	r0, r4
  405960:	f001 f960 	bl	406c24 <__aeabi_fmul>
  405964:	45d3      	cmp	fp, sl
  405966:	4604      	mov	r4, r0
  405968:	d1ef      	bne.n	40594a <__kernel_rem_pio2f+0x436>
  40596a:	2600      	movs	r6, #0
  40596c:	f8dd b014 	ldr.w	fp, [sp, #20]
  405970:	9703      	str	r7, [sp, #12]
  405972:	f1a8 0804 	sub.w	r8, r8, #4
  405976:	46b2      	mov	sl, r6
  405978:	f1bb 0f00 	cmp.w	fp, #0
  40597c:	bfb8      	it	lt
  40597e:	2500      	movlt	r5, #0
  405980:	db15      	blt.n	4059ae <__kernel_rem_pio2f+0x49a>
  405982:	4ea5      	ldr	r6, [pc, #660]	; (405c18 <__kernel_rem_pio2f+0x704>)
  405984:	48a5      	ldr	r0, [pc, #660]	; (405c1c <__kernel_rem_pio2f+0x708>)
  405986:	4647      	mov	r7, r8
  405988:	2500      	movs	r5, #0
  40598a:	2400      	movs	r4, #0
  40598c:	e003      	b.n	405996 <__kernel_rem_pio2f+0x482>
  40598e:	4554      	cmp	r4, sl
  405990:	dc0d      	bgt.n	4059ae <__kernel_rem_pio2f+0x49a>
  405992:	f856 0f04 	ldr.w	r0, [r6, #4]!
  405996:	f857 1f04 	ldr.w	r1, [r7, #4]!
  40599a:	f001 f943 	bl	406c24 <__aeabi_fmul>
  40599e:	4601      	mov	r1, r0
  4059a0:	4628      	mov	r0, r5
  4059a2:	f001 f837 	bl	406a14 <__addsf3>
  4059a6:	3401      	adds	r4, #1
  4059a8:	45a3      	cmp	fp, r4
  4059aa:	4605      	mov	r5, r0
  4059ac:	daef      	bge.n	40598e <__kernel_rem_pio2f+0x47a>
  4059ae:	ab5c      	add	r3, sp, #368	; 0x170
  4059b0:	eb03 038a 	add.w	r3, r3, sl, lsl #2
  4059b4:	f1a8 0804 	sub.w	r8, r8, #4
  4059b8:	f843 5ca0 	str.w	r5, [r3, #-160]
  4059bc:	ab46      	add	r3, sp, #280	; 0x118
  4059be:	4543      	cmp	r3, r8
  4059c0:	f10a 0a01 	add.w	sl, sl, #1
  4059c4:	d1d8      	bne.n	405978 <__kernel_rem_pio2f+0x464>
  4059c6:	9b66      	ldr	r3, [sp, #408]	; 0x198
  4059c8:	9f03      	ldr	r7, [sp, #12]
  4059ca:	2b03      	cmp	r3, #3
  4059cc:	d85a      	bhi.n	405a84 <__kernel_rem_pio2f+0x570>
  4059ce:	e8df f003 	tbb	[pc, r3]
  4059d2:	5f8e      	.short	0x5f8e
  4059d4:	025f      	.short	0x025f
  4059d6:	2f00      	cmp	r7, #0
  4059d8:	f340 8104 	ble.w	405be4 <__kernel_rem_pio2f+0x6d0>
  4059dc:	9a01      	ldr	r2, [sp, #4]
  4059de:	a95c      	add	r1, sp, #368	; 0x170
  4059e0:	188b      	adds	r3, r1, r2
  4059e2:	ac34      	add	r4, sp, #208	; 0xd0
  4059e4:	f853 6ca0 	ldr.w	r6, [r3, #-160]
  4059e8:	18a5      	adds	r5, r4, r2
  4059ea:	f855 ac04 	ldr.w	sl, [r5, #-4]
  4059ee:	4631      	mov	r1, r6
  4059f0:	4650      	mov	r0, sl
  4059f2:	f001 f80f 	bl	406a14 <__addsf3>
  4059f6:	4680      	mov	r8, r0
  4059f8:	4601      	mov	r1, r0
  4059fa:	4650      	mov	r0, sl
  4059fc:	f001 f808 	bl	406a10 <__aeabi_fsub>
  405a00:	4631      	mov	r1, r6
  405a02:	f001 f807 	bl	406a14 <__addsf3>
  405a06:	6028      	str	r0, [r5, #0]
  405a08:	f845 8d04 	str.w	r8, [r5, #-4]!
  405a0c:	42ac      	cmp	r4, r5
  405a0e:	4646      	mov	r6, r8
  405a10:	d1eb      	bne.n	4059ea <__kernel_rem_pio2f+0x4d6>
  405a12:	2f01      	cmp	r7, #1
  405a14:	f340 80e6 	ble.w	405be4 <__kernel_rem_pio2f+0x6d0>
  405a18:	9a01      	ldr	r2, [sp, #4]
  405a1a:	a95c      	add	r1, sp, #368	; 0x170
  405a1c:	188b      	adds	r3, r1, r2
  405a1e:	4414      	add	r4, r2
  405a20:	f853 6ca0 	ldr.w	r6, [r3, #-160]
  405a24:	4625      	mov	r5, r4
  405a26:	f10d 0ad4 	add.w	sl, sp, #212	; 0xd4
  405a2a:	f855 8c04 	ldr.w	r8, [r5, #-4]
  405a2e:	4631      	mov	r1, r6
  405a30:	4640      	mov	r0, r8
  405a32:	f000 ffef 	bl	406a14 <__addsf3>
  405a36:	4607      	mov	r7, r0
  405a38:	4601      	mov	r1, r0
  405a3a:	4640      	mov	r0, r8
  405a3c:	f000 ffe8 	bl	406a10 <__aeabi_fsub>
  405a40:	4631      	mov	r1, r6
  405a42:	f000 ffe7 	bl	406a14 <__addsf3>
  405a46:	6028      	str	r0, [r5, #0]
  405a48:	f845 7d04 	str.w	r7, [r5, #-4]!
  405a4c:	45aa      	cmp	sl, r5
  405a4e:	463e      	mov	r6, r7
  405a50:	d1eb      	bne.n	405a2a <__kernel_rem_pio2f+0x516>
  405a52:	2000      	movs	r0, #0
  405a54:	3404      	adds	r4, #4
  405a56:	ad36      	add	r5, sp, #216	; 0xd8
  405a58:	f854 1d04 	ldr.w	r1, [r4, #-4]!
  405a5c:	f000 ffda 	bl	406a14 <__addsf3>
  405a60:	42a5      	cmp	r5, r4
  405a62:	d1f9      	bne.n	405a58 <__kernel_rem_pio2f+0x544>
  405a64:	f1b9 0f00 	cmp.w	r9, #0
  405a68:	f000 80b9 	beq.w	405bde <__kernel_rem_pio2f+0x6ca>
  405a6c:	9a34      	ldr	r2, [sp, #208]	; 0xd0
  405a6e:	9b35      	ldr	r3, [sp, #212]	; 0xd4
  405a70:	f100 4000 	add.w	r0, r0, #2147483648	; 0x80000000
  405a74:	f102 4200 	add.w	r2, r2, #2147483648	; 0x80000000
  405a78:	f103 4300 	add.w	r3, r3, #2147483648	; 0x80000000
  405a7c:	9c07      	ldr	r4, [sp, #28]
  405a7e:	60a0      	str	r0, [r4, #8]
  405a80:	6022      	str	r2, [r4, #0]
  405a82:	6063      	str	r3, [r4, #4]
  405a84:	9b06      	ldr	r3, [sp, #24]
  405a86:	f003 0007 	and.w	r0, r3, #7
  405a8a:	b05d      	add	sp, #372	; 0x174
  405a8c:	e8bd 8ff0 	ldmia.w	sp!, {r4, r5, r6, r7, r8, r9, sl, fp, pc}
  405a90:	9c01      	ldr	r4, [sp, #4]
  405a92:	ad34      	add	r5, sp, #208	; 0xd0
  405a94:	3404      	adds	r4, #4
  405a96:	442c      	add	r4, r5
  405a98:	2000      	movs	r0, #0
  405a9a:	f854 1d04 	ldr.w	r1, [r4, #-4]!
  405a9e:	f000 ffb9 	bl	406a14 <__addsf3>
  405aa2:	42ac      	cmp	r4, r5
  405aa4:	d1f9      	bne.n	405a9a <__kernel_rem_pio2f+0x586>
  405aa6:	f1b9 0f00 	cmp.w	r9, #0
  405aaa:	f000 8085 	beq.w	405bb8 <__kernel_rem_pio2f+0x6a4>
  405aae:	9a07      	ldr	r2, [sp, #28]
  405ab0:	f100 4300 	add.w	r3, r0, #2147483648	; 0x80000000
  405ab4:	4601      	mov	r1, r0
  405ab6:	6013      	str	r3, [r2, #0]
  405ab8:	9834      	ldr	r0, [sp, #208]	; 0xd0
  405aba:	f000 ffa9 	bl	406a10 <__aeabi_fsub>
  405abe:	2f00      	cmp	r7, #0
  405ac0:	dd0b      	ble.n	405ada <__kernel_rem_pio2f+0x5c6>
  405ac2:	ad34      	add	r5, sp, #208	; 0xd0
  405ac4:	2401      	movs	r4, #1
  405ac6:	3401      	adds	r4, #1
  405ac8:	f855 1f04 	ldr.w	r1, [r5, #4]!
  405acc:	f000 ffa2 	bl	406a14 <__addsf3>
  405ad0:	42a7      	cmp	r7, r4
  405ad2:	daf8      	bge.n	405ac6 <__kernel_rem_pio2f+0x5b2>
  405ad4:	f1b9 0f00 	cmp.w	r9, #0
  405ad8:	d001      	beq.n	405ade <__kernel_rem_pio2f+0x5ca>
  405ada:	f100 4000 	add.w	r0, r0, #2147483648	; 0x80000000
  405ade:	9b07      	ldr	r3, [sp, #28]
  405ae0:	6058      	str	r0, [r3, #4]
  405ae2:	9b06      	ldr	r3, [sp, #24]
  405ae4:	f003 0007 	and.w	r0, r3, #7
  405ae8:	b05d      	add	sp, #372	; 0x174
  405aea:	e8bd 8ff0 	ldmia.w	sp!, {r4, r5, r6, r7, r8, r9, sl, fp, pc}
  405aee:	9b02      	ldr	r3, [sp, #8]
  405af0:	ad34      	add	r5, sp, #208	; 0xd0
  405af2:	442b      	add	r3, r5
  405af4:	2000      	movs	r0, #0
  405af6:	461c      	mov	r4, r3
  405af8:	f854 1d04 	ldr.w	r1, [r4, #-4]!
  405afc:	f000 ff8a 	bl	406a14 <__addsf3>
  405b00:	42a5      	cmp	r5, r4
  405b02:	d1f9      	bne.n	405af8 <__kernel_rem_pio2f+0x5e4>
  405b04:	f1b9 0f00 	cmp.w	r9, #0
  405b08:	d001      	beq.n	405b0e <__kernel_rem_pio2f+0x5fa>
  405b0a:	f100 4000 	add.w	r0, r0, #2147483648	; 0x80000000
  405b0e:	9b07      	ldr	r3, [sp, #28]
  405b10:	6018      	str	r0, [r3, #0]
  405b12:	9b06      	ldr	r3, [sp, #24]
  405b14:	f003 0007 	and.w	r0, r3, #7
  405b18:	b05d      	add	sp, #372	; 0x174
  405b1a:	e8bd 8ff0 	ldmia.w	sp!, {r4, r5, r6, r7, r8, r9, sl, fp, pc}
  405b1e:	46ca      	mov	sl, r9
  405b20:	f847 af04 	str.w	sl, [r7, #4]!
  405b24:	4547      	cmp	r7, r8
  405b26:	f106 0604 	add.w	r6, r6, #4
  405b2a:	f47f ad3b 	bne.w	4055a4 <__kernel_rem_pio2f+0x90>
  405b2e:	e554      	b.n	4055da <__kernel_rem_pio2f+0xc6>
  405b30:	9b06      	ldr	r3, [sp, #24]
  405b32:	f1b8 0f00 	cmp.w	r8, #0
  405b36:	f103 0301 	add.w	r3, r3, #1
  405b3a:	9306      	str	r3, [sp, #24]
  405b3c:	bfc8      	it	gt
  405b3e:	2402      	movgt	r4, #2
  405b40:	f73f adcd 	bgt.w	4056de <__kernel_rem_pio2f+0x1ca>
  405b44:	4639      	mov	r1, r7
  405b46:	f04f 507e 	mov.w	r0, #1065353216	; 0x3f800000
  405b4a:	f000 ff61 	bl	406a10 <__aeabi_fsub>
  405b4e:	2402      	movs	r4, #2
  405b50:	4607      	mov	r7, r0
  405b52:	e618      	b.n	405786 <__kernel_rem_pio2f+0x272>
  405b54:	9b04      	ldr	r3, [sp, #16]
  405b56:	2b00      	cmp	r3, #0
  405b58:	dd22      	ble.n	405ba0 <__kernel_rem_pio2f+0x68c>
  405b5a:	2600      	movs	r6, #0
  405b5c:	9b04      	ldr	r3, [sp, #16]
  405b5e:	2b01      	cmp	r3, #1
  405b60:	f43f adf2 	beq.w	405748 <__kernel_rem_pio2f+0x234>
  405b64:	2b02      	cmp	r3, #2
  405b66:	d107      	bne.n	405b78 <__kernel_rem_pio2f+0x664>
  405b68:	f108 32ff 	add.w	r2, r8, #4294967295
  405b6c:	f85a 3022 	ldr.w	r3, [sl, r2, lsl #2]
  405b70:	f003 033f 	and.w	r3, r3, #63	; 0x3f
  405b74:	f84a 3022 	str.w	r3, [sl, r2, lsl #2]
  405b78:	2c02      	cmp	r4, #2
  405b7a:	f47f ae04 	bne.w	405786 <__kernel_rem_pio2f+0x272>
  405b7e:	4639      	mov	r1, r7
  405b80:	f04f 507e 	mov.w	r0, #1065353216	; 0x3f800000
  405b84:	f000 ff44 	bl	406a10 <__aeabi_fsub>
  405b88:	4607      	mov	r7, r0
  405b8a:	2e00      	cmp	r6, #0
  405b8c:	f43f adfb 	beq.w	405786 <__kernel_rem_pio2f+0x272>
  405b90:	e5ee      	b.n	405770 <__kernel_rem_pio2f+0x25c>
  405b92:	3301      	adds	r3, #1
  405b94:	4598      	cmp	r8, r3
  405b96:	f47f adad 	bne.w	4056f4 <__kernel_rem_pio2f+0x1e0>
  405b9a:	9b04      	ldr	r3, [sp, #16]
  405b9c:	2b00      	cmp	r3, #0
  405b9e:	dcdd      	bgt.n	405b5c <__kernel_rem_pio2f+0x648>
  405ba0:	2c02      	cmp	r4, #2
  405ba2:	f47f adf0 	bne.w	405786 <__kernel_rem_pio2f+0x272>
  405ba6:	4639      	mov	r1, r7
  405ba8:	f04f 507e 	mov.w	r0, #1065353216	; 0x3f800000
  405bac:	f000 ff30 	bl	406a10 <__aeabi_fsub>
  405bb0:	4607      	mov	r7, r0
  405bb2:	e5e8      	b.n	405786 <__kernel_rem_pio2f+0x272>
  405bb4:	2301      	movs	r3, #1
  405bb6:	e610      	b.n	4057da <__kernel_rem_pio2f+0x2c6>
  405bb8:	9b07      	ldr	r3, [sp, #28]
  405bba:	4601      	mov	r1, r0
  405bbc:	6018      	str	r0, [r3, #0]
  405bbe:	9834      	ldr	r0, [sp, #208]	; 0xd0
  405bc0:	f000 ff26 	bl	406a10 <__aeabi_fsub>
  405bc4:	2f00      	cmp	r7, #0
  405bc6:	f73f af7c 	bgt.w	405ac2 <__kernel_rem_pio2f+0x5ae>
  405bca:	9b07      	ldr	r3, [sp, #28]
  405bcc:	6058      	str	r0, [r3, #4]
  405bce:	e788      	b.n	405ae2 <__kernel_rem_pio2f+0x5ce>
  405bd0:	4620      	mov	r0, r4
  405bd2:	f001 fa03 	bl	406fdc <__aeabi_f2iz>
  405bd6:	4647      	mov	r7, r8
  405bd8:	f84a 0028 	str.w	r0, [sl, r8, lsl #2]
  405bdc:	e69f      	b.n	40591e <__kernel_rem_pio2f+0x40a>
  405bde:	9a34      	ldr	r2, [sp, #208]	; 0xd0
  405be0:	9b35      	ldr	r3, [sp, #212]	; 0xd4
  405be2:	e74b      	b.n	405a7c <__kernel_rem_pio2f+0x568>
  405be4:	2000      	movs	r0, #0
  405be6:	e73d      	b.n	405a64 <__kernel_rem_pio2f+0x550>
  405be8:	9b66      	ldr	r3, [sp, #408]	; 0x198
  405bea:	2b03      	cmp	r3, #3
  405bec:	f63f af4a 	bhi.w	405a84 <__kernel_rem_pio2f+0x570>
  405bf0:	a201      	add	r2, pc, #4	; (adr r2, 405bf8 <__kernel_rem_pio2f+0x6e4>)
  405bf2:	f852 f023 	ldr.w	pc, [r2, r3, lsl #2]
  405bf6:	bf00      	nop
  405bf8:	00405c0d 	.word	0x00405c0d
  405bfc:	00405c09 	.word	0x00405c09
  405c00:	00405c09 	.word	0x00405c09
  405c04:	00405be5 	.word	0x00405be5
  405c08:	2000      	movs	r0, #0
  405c0a:	e74c      	b.n	405aa6 <__kernel_rem_pio2f+0x592>
  405c0c:	2000      	movs	r0, #0
  405c0e:	e779      	b.n	405b04 <__kernel_rem_pio2f+0x5f0>
  405c10:	2101      	movs	r1, #1
  405c12:	2300      	movs	r3, #0
  405c14:	e574      	b.n	405700 <__kernel_rem_pio2f+0x1ec>
  405c16:	bf00      	nop
  405c18:	0040a808 	.word	0x0040a808
  405c1c:	3fc90000 	.word	0x3fc90000

00405c20 <__kernel_sinf>:
  405c20:	e92d 43f8 	stmdb	sp!, {r3, r4, r5, r6, r7, r8, r9, lr}
  405c24:	f020 4300 	bic.w	r3, r0, #2147483648	; 0x80000000
  405c28:	f1b3 5f48 	cmp.w	r3, #838860800	; 0x32000000
  405c2c:	4604      	mov	r4, r0
  405c2e:	460f      	mov	r7, r1
  405c30:	4690      	mov	r8, r2
  405c32:	da03      	bge.n	405c3c <__kernel_sinf+0x1c>
  405c34:	f001 f9d2 	bl	406fdc <__aeabi_f2iz>
  405c38:	2800      	cmp	r0, #0
  405c3a:	d058      	beq.n	405cee <__kernel_sinf+0xce>
  405c3c:	4621      	mov	r1, r4
  405c3e:	4620      	mov	r0, r4
  405c40:	f000 fff0 	bl	406c24 <__aeabi_fmul>
  405c44:	4605      	mov	r5, r0
  405c46:	4601      	mov	r1, r0
  405c48:	4620      	mov	r0, r4
  405c4a:	f000 ffeb 	bl	406c24 <__aeabi_fmul>
  405c4e:	4929      	ldr	r1, [pc, #164]	; (405cf4 <__kernel_sinf+0xd4>)
  405c50:	4606      	mov	r6, r0
  405c52:	4628      	mov	r0, r5
  405c54:	f000 ffe6 	bl	406c24 <__aeabi_fmul>
  405c58:	4927      	ldr	r1, [pc, #156]	; (405cf8 <__kernel_sinf+0xd8>)
  405c5a:	f000 fed9 	bl	406a10 <__aeabi_fsub>
  405c5e:	4629      	mov	r1, r5
  405c60:	f000 ffe0 	bl	406c24 <__aeabi_fmul>
  405c64:	4925      	ldr	r1, [pc, #148]	; (405cfc <__kernel_sinf+0xdc>)
  405c66:	f000 fed5 	bl	406a14 <__addsf3>
  405c6a:	4629      	mov	r1, r5
  405c6c:	f000 ffda 	bl	406c24 <__aeabi_fmul>
  405c70:	4923      	ldr	r1, [pc, #140]	; (405d00 <__kernel_sinf+0xe0>)
  405c72:	f000 fecd 	bl	406a10 <__aeabi_fsub>
  405c76:	4629      	mov	r1, r5
  405c78:	f000 ffd4 	bl	406c24 <__aeabi_fmul>
  405c7c:	4921      	ldr	r1, [pc, #132]	; (405d04 <__kernel_sinf+0xe4>)
  405c7e:	f000 fec9 	bl	406a14 <__addsf3>
  405c82:	4681      	mov	r9, r0
  405c84:	f1b8 0f00 	cmp.w	r8, #0
  405c88:	d022      	beq.n	405cd0 <__kernel_sinf+0xb0>
  405c8a:	f04f 517c 	mov.w	r1, #1056964608	; 0x3f000000
  405c8e:	4638      	mov	r0, r7
  405c90:	f000 ffc8 	bl	406c24 <__aeabi_fmul>
  405c94:	4649      	mov	r1, r9
  405c96:	4680      	mov	r8, r0
  405c98:	4630      	mov	r0, r6
  405c9a:	f000 ffc3 	bl	406c24 <__aeabi_fmul>
  405c9e:	4601      	mov	r1, r0
  405ca0:	4640      	mov	r0, r8
  405ca2:	f000 feb5 	bl	406a10 <__aeabi_fsub>
  405ca6:	4629      	mov	r1, r5
  405ca8:	f000 ffbc 	bl	406c24 <__aeabi_fmul>
  405cac:	4639      	mov	r1, r7
  405cae:	f000 feaf 	bl	406a10 <__aeabi_fsub>
  405cb2:	4915      	ldr	r1, [pc, #84]	; (405d08 <__kernel_sinf+0xe8>)
  405cb4:	4605      	mov	r5, r0
  405cb6:	4630      	mov	r0, r6
  405cb8:	f000 ffb4 	bl	406c24 <__aeabi_fmul>
  405cbc:	4601      	mov	r1, r0
  405cbe:	4628      	mov	r0, r5
  405cc0:	f000 fea8 	bl	406a14 <__addsf3>
  405cc4:	4601      	mov	r1, r0
  405cc6:	4620      	mov	r0, r4
  405cc8:	f000 fea2 	bl	406a10 <__aeabi_fsub>
  405ccc:	e8bd 83f8 	ldmia.w	sp!, {r3, r4, r5, r6, r7, r8, r9, pc}
  405cd0:	4601      	mov	r1, r0
  405cd2:	4628      	mov	r0, r5
  405cd4:	f000 ffa6 	bl	406c24 <__aeabi_fmul>
  405cd8:	490b      	ldr	r1, [pc, #44]	; (405d08 <__kernel_sinf+0xe8>)
  405cda:	f000 fe99 	bl	406a10 <__aeabi_fsub>
  405cde:	4631      	mov	r1, r6
  405ce0:	f000 ffa0 	bl	406c24 <__aeabi_fmul>
  405ce4:	4621      	mov	r1, r4
  405ce6:	f000 fe95 	bl	406a14 <__addsf3>
  405cea:	e8bd 83f8 	ldmia.w	sp!, {r3, r4, r5, r6, r7, r8, r9, pc}
  405cee:	4620      	mov	r0, r4
  405cf0:	e8bd 83f8 	ldmia.w	sp!, {r3, r4, r5, r6, r7, r8, r9, pc}
  405cf4:	2f2ec9d3 	.word	0x2f2ec9d3
  405cf8:	32d72f34 	.word	0x32d72f34
  405cfc:	3638ef1b 	.word	0x3638ef1b
  405d00:	39500d01 	.word	0x39500d01
  405d04:	3c088889 	.word	0x3c088889
  405d08:	3e2aaaab 	.word	0x3e2aaaab

00405d0c <matherr>:
  405d0c:	2000      	movs	r0, #0
  405d0e:	4770      	bx	lr

00405d10 <nan>:
  405d10:	2000      	movs	r0, #0
  405d12:	4901      	ldr	r1, [pc, #4]	; (405d18 <nan+0x8>)
  405d14:	4770      	bx	lr
  405d16:	bf00      	nop
  405d18:	7ff80000 	.word	0x7ff80000

00405d1c <atanf>:
  405d1c:	e92d 41f0 	stmdb	sp!, {r4, r5, r6, r7, r8, lr}
  405d20:	f020 4500 	bic.w	r5, r0, #2147483648	; 0x80000000
  405d24:	f1b5 4fa1 	cmp.w	r5, #1350565888	; 0x50800000
  405d28:	4604      	mov	r4, r0
  405d2a:	4606      	mov	r6, r0
  405d2c:	db08      	blt.n	405d40 <atanf+0x24>
  405d2e:	f1b5 4fff 	cmp.w	r5, #2139095040	; 0x7f800000
  405d32:	dc6f      	bgt.n	405e14 <atanf+0xf8>
  405d34:	2800      	cmp	r0, #0
  405d36:	f340 80a0 	ble.w	405e7a <atanf+0x15e>
  405d3a:	486f      	ldr	r0, [pc, #444]	; (405ef8 <atanf+0x1dc>)
  405d3c:	e8bd 81f0 	ldmia.w	sp!, {r4, r5, r6, r7, r8, pc}
  405d40:	4b6e      	ldr	r3, [pc, #440]	; (405efc <atanf+0x1e0>)
  405d42:	429d      	cmp	r5, r3
  405d44:	dc77      	bgt.n	405e36 <atanf+0x11a>
  405d46:	f1b5 5f44 	cmp.w	r5, #822083584	; 0x31000000
  405d4a:	db68      	blt.n	405e1e <atanf+0x102>
  405d4c:	f04f 37ff 	mov.w	r7, #4294967295
  405d50:	4621      	mov	r1, r4
  405d52:	4620      	mov	r0, r4
  405d54:	f000 ff66 	bl	406c24 <__aeabi_fmul>
  405d58:	4601      	mov	r1, r0
  405d5a:	4680      	mov	r8, r0
  405d5c:	f000 ff62 	bl	406c24 <__aeabi_fmul>
  405d60:	4967      	ldr	r1, [pc, #412]	; (405f00 <atanf+0x1e4>)
  405d62:	4605      	mov	r5, r0
  405d64:	f000 ff5e 	bl	406c24 <__aeabi_fmul>
  405d68:	4966      	ldr	r1, [pc, #408]	; (405f04 <atanf+0x1e8>)
  405d6a:	f000 fe53 	bl	406a14 <__addsf3>
  405d6e:	4629      	mov	r1, r5
  405d70:	f000 ff58 	bl	406c24 <__aeabi_fmul>
  405d74:	4964      	ldr	r1, [pc, #400]	; (405f08 <atanf+0x1ec>)
  405d76:	f000 fe4d 	bl	406a14 <__addsf3>
  405d7a:	4629      	mov	r1, r5
  405d7c:	f000 ff52 	bl	406c24 <__aeabi_fmul>
  405d80:	4962      	ldr	r1, [pc, #392]	; (405f0c <atanf+0x1f0>)
  405d82:	f000 fe47 	bl	406a14 <__addsf3>
  405d86:	4629      	mov	r1, r5
  405d88:	f000 ff4c 	bl	406c24 <__aeabi_fmul>
  405d8c:	4960      	ldr	r1, [pc, #384]	; (405f10 <atanf+0x1f4>)
  405d8e:	f000 fe41 	bl	406a14 <__addsf3>
  405d92:	4629      	mov	r1, r5
  405d94:	f000 ff46 	bl	406c24 <__aeabi_fmul>
  405d98:	495e      	ldr	r1, [pc, #376]	; (405f14 <atanf+0x1f8>)
  405d9a:	f000 fe3b 	bl	406a14 <__addsf3>
  405d9e:	4641      	mov	r1, r8
  405da0:	f000 ff40 	bl	406c24 <__aeabi_fmul>
  405da4:	495c      	ldr	r1, [pc, #368]	; (405f18 <atanf+0x1fc>)
  405da6:	4680      	mov	r8, r0
  405da8:	4628      	mov	r0, r5
  405daa:	f000 ff3b 	bl	406c24 <__aeabi_fmul>
  405dae:	495b      	ldr	r1, [pc, #364]	; (405f1c <atanf+0x200>)
  405db0:	f000 fe2e 	bl	406a10 <__aeabi_fsub>
  405db4:	4629      	mov	r1, r5
  405db6:	f000 ff35 	bl	406c24 <__aeabi_fmul>
  405dba:	4959      	ldr	r1, [pc, #356]	; (405f20 <atanf+0x204>)
  405dbc:	f000 fe28 	bl	406a10 <__aeabi_fsub>
  405dc0:	4629      	mov	r1, r5
  405dc2:	f000 ff2f 	bl	406c24 <__aeabi_fmul>
  405dc6:	4957      	ldr	r1, [pc, #348]	; (405f24 <atanf+0x208>)
  405dc8:	f000 fe22 	bl	406a10 <__aeabi_fsub>
  405dcc:	4629      	mov	r1, r5
  405dce:	f000 ff29 	bl	406c24 <__aeabi_fmul>
  405dd2:	4955      	ldr	r1, [pc, #340]	; (405f28 <atanf+0x20c>)
  405dd4:	f000 fe1c 	bl	406a10 <__aeabi_fsub>
  405dd8:	4629      	mov	r1, r5
  405dda:	f000 ff23 	bl	406c24 <__aeabi_fmul>
  405dde:	1c7b      	adds	r3, r7, #1
  405de0:	4601      	mov	r1, r0
  405de2:	4640      	mov	r0, r8
  405de4:	d04c      	beq.n	405e80 <atanf+0x164>
  405de6:	f000 fe15 	bl	406a14 <__addsf3>
  405dea:	4621      	mov	r1, r4
  405dec:	f000 ff1a 	bl	406c24 <__aeabi_fmul>
  405df0:	4b4e      	ldr	r3, [pc, #312]	; (405f2c <atanf+0x210>)
  405df2:	4d4f      	ldr	r5, [pc, #316]	; (405f30 <atanf+0x214>)
  405df4:	f853 1027 	ldr.w	r1, [r3, r7, lsl #2]
  405df8:	f000 fe0a 	bl	406a10 <__aeabi_fsub>
  405dfc:	4621      	mov	r1, r4
  405dfe:	f000 fe07 	bl	406a10 <__aeabi_fsub>
  405e02:	4601      	mov	r1, r0
  405e04:	f855 0027 	ldr.w	r0, [r5, r7, lsl #2]
  405e08:	f000 fe02 	bl	406a10 <__aeabi_fsub>
  405e0c:	2e00      	cmp	r6, #0
  405e0e:	db30      	blt.n	405e72 <atanf+0x156>
  405e10:	e8bd 81f0 	ldmia.w	sp!, {r4, r5, r6, r7, r8, pc}
  405e14:	4601      	mov	r1, r0
  405e16:	f000 fdfd 	bl	406a14 <__addsf3>
  405e1a:	e8bd 81f0 	ldmia.w	sp!, {r4, r5, r6, r7, r8, pc}
  405e1e:	4945      	ldr	r1, [pc, #276]	; (405f34 <atanf+0x218>)
  405e20:	f000 fdf8 	bl	406a14 <__addsf3>
  405e24:	f04f 517e 	mov.w	r1, #1065353216	; 0x3f800000
  405e28:	f001 f8b8 	bl	406f9c <__aeabi_fcmpgt>
  405e2c:	2800      	cmp	r0, #0
  405e2e:	d08d      	beq.n	405d4c <atanf+0x30>
  405e30:	4620      	mov	r0, r4
  405e32:	e8bd 81f0 	ldmia.w	sp!, {r4, r5, r6, r7, r8, pc}
  405e36:	f000 f887 	bl	405f48 <fabsf>
  405e3a:	4b3f      	ldr	r3, [pc, #252]	; (405f38 <atanf+0x21c>)
  405e3c:	429d      	cmp	r5, r3
  405e3e:	4604      	mov	r4, r0
  405e40:	dc29      	bgt.n	405e96 <atanf+0x17a>
  405e42:	f5a3 03d0 	sub.w	r3, r3, #6815744	; 0x680000
  405e46:	429d      	cmp	r5, r3
  405e48:	dc44      	bgt.n	405ed4 <atanf+0x1b8>
  405e4a:	4601      	mov	r1, r0
  405e4c:	f000 fde2 	bl	406a14 <__addsf3>
  405e50:	f04f 517e 	mov.w	r1, #1065353216	; 0x3f800000
  405e54:	f000 fddc 	bl	406a10 <__aeabi_fsub>
  405e58:	f04f 4180 	mov.w	r1, #1073741824	; 0x40000000
  405e5c:	4605      	mov	r5, r0
  405e5e:	4620      	mov	r0, r4
  405e60:	f000 fdd8 	bl	406a14 <__addsf3>
  405e64:	4601      	mov	r1, r0
  405e66:	4628      	mov	r0, r5
  405e68:	f000 ff90 	bl	406d8c <__aeabi_fdiv>
  405e6c:	2700      	movs	r7, #0
  405e6e:	4604      	mov	r4, r0
  405e70:	e76e      	b.n	405d50 <atanf+0x34>
  405e72:	f100 4000 	add.w	r0, r0, #2147483648	; 0x80000000
  405e76:	e8bd 81f0 	ldmia.w	sp!, {r4, r5, r6, r7, r8, pc}
  405e7a:	4830      	ldr	r0, [pc, #192]	; (405f3c <atanf+0x220>)
  405e7c:	e8bd 81f0 	ldmia.w	sp!, {r4, r5, r6, r7, r8, pc}
  405e80:	f000 fdc8 	bl	406a14 <__addsf3>
  405e84:	4621      	mov	r1, r4
  405e86:	f000 fecd 	bl	406c24 <__aeabi_fmul>
  405e8a:	4601      	mov	r1, r0
  405e8c:	4620      	mov	r0, r4
  405e8e:	f000 fdbf 	bl	406a10 <__aeabi_fsub>
  405e92:	e8bd 81f0 	ldmia.w	sp!, {r4, r5, r6, r7, r8, pc}
  405e96:	4b2a      	ldr	r3, [pc, #168]	; (405f40 <atanf+0x224>)
  405e98:	429d      	cmp	r5, r3
  405e9a:	dc14      	bgt.n	405ec6 <atanf+0x1aa>
  405e9c:	f04f 517f 	mov.w	r1, #1069547520	; 0x3fc00000
  405ea0:	f000 fdb6 	bl	406a10 <__aeabi_fsub>
  405ea4:	f04f 517f 	mov.w	r1, #1069547520	; 0x3fc00000
  405ea8:	4605      	mov	r5, r0
  405eaa:	4620      	mov	r0, r4
  405eac:	f000 feba 	bl	406c24 <__aeabi_fmul>
  405eb0:	f04f 517e 	mov.w	r1, #1065353216	; 0x3f800000
  405eb4:	f000 fdae 	bl	406a14 <__addsf3>
  405eb8:	4601      	mov	r1, r0
  405eba:	4628      	mov	r0, r5
  405ebc:	f000 ff66 	bl	406d8c <__aeabi_fdiv>
  405ec0:	2702      	movs	r7, #2
  405ec2:	4604      	mov	r4, r0
  405ec4:	e744      	b.n	405d50 <atanf+0x34>
  405ec6:	4601      	mov	r1, r0
  405ec8:	481e      	ldr	r0, [pc, #120]	; (405f44 <atanf+0x228>)
  405eca:	f000 ff5f 	bl	406d8c <__aeabi_fdiv>
  405ece:	2703      	movs	r7, #3
  405ed0:	4604      	mov	r4, r0
  405ed2:	e73d      	b.n	405d50 <atanf+0x34>
  405ed4:	f04f 517e 	mov.w	r1, #1065353216	; 0x3f800000
  405ed8:	f000 fd9a 	bl	406a10 <__aeabi_fsub>
  405edc:	f04f 517e 	mov.w	r1, #1065353216	; 0x3f800000
  405ee0:	4605      	mov	r5, r0
  405ee2:	4620      	mov	r0, r4
  405ee4:	f000 fd96 	bl	406a14 <__addsf3>
  405ee8:	4601      	mov	r1, r0
  405eea:	4628      	mov	r0, r5
  405eec:	f000 ff4e 	bl	406d8c <__aeabi_fdiv>
  405ef0:	2701      	movs	r7, #1
  405ef2:	4604      	mov	r4, r0
  405ef4:	e72c      	b.n	405d50 <atanf+0x34>
  405ef6:	bf00      	nop
  405ef8:	3fc90fdb 	.word	0x3fc90fdb
  405efc:	3edfffff 	.word	0x3edfffff
  405f00:	3c8569d7 	.word	0x3c8569d7
  405f04:	3d4bda59 	.word	0x3d4bda59
  405f08:	3d886b35 	.word	0x3d886b35
  405f0c:	3dba2e6e 	.word	0x3dba2e6e
  405f10:	3e124925 	.word	0x3e124925
  405f14:	3eaaaaab 	.word	0x3eaaaaab
  405f18:	bd15a221 	.word	0xbd15a221
  405f1c:	3d6ef16b 	.word	0x3d6ef16b
  405f20:	3d9d8795 	.word	0x3d9d8795
  405f24:	3de38e38 	.word	0x3de38e38
  405f28:	3e4ccccd 	.word	0x3e4ccccd
  405f2c:	0040a850 	.word	0x0040a850
  405f30:	0040a840 	.word	0x0040a840
  405f34:	7149f2ca 	.word	0x7149f2ca
  405f38:	3f97ffff 	.word	0x3f97ffff
  405f3c:	bfc90fdb 	.word	0xbfc90fdb
  405f40:	401bffff 	.word	0x401bffff
  405f44:	bf800000 	.word	0xbf800000

00405f48 <fabsf>:
  405f48:	f020 4000 	bic.w	r0, r0, #2147483648	; 0x80000000
  405f4c:	4770      	bx	lr
  405f4e:	bf00      	nop

00405f50 <floorf>:
  405f50:	e92d 41f0 	stmdb	sp!, {r4, r5, r6, r7, r8, lr}
  405f54:	f020 4700 	bic.w	r7, r0, #2147483648	; 0x80000000
  405f58:	0dfc      	lsrs	r4, r7, #23
  405f5a:	3c7f      	subs	r4, #127	; 0x7f
  405f5c:	2c16      	cmp	r4, #22
  405f5e:	4605      	mov	r5, r0
  405f60:	dc13      	bgt.n	405f8a <floorf+0x3a>
  405f62:	2c00      	cmp	r4, #0
  405f64:	4680      	mov	r8, r0
  405f66:	db1b      	blt.n	405fa0 <floorf+0x50>
  405f68:	4f19      	ldr	r7, [pc, #100]	; (405fd0 <floorf+0x80>)
  405f6a:	4127      	asrs	r7, r4
  405f6c:	4238      	tst	r0, r7
  405f6e:	d014      	beq.n	405f9a <floorf+0x4a>
  405f70:	4918      	ldr	r1, [pc, #96]	; (405fd4 <floorf+0x84>)
  405f72:	f000 fd4f 	bl	406a14 <__addsf3>
  405f76:	2100      	movs	r1, #0
  405f78:	f001 f810 	bl	406f9c <__aeabi_fcmpgt>
  405f7c:	b168      	cbz	r0, 405f9a <floorf+0x4a>
  405f7e:	2d00      	cmp	r5, #0
  405f80:	db1b      	blt.n	405fba <floorf+0x6a>
  405f82:	ea28 0007 	bic.w	r0, r8, r7
  405f86:	e8bd 81f0 	ldmia.w	sp!, {r4, r5, r6, r7, r8, pc}
  405f8a:	f1b7 4fff 	cmp.w	r7, #2139095040	; 0x7f800000
  405f8e:	d304      	bcc.n	405f9a <floorf+0x4a>
  405f90:	4601      	mov	r1, r0
  405f92:	f000 fd3f 	bl	406a14 <__addsf3>
  405f96:	e8bd 81f0 	ldmia.w	sp!, {r4, r5, r6, r7, r8, pc}
  405f9a:	4628      	mov	r0, r5
  405f9c:	e8bd 81f0 	ldmia.w	sp!, {r4, r5, r6, r7, r8, pc}
  405fa0:	490c      	ldr	r1, [pc, #48]	; (405fd4 <floorf+0x84>)
  405fa2:	f000 fd37 	bl	406a14 <__addsf3>
  405fa6:	2100      	movs	r1, #0
  405fa8:	f000 fff8 	bl	406f9c <__aeabi_fcmpgt>
  405fac:	2800      	cmp	r0, #0
  405fae:	d0f4      	beq.n	405f9a <floorf+0x4a>
  405fb0:	2d00      	cmp	r5, #0
  405fb2:	db08      	blt.n	405fc6 <floorf+0x76>
  405fb4:	2000      	movs	r0, #0
  405fb6:	e8bd 81f0 	ldmia.w	sp!, {r4, r5, r6, r7, r8, pc}
  405fba:	f44f 0300 	mov.w	r3, #8388608	; 0x800000
  405fbe:	fa43 f404 	asr.w	r4, r3, r4
  405fc2:	44a0      	add	r8, r4
  405fc4:	e7dd      	b.n	405f82 <floorf+0x32>
  405fc6:	2f00      	cmp	r7, #0
  405fc8:	d0e7      	beq.n	405f9a <floorf+0x4a>
  405fca:	4803      	ldr	r0, [pc, #12]	; (405fd8 <floorf+0x88>)
  405fcc:	e8bd 81f0 	ldmia.w	sp!, {r4, r5, r6, r7, r8, pc}
  405fd0:	007fffff 	.word	0x007fffff
  405fd4:	7149f2ca 	.word	0x7149f2ca
  405fd8:	bf800000 	.word	0xbf800000

00405fdc <scalbnf>:
  405fdc:	f030 4200 	bics.w	r2, r0, #2147483648	; 0x80000000
  405fe0:	b538      	push	{r3, r4, r5, lr}
  405fe2:	4603      	mov	r3, r0
  405fe4:	d016      	beq.n	406014 <scalbnf+0x38>
  405fe6:	f1b2 4fff 	cmp.w	r2, #2139095040	; 0x7f800000
  405fea:	d20f      	bcs.n	40600c <scalbnf+0x30>
  405fec:	f5b2 0f00 	cmp.w	r2, #8388608	; 0x800000
  405ff0:	460d      	mov	r5, r1
  405ff2:	d310      	bcc.n	406016 <scalbnf+0x3a>
  405ff4:	4604      	mov	r4, r0
  405ff6:	0dd0      	lsrs	r0, r2, #23
  405ff8:	4428      	add	r0, r5
  405ffa:	28fe      	cmp	r0, #254	; 0xfe
  405ffc:	dc2e      	bgt.n	40605c <scalbnf+0x80>
  405ffe:	2800      	cmp	r0, #0
  406000:	dd1d      	ble.n	40603e <scalbnf+0x62>
  406002:	f024 44ff 	bic.w	r4, r4, #2139095040	; 0x7f800000
  406006:	ea44 50c0 	orr.w	r0, r4, r0, lsl #23
  40600a:	bd38      	pop	{r3, r4, r5, pc}
  40600c:	4601      	mov	r1, r0
  40600e:	f000 fd01 	bl	406a14 <__addsf3>
  406012:	bd38      	pop	{r3, r4, r5, pc}
  406014:	bd38      	pop	{r3, r4, r5, pc}
  406016:	f04f 4198 	mov.w	r1, #1275068416	; 0x4c000000
  40601a:	f000 fe03 	bl	406c24 <__aeabi_fmul>
  40601e:	4a18      	ldr	r2, [pc, #96]	; (406080 <scalbnf+0xa4>)
  406020:	4295      	cmp	r5, r2
  406022:	4603      	mov	r3, r0
  406024:	db07      	blt.n	406036 <scalbnf+0x5a>
  406026:	4604      	mov	r4, r0
  406028:	f3c0 50c7 	ubfx	r0, r0, #23, #8
  40602c:	3819      	subs	r0, #25
  40602e:	e7e3      	b.n	405ff8 <scalbnf+0x1c>
  406030:	4814      	ldr	r0, [pc, #80]	; (406084 <scalbnf+0xa8>)
  406032:	f000 f82b 	bl	40608c <copysignf>
  406036:	4913      	ldr	r1, [pc, #76]	; (406084 <scalbnf+0xa8>)
  406038:	f000 fdf4 	bl	406c24 <__aeabi_fmul>
  40603c:	bd38      	pop	{r3, r4, r5, pc}
  40603e:	f110 0f16 	cmn.w	r0, #22
  406042:	da13      	bge.n	40606c <scalbnf+0x90>
  406044:	f24c 3250 	movw	r2, #50000	; 0xc350
  406048:	4295      	cmp	r5, r2
  40604a:	4619      	mov	r1, r3
  40604c:	ddf0      	ble.n	406030 <scalbnf+0x54>
  40604e:	480e      	ldr	r0, [pc, #56]	; (406088 <scalbnf+0xac>)
  406050:	f000 f81c 	bl	40608c <copysignf>
  406054:	490c      	ldr	r1, [pc, #48]	; (406088 <scalbnf+0xac>)
  406056:	f000 fde5 	bl	406c24 <__aeabi_fmul>
  40605a:	bd38      	pop	{r3, r4, r5, pc}
  40605c:	4619      	mov	r1, r3
  40605e:	480a      	ldr	r0, [pc, #40]	; (406088 <scalbnf+0xac>)
  406060:	f000 f814 	bl	40608c <copysignf>
  406064:	4908      	ldr	r1, [pc, #32]	; (406088 <scalbnf+0xac>)
  406066:	f000 fddd 	bl	406c24 <__aeabi_fmul>
  40606a:	bd38      	pop	{r3, r4, r5, pc}
  40606c:	f024 44ff 	bic.w	r4, r4, #2139095040	; 0x7f800000
  406070:	3019      	adds	r0, #25
  406072:	ea44 50c0 	orr.w	r0, r4, r0, lsl #23
  406076:	f04f 514c 	mov.w	r1, #855638016	; 0x33000000
  40607a:	f000 fdd3 	bl	406c24 <__aeabi_fmul>
  40607e:	bd38      	pop	{r3, r4, r5, pc}
  406080:	ffff3cb0 	.word	0xffff3cb0
  406084:	0da24260 	.word	0x0da24260
  406088:	7149f2ca 	.word	0x7149f2ca

0040608c <copysignf>:
  40608c:	f001 4100 	and.w	r1, r1, #2147483648	; 0x80000000
  406090:	f020 4000 	bic.w	r0, r0, #2147483648	; 0x80000000
  406094:	4308      	orrs	r0, r1
  406096:	4770      	bx	lr

00406098 <__aeabi_drsub>:
  406098:	f081 4100 	eor.w	r1, r1, #2147483648	; 0x80000000
  40609c:	e002      	b.n	4060a4 <__adddf3>
  40609e:	bf00      	nop

004060a0 <__aeabi_dsub>:
  4060a0:	f083 4300 	eor.w	r3, r3, #2147483648	; 0x80000000

004060a4 <__adddf3>:
  4060a4:	b530      	push	{r4, r5, lr}
  4060a6:	ea4f 0441 	mov.w	r4, r1, lsl #1
  4060aa:	ea4f 0543 	mov.w	r5, r3, lsl #1
  4060ae:	ea94 0f05 	teq	r4, r5
  4060b2:	bf08      	it	eq
  4060b4:	ea90 0f02 	teqeq	r0, r2
  4060b8:	bf1f      	itttt	ne
  4060ba:	ea54 0c00 	orrsne.w	ip, r4, r0
  4060be:	ea55 0c02 	orrsne.w	ip, r5, r2
  4060c2:	ea7f 5c64 	mvnsne.w	ip, r4, asr #21
  4060c6:	ea7f 5c65 	mvnsne.w	ip, r5, asr #21
  4060ca:	f000 80e2 	beq.w	406292 <__adddf3+0x1ee>
  4060ce:	ea4f 5454 	mov.w	r4, r4, lsr #21
  4060d2:	ebd4 5555 	rsbs	r5, r4, r5, lsr #21
  4060d6:	bfb8      	it	lt
  4060d8:	426d      	neglt	r5, r5
  4060da:	dd0c      	ble.n	4060f6 <__adddf3+0x52>
  4060dc:	442c      	add	r4, r5
  4060de:	ea80 0202 	eor.w	r2, r0, r2
  4060e2:	ea81 0303 	eor.w	r3, r1, r3
  4060e6:	ea82 0000 	eor.w	r0, r2, r0
  4060ea:	ea83 0101 	eor.w	r1, r3, r1
  4060ee:	ea80 0202 	eor.w	r2, r0, r2
  4060f2:	ea81 0303 	eor.w	r3, r1, r3
  4060f6:	2d36      	cmp	r5, #54	; 0x36
  4060f8:	bf88      	it	hi
  4060fa:	bd30      	pophi	{r4, r5, pc}
  4060fc:	f011 4f00 	tst.w	r1, #2147483648	; 0x80000000
  406100:	ea4f 3101 	mov.w	r1, r1, lsl #12
  406104:	f44f 1c80 	mov.w	ip, #1048576	; 0x100000
  406108:	ea4c 3111 	orr.w	r1, ip, r1, lsr #12
  40610c:	d002      	beq.n	406114 <__adddf3+0x70>
  40610e:	4240      	negs	r0, r0
  406110:	eb61 0141 	sbc.w	r1, r1, r1, lsl #1
  406114:	f013 4f00 	tst.w	r3, #2147483648	; 0x80000000
  406118:	ea4f 3303 	mov.w	r3, r3, lsl #12
  40611c:	ea4c 3313 	orr.w	r3, ip, r3, lsr #12
  406120:	d002      	beq.n	406128 <__adddf3+0x84>
  406122:	4252      	negs	r2, r2
  406124:	eb63 0343 	sbc.w	r3, r3, r3, lsl #1
  406128:	ea94 0f05 	teq	r4, r5
  40612c:	f000 80a7 	beq.w	40627e <__adddf3+0x1da>
  406130:	f1a4 0401 	sub.w	r4, r4, #1
  406134:	f1d5 0e20 	rsbs	lr, r5, #32
  406138:	db0d      	blt.n	406156 <__adddf3+0xb2>
  40613a:	fa02 fc0e 	lsl.w	ip, r2, lr
  40613e:	fa22 f205 	lsr.w	r2, r2, r5
  406142:	1880      	adds	r0, r0, r2
  406144:	f141 0100 	adc.w	r1, r1, #0
  406148:	fa03 f20e 	lsl.w	r2, r3, lr
  40614c:	1880      	adds	r0, r0, r2
  40614e:	fa43 f305 	asr.w	r3, r3, r5
  406152:	4159      	adcs	r1, r3
  406154:	e00e      	b.n	406174 <__adddf3+0xd0>
  406156:	f1a5 0520 	sub.w	r5, r5, #32
  40615a:	f10e 0e20 	add.w	lr, lr, #32
  40615e:	2a01      	cmp	r2, #1
  406160:	fa03 fc0e 	lsl.w	ip, r3, lr
  406164:	bf28      	it	cs
  406166:	f04c 0c02 	orrcs.w	ip, ip, #2
  40616a:	fa43 f305 	asr.w	r3, r3, r5
  40616e:	18c0      	adds	r0, r0, r3
  406170:	eb51 71e3 	adcs.w	r1, r1, r3, asr #31
  406174:	f001 4500 	and.w	r5, r1, #2147483648	; 0x80000000
  406178:	d507      	bpl.n	40618a <__adddf3+0xe6>
  40617a:	f04f 0e00 	mov.w	lr, #0
  40617e:	f1dc 0c00 	rsbs	ip, ip, #0
  406182:	eb7e 0000 	sbcs.w	r0, lr, r0
  406186:	eb6e 0101 	sbc.w	r1, lr, r1
  40618a:	f5b1 1f80 	cmp.w	r1, #1048576	; 0x100000
  40618e:	d31b      	bcc.n	4061c8 <__adddf3+0x124>
  406190:	f5b1 1f00 	cmp.w	r1, #2097152	; 0x200000
  406194:	d30c      	bcc.n	4061b0 <__adddf3+0x10c>
  406196:	0849      	lsrs	r1, r1, #1
  406198:	ea5f 0030 	movs.w	r0, r0, rrx
  40619c:	ea4f 0c3c 	mov.w	ip, ip, rrx
  4061a0:	f104 0401 	add.w	r4, r4, #1
  4061a4:	ea4f 5244 	mov.w	r2, r4, lsl #21
  4061a8:	f512 0f80 	cmn.w	r2, #4194304	; 0x400000
  4061ac:	f080 809a 	bcs.w	4062e4 <__adddf3+0x240>
  4061b0:	f1bc 4f00 	cmp.w	ip, #2147483648	; 0x80000000
  4061b4:	bf08      	it	eq
  4061b6:	ea5f 0c50 	movseq.w	ip, r0, lsr #1
  4061ba:	f150 0000 	adcs.w	r0, r0, #0
  4061be:	eb41 5104 	adc.w	r1, r1, r4, lsl #20
  4061c2:	ea41 0105 	orr.w	r1, r1, r5
  4061c6:	bd30      	pop	{r4, r5, pc}
  4061c8:	ea5f 0c4c 	movs.w	ip, ip, lsl #1
  4061cc:	4140      	adcs	r0, r0
  4061ce:	eb41 0101 	adc.w	r1, r1, r1
  4061d2:	f411 1f80 	tst.w	r1, #1048576	; 0x100000
  4061d6:	f1a4 0401 	sub.w	r4, r4, #1
  4061da:	d1e9      	bne.n	4061b0 <__adddf3+0x10c>
  4061dc:	f091 0f00 	teq	r1, #0
  4061e0:	bf04      	itt	eq
  4061e2:	4601      	moveq	r1, r0
  4061e4:	2000      	moveq	r0, #0
  4061e6:	fab1 f381 	clz	r3, r1
  4061ea:	bf08      	it	eq
  4061ec:	3320      	addeq	r3, #32
  4061ee:	f1a3 030b 	sub.w	r3, r3, #11
  4061f2:	f1b3 0220 	subs.w	r2, r3, #32
  4061f6:	da0c      	bge.n	406212 <__adddf3+0x16e>
  4061f8:	320c      	adds	r2, #12
  4061fa:	dd08      	ble.n	40620e <__adddf3+0x16a>
  4061fc:	f102 0c14 	add.w	ip, r2, #20
  406200:	f1c2 020c 	rsb	r2, r2, #12
  406204:	fa01 f00c 	lsl.w	r0, r1, ip
  406208:	fa21 f102 	lsr.w	r1, r1, r2
  40620c:	e00c      	b.n	406228 <__adddf3+0x184>
  40620e:	f102 0214 	add.w	r2, r2, #20
  406212:	bfd8      	it	le
  406214:	f1c2 0c20 	rsble	ip, r2, #32
  406218:	fa01 f102 	lsl.w	r1, r1, r2
  40621c:	fa20 fc0c 	lsr.w	ip, r0, ip
  406220:	bfdc      	itt	le
  406222:	ea41 010c 	orrle.w	r1, r1, ip
  406226:	4090      	lslle	r0, r2
  406228:	1ae4      	subs	r4, r4, r3
  40622a:	bfa2      	ittt	ge
  40622c:	eb01 5104 	addge.w	r1, r1, r4, lsl #20
  406230:	4329      	orrge	r1, r5
  406232:	bd30      	popge	{r4, r5, pc}
  406234:	ea6f 0404 	mvn.w	r4, r4
  406238:	3c1f      	subs	r4, #31
  40623a:	da1c      	bge.n	406276 <__adddf3+0x1d2>
  40623c:	340c      	adds	r4, #12
  40623e:	dc0e      	bgt.n	40625e <__adddf3+0x1ba>
  406240:	f104 0414 	add.w	r4, r4, #20
  406244:	f1c4 0220 	rsb	r2, r4, #32
  406248:	fa20 f004 	lsr.w	r0, r0, r4
  40624c:	fa01 f302 	lsl.w	r3, r1, r2
  406250:	ea40 0003 	orr.w	r0, r0, r3
  406254:	fa21 f304 	lsr.w	r3, r1, r4
  406258:	ea45 0103 	orr.w	r1, r5, r3
  40625c:	bd30      	pop	{r4, r5, pc}
  40625e:	f1c4 040c 	rsb	r4, r4, #12
  406262:	f1c4 0220 	rsb	r2, r4, #32
  406266:	fa20 f002 	lsr.w	r0, r0, r2
  40626a:	fa01 f304 	lsl.w	r3, r1, r4
  40626e:	ea40 0003 	orr.w	r0, r0, r3
  406272:	4629      	mov	r1, r5
  406274:	bd30      	pop	{r4, r5, pc}
  406276:	fa21 f004 	lsr.w	r0, r1, r4
  40627a:	4629      	mov	r1, r5
  40627c:	bd30      	pop	{r4, r5, pc}
  40627e:	f094 0f00 	teq	r4, #0
  406282:	f483 1380 	eor.w	r3, r3, #1048576	; 0x100000
  406286:	bf06      	itte	eq
  406288:	f481 1180 	eoreq.w	r1, r1, #1048576	; 0x100000
  40628c:	3401      	addeq	r4, #1
  40628e:	3d01      	subne	r5, #1
  406290:	e74e      	b.n	406130 <__adddf3+0x8c>
  406292:	ea7f 5c64 	mvns.w	ip, r4, asr #21
  406296:	bf18      	it	ne
  406298:	ea7f 5c65 	mvnsne.w	ip, r5, asr #21
  40629c:	d029      	beq.n	4062f2 <__adddf3+0x24e>
  40629e:	ea94 0f05 	teq	r4, r5
  4062a2:	bf08      	it	eq
  4062a4:	ea90 0f02 	teqeq	r0, r2
  4062a8:	d005      	beq.n	4062b6 <__adddf3+0x212>
  4062aa:	ea54 0c00 	orrs.w	ip, r4, r0
  4062ae:	bf04      	itt	eq
  4062b0:	4619      	moveq	r1, r3
  4062b2:	4610      	moveq	r0, r2
  4062b4:	bd30      	pop	{r4, r5, pc}
  4062b6:	ea91 0f03 	teq	r1, r3
  4062ba:	bf1e      	ittt	ne
  4062bc:	2100      	movne	r1, #0
  4062be:	2000      	movne	r0, #0
  4062c0:	bd30      	popne	{r4, r5, pc}
  4062c2:	ea5f 5c54 	movs.w	ip, r4, lsr #21
  4062c6:	d105      	bne.n	4062d4 <__adddf3+0x230>
  4062c8:	0040      	lsls	r0, r0, #1
  4062ca:	4149      	adcs	r1, r1
  4062cc:	bf28      	it	cs
  4062ce:	f041 4100 	orrcs.w	r1, r1, #2147483648	; 0x80000000
  4062d2:	bd30      	pop	{r4, r5, pc}
  4062d4:	f514 0480 	adds.w	r4, r4, #4194304	; 0x400000
  4062d8:	bf3c      	itt	cc
  4062da:	f501 1180 	addcc.w	r1, r1, #1048576	; 0x100000
  4062de:	bd30      	popcc	{r4, r5, pc}
  4062e0:	f001 4500 	and.w	r5, r1, #2147483648	; 0x80000000
  4062e4:	f045 41fe 	orr.w	r1, r5, #2130706432	; 0x7f000000
  4062e8:	f441 0170 	orr.w	r1, r1, #15728640	; 0xf00000
  4062ec:	f04f 0000 	mov.w	r0, #0
  4062f0:	bd30      	pop	{r4, r5, pc}
  4062f2:	ea7f 5c64 	mvns.w	ip, r4, asr #21
  4062f6:	bf1a      	itte	ne
  4062f8:	4619      	movne	r1, r3
  4062fa:	4610      	movne	r0, r2
  4062fc:	ea7f 5c65 	mvnseq.w	ip, r5, asr #21
  406300:	bf1c      	itt	ne
  406302:	460b      	movne	r3, r1
  406304:	4602      	movne	r2, r0
  406306:	ea50 3401 	orrs.w	r4, r0, r1, lsl #12
  40630a:	bf06      	itte	eq
  40630c:	ea52 3503 	orrseq.w	r5, r2, r3, lsl #12
  406310:	ea91 0f03 	teqeq	r1, r3
  406314:	f441 2100 	orrne.w	r1, r1, #524288	; 0x80000
  406318:	bd30      	pop	{r4, r5, pc}
  40631a:	bf00      	nop

0040631c <__aeabi_ui2d>:
  40631c:	f090 0f00 	teq	r0, #0
  406320:	bf04      	itt	eq
  406322:	2100      	moveq	r1, #0
  406324:	4770      	bxeq	lr
  406326:	b530      	push	{r4, r5, lr}
  406328:	f44f 6480 	mov.w	r4, #1024	; 0x400
  40632c:	f104 0432 	add.w	r4, r4, #50	; 0x32
  406330:	f04f 0500 	mov.w	r5, #0
  406334:	f04f 0100 	mov.w	r1, #0
  406338:	e750      	b.n	4061dc <__adddf3+0x138>
  40633a:	bf00      	nop

0040633c <__aeabi_i2d>:
  40633c:	f090 0f00 	teq	r0, #0
  406340:	bf04      	itt	eq
  406342:	2100      	moveq	r1, #0
  406344:	4770      	bxeq	lr
  406346:	b530      	push	{r4, r5, lr}
  406348:	f44f 6480 	mov.w	r4, #1024	; 0x400
  40634c:	f104 0432 	add.w	r4, r4, #50	; 0x32
  406350:	f010 4500 	ands.w	r5, r0, #2147483648	; 0x80000000
  406354:	bf48      	it	mi
  406356:	4240      	negmi	r0, r0
  406358:	f04f 0100 	mov.w	r1, #0
  40635c:	e73e      	b.n	4061dc <__adddf3+0x138>
  40635e:	bf00      	nop

00406360 <__aeabi_f2d>:
  406360:	0042      	lsls	r2, r0, #1
  406362:	ea4f 01e2 	mov.w	r1, r2, asr #3
  406366:	ea4f 0131 	mov.w	r1, r1, rrx
  40636a:	ea4f 7002 	mov.w	r0, r2, lsl #28
  40636e:	bf1f      	itttt	ne
  406370:	f012 437f 	andsne.w	r3, r2, #4278190080	; 0xff000000
  406374:	f093 4f7f 	teqne	r3, #4278190080	; 0xff000000
  406378:	f081 5160 	eorne.w	r1, r1, #939524096	; 0x38000000
  40637c:	4770      	bxne	lr
  40637e:	f092 0f00 	teq	r2, #0
  406382:	bf14      	ite	ne
  406384:	f093 4f7f 	teqne	r3, #4278190080	; 0xff000000
  406388:	4770      	bxeq	lr
  40638a:	b530      	push	{r4, r5, lr}
  40638c:	f44f 7460 	mov.w	r4, #896	; 0x380
  406390:	f001 4500 	and.w	r5, r1, #2147483648	; 0x80000000
  406394:	f021 4100 	bic.w	r1, r1, #2147483648	; 0x80000000
  406398:	e720      	b.n	4061dc <__adddf3+0x138>
  40639a:	bf00      	nop

0040639c <__aeabi_ul2d>:
  40639c:	ea50 0201 	orrs.w	r2, r0, r1
  4063a0:	bf08      	it	eq
  4063a2:	4770      	bxeq	lr
  4063a4:	b530      	push	{r4, r5, lr}
  4063a6:	f04f 0500 	mov.w	r5, #0
  4063aa:	e00a      	b.n	4063c2 <__aeabi_l2d+0x16>

004063ac <__aeabi_l2d>:
  4063ac:	ea50 0201 	orrs.w	r2, r0, r1
  4063b0:	bf08      	it	eq
  4063b2:	4770      	bxeq	lr
  4063b4:	b530      	push	{r4, r5, lr}
  4063b6:	f011 4500 	ands.w	r5, r1, #2147483648	; 0x80000000
  4063ba:	d502      	bpl.n	4063c2 <__aeabi_l2d+0x16>
  4063bc:	4240      	negs	r0, r0
  4063be:	eb61 0141 	sbc.w	r1, r1, r1, lsl #1
  4063c2:	f44f 6480 	mov.w	r4, #1024	; 0x400
  4063c6:	f104 0432 	add.w	r4, r4, #50	; 0x32
  4063ca:	ea5f 5c91 	movs.w	ip, r1, lsr #22
  4063ce:	f43f aedc 	beq.w	40618a <__adddf3+0xe6>
  4063d2:	f04f 0203 	mov.w	r2, #3
  4063d6:	ea5f 0cdc 	movs.w	ip, ip, lsr #3
  4063da:	bf18      	it	ne
  4063dc:	3203      	addne	r2, #3
  4063de:	ea5f 0cdc 	movs.w	ip, ip, lsr #3
  4063e2:	bf18      	it	ne
  4063e4:	3203      	addne	r2, #3
  4063e6:	eb02 02dc 	add.w	r2, r2, ip, lsr #3
  4063ea:	f1c2 0320 	rsb	r3, r2, #32
  4063ee:	fa00 fc03 	lsl.w	ip, r0, r3
  4063f2:	fa20 f002 	lsr.w	r0, r0, r2
  4063f6:	fa01 fe03 	lsl.w	lr, r1, r3
  4063fa:	ea40 000e 	orr.w	r0, r0, lr
  4063fe:	fa21 f102 	lsr.w	r1, r1, r2
  406402:	4414      	add	r4, r2
  406404:	e6c1      	b.n	40618a <__adddf3+0xe6>
  406406:	bf00      	nop

00406408 <__aeabi_dmul>:
  406408:	b570      	push	{r4, r5, r6, lr}
  40640a:	f04f 0cff 	mov.w	ip, #255	; 0xff
  40640e:	f44c 6ce0 	orr.w	ip, ip, #1792	; 0x700
  406412:	ea1c 5411 	ands.w	r4, ip, r1, lsr #20
  406416:	bf1d      	ittte	ne
  406418:	ea1c 5513 	andsne.w	r5, ip, r3, lsr #20
  40641c:	ea94 0f0c 	teqne	r4, ip
  406420:	ea95 0f0c 	teqne	r5, ip
  406424:	f000 f8de 	bleq	4065e4 <__aeabi_dmul+0x1dc>
  406428:	442c      	add	r4, r5
  40642a:	ea81 0603 	eor.w	r6, r1, r3
  40642e:	ea21 514c 	bic.w	r1, r1, ip, lsl #21
  406432:	ea23 534c 	bic.w	r3, r3, ip, lsl #21
  406436:	ea50 3501 	orrs.w	r5, r0, r1, lsl #12
  40643a:	bf18      	it	ne
  40643c:	ea52 3503 	orrsne.w	r5, r2, r3, lsl #12
  406440:	f441 1180 	orr.w	r1, r1, #1048576	; 0x100000
  406444:	f443 1380 	orr.w	r3, r3, #1048576	; 0x100000
  406448:	d038      	beq.n	4064bc <__aeabi_dmul+0xb4>
  40644a:	fba0 ce02 	umull	ip, lr, r0, r2
  40644e:	f04f 0500 	mov.w	r5, #0
  406452:	fbe1 e502 	umlal	lr, r5, r1, r2
  406456:	f006 4200 	and.w	r2, r6, #2147483648	; 0x80000000
  40645a:	fbe0 e503 	umlal	lr, r5, r0, r3
  40645e:	f04f 0600 	mov.w	r6, #0
  406462:	fbe1 5603 	umlal	r5, r6, r1, r3
  406466:	f09c 0f00 	teq	ip, #0
  40646a:	bf18      	it	ne
  40646c:	f04e 0e01 	orrne.w	lr, lr, #1
  406470:	f1a4 04ff 	sub.w	r4, r4, #255	; 0xff
  406474:	f5b6 7f00 	cmp.w	r6, #512	; 0x200
  406478:	f564 7440 	sbc.w	r4, r4, #768	; 0x300
  40647c:	d204      	bcs.n	406488 <__aeabi_dmul+0x80>
  40647e:	ea5f 0e4e 	movs.w	lr, lr, lsl #1
  406482:	416d      	adcs	r5, r5
  406484:	eb46 0606 	adc.w	r6, r6, r6
  406488:	ea42 21c6 	orr.w	r1, r2, r6, lsl #11
  40648c:	ea41 5155 	orr.w	r1, r1, r5, lsr #21
  406490:	ea4f 20c5 	mov.w	r0, r5, lsl #11
  406494:	ea40 505e 	orr.w	r0, r0, lr, lsr #21
  406498:	ea4f 2ece 	mov.w	lr, lr, lsl #11
  40649c:	f1b4 0cfd 	subs.w	ip, r4, #253	; 0xfd
  4064a0:	bf88      	it	hi
  4064a2:	f5bc 6fe0 	cmphi.w	ip, #1792	; 0x700
  4064a6:	d81e      	bhi.n	4064e6 <__aeabi_dmul+0xde>
  4064a8:	f1be 4f00 	cmp.w	lr, #2147483648	; 0x80000000
  4064ac:	bf08      	it	eq
  4064ae:	ea5f 0e50 	movseq.w	lr, r0, lsr #1
  4064b2:	f150 0000 	adcs.w	r0, r0, #0
  4064b6:	eb41 5104 	adc.w	r1, r1, r4, lsl #20
  4064ba:	bd70      	pop	{r4, r5, r6, pc}
  4064bc:	f006 4600 	and.w	r6, r6, #2147483648	; 0x80000000
  4064c0:	ea46 0101 	orr.w	r1, r6, r1
  4064c4:	ea40 0002 	orr.w	r0, r0, r2
  4064c8:	ea81 0103 	eor.w	r1, r1, r3
  4064cc:	ebb4 045c 	subs.w	r4, r4, ip, lsr #1
  4064d0:	bfc2      	ittt	gt
  4064d2:	ebd4 050c 	rsbsgt	r5, r4, ip
  4064d6:	ea41 5104 	orrgt.w	r1, r1, r4, lsl #20
  4064da:	bd70      	popgt	{r4, r5, r6, pc}
  4064dc:	f441 1180 	orr.w	r1, r1, #1048576	; 0x100000
  4064e0:	f04f 0e00 	mov.w	lr, #0
  4064e4:	3c01      	subs	r4, #1
  4064e6:	f300 80ab 	bgt.w	406640 <__aeabi_dmul+0x238>
  4064ea:	f114 0f36 	cmn.w	r4, #54	; 0x36
  4064ee:	bfde      	ittt	le
  4064f0:	2000      	movle	r0, #0
  4064f2:	f001 4100 	andle.w	r1, r1, #2147483648	; 0x80000000
  4064f6:	bd70      	pople	{r4, r5, r6, pc}
  4064f8:	f1c4 0400 	rsb	r4, r4, #0
  4064fc:	3c20      	subs	r4, #32
  4064fe:	da35      	bge.n	40656c <__aeabi_dmul+0x164>
  406500:	340c      	adds	r4, #12
  406502:	dc1b      	bgt.n	40653c <__aeabi_dmul+0x134>
  406504:	f104 0414 	add.w	r4, r4, #20
  406508:	f1c4 0520 	rsb	r5, r4, #32
  40650c:	fa00 f305 	lsl.w	r3, r0, r5
  406510:	fa20 f004 	lsr.w	r0, r0, r4
  406514:	fa01 f205 	lsl.w	r2, r1, r5
  406518:	ea40 0002 	orr.w	r0, r0, r2
  40651c:	f001 4200 	and.w	r2, r1, #2147483648	; 0x80000000
  406520:	f021 4100 	bic.w	r1, r1, #2147483648	; 0x80000000
  406524:	eb10 70d3 	adds.w	r0, r0, r3, lsr #31
  406528:	fa21 f604 	lsr.w	r6, r1, r4
  40652c:	eb42 0106 	adc.w	r1, r2, r6
  406530:	ea5e 0e43 	orrs.w	lr, lr, r3, lsl #1
  406534:	bf08      	it	eq
  406536:	ea20 70d3 	biceq.w	r0, r0, r3, lsr #31
  40653a:	bd70      	pop	{r4, r5, r6, pc}
  40653c:	f1c4 040c 	rsb	r4, r4, #12
  406540:	f1c4 0520 	rsb	r5, r4, #32
  406544:	fa00 f304 	lsl.w	r3, r0, r4
  406548:	fa20 f005 	lsr.w	r0, r0, r5
  40654c:	fa01 f204 	lsl.w	r2, r1, r4
  406550:	ea40 0002 	orr.w	r0, r0, r2
  406554:	f001 4100 	and.w	r1, r1, #2147483648	; 0x80000000
  406558:	eb10 70d3 	adds.w	r0, r0, r3, lsr #31
  40655c:	f141 0100 	adc.w	r1, r1, #0
  406560:	ea5e 0e43 	orrs.w	lr, lr, r3, lsl #1
  406564:	bf08      	it	eq
  406566:	ea20 70d3 	biceq.w	r0, r0, r3, lsr #31
  40656a:	bd70      	pop	{r4, r5, r6, pc}
  40656c:	f1c4 0520 	rsb	r5, r4, #32
  406570:	fa00 f205 	lsl.w	r2, r0, r5
  406574:	ea4e 0e02 	orr.w	lr, lr, r2
  406578:	fa20 f304 	lsr.w	r3, r0, r4
  40657c:	fa01 f205 	lsl.w	r2, r1, r5
  406580:	ea43 0302 	orr.w	r3, r3, r2
  406584:	fa21 f004 	lsr.w	r0, r1, r4
  406588:	f001 4100 	and.w	r1, r1, #2147483648	; 0x80000000
  40658c:	fa21 f204 	lsr.w	r2, r1, r4
  406590:	ea20 0002 	bic.w	r0, r0, r2
  406594:	eb00 70d3 	add.w	r0, r0, r3, lsr #31
  406598:	ea5e 0e43 	orrs.w	lr, lr, r3, lsl #1
  40659c:	bf08      	it	eq
  40659e:	ea20 70d3 	biceq.w	r0, r0, r3, lsr #31
  4065a2:	bd70      	pop	{r4, r5, r6, pc}
  4065a4:	f094 0f00 	teq	r4, #0
  4065a8:	d10f      	bne.n	4065ca <__aeabi_dmul+0x1c2>
  4065aa:	f001 4600 	and.w	r6, r1, #2147483648	; 0x80000000
  4065ae:	0040      	lsls	r0, r0, #1
  4065b0:	eb41 0101 	adc.w	r1, r1, r1
  4065b4:	f411 1f80 	tst.w	r1, #1048576	; 0x100000
  4065b8:	bf08      	it	eq
  4065ba:	3c01      	subeq	r4, #1
  4065bc:	d0f7      	beq.n	4065ae <__aeabi_dmul+0x1a6>
  4065be:	ea41 0106 	orr.w	r1, r1, r6
  4065c2:	f095 0f00 	teq	r5, #0
  4065c6:	bf18      	it	ne
  4065c8:	4770      	bxne	lr
  4065ca:	f003 4600 	and.w	r6, r3, #2147483648	; 0x80000000
  4065ce:	0052      	lsls	r2, r2, #1
  4065d0:	eb43 0303 	adc.w	r3, r3, r3
  4065d4:	f413 1f80 	tst.w	r3, #1048576	; 0x100000
  4065d8:	bf08      	it	eq
  4065da:	3d01      	subeq	r5, #1
  4065dc:	d0f7      	beq.n	4065ce <__aeabi_dmul+0x1c6>
  4065de:	ea43 0306 	orr.w	r3, r3, r6
  4065e2:	4770      	bx	lr
  4065e4:	ea94 0f0c 	teq	r4, ip
  4065e8:	ea0c 5513 	and.w	r5, ip, r3, lsr #20
  4065ec:	bf18      	it	ne
  4065ee:	ea95 0f0c 	teqne	r5, ip
  4065f2:	d00c      	beq.n	40660e <__aeabi_dmul+0x206>
  4065f4:	ea50 0641 	orrs.w	r6, r0, r1, lsl #1
  4065f8:	bf18      	it	ne
  4065fa:	ea52 0643 	orrsne.w	r6, r2, r3, lsl #1
  4065fe:	d1d1      	bne.n	4065a4 <__aeabi_dmul+0x19c>
  406600:	ea81 0103 	eor.w	r1, r1, r3
  406604:	f001 4100 	and.w	r1, r1, #2147483648	; 0x80000000
  406608:	f04f 0000 	mov.w	r0, #0
  40660c:	bd70      	pop	{r4, r5, r6, pc}
  40660e:	ea50 0641 	orrs.w	r6, r0, r1, lsl #1
  406612:	bf06      	itte	eq
  406614:	4610      	moveq	r0, r2
  406616:	4619      	moveq	r1, r3
  406618:	ea52 0643 	orrsne.w	r6, r2, r3, lsl #1
  40661c:	d019      	beq.n	406652 <__aeabi_dmul+0x24a>
  40661e:	ea94 0f0c 	teq	r4, ip
  406622:	d102      	bne.n	40662a <__aeabi_dmul+0x222>
  406624:	ea50 3601 	orrs.w	r6, r0, r1, lsl #12
  406628:	d113      	bne.n	406652 <__aeabi_dmul+0x24a>
  40662a:	ea95 0f0c 	teq	r5, ip
  40662e:	d105      	bne.n	40663c <__aeabi_dmul+0x234>
  406630:	ea52 3603 	orrs.w	r6, r2, r3, lsl #12
  406634:	bf1c      	itt	ne
  406636:	4610      	movne	r0, r2
  406638:	4619      	movne	r1, r3
  40663a:	d10a      	bne.n	406652 <__aeabi_dmul+0x24a>
  40663c:	ea81 0103 	eor.w	r1, r1, r3
  406640:	f001 4100 	and.w	r1, r1, #2147483648	; 0x80000000
  406644:	f041 41fe 	orr.w	r1, r1, #2130706432	; 0x7f000000
  406648:	f441 0170 	orr.w	r1, r1, #15728640	; 0xf00000
  40664c:	f04f 0000 	mov.w	r0, #0
  406650:	bd70      	pop	{r4, r5, r6, pc}
  406652:	f041 41fe 	orr.w	r1, r1, #2130706432	; 0x7f000000
  406656:	f441 0178 	orr.w	r1, r1, #16252928	; 0xf80000
  40665a:	bd70      	pop	{r4, r5, r6, pc}

0040665c <__aeabi_ddiv>:
  40665c:	b570      	push	{r4, r5, r6, lr}
  40665e:	f04f 0cff 	mov.w	ip, #255	; 0xff
  406662:	f44c 6ce0 	orr.w	ip, ip, #1792	; 0x700
  406666:	ea1c 5411 	ands.w	r4, ip, r1, lsr #20
  40666a:	bf1d      	ittte	ne
  40666c:	ea1c 5513 	andsne.w	r5, ip, r3, lsr #20
  406670:	ea94 0f0c 	teqne	r4, ip
  406674:	ea95 0f0c 	teqne	r5, ip
  406678:	f000 f8a7 	bleq	4067ca <__aeabi_ddiv+0x16e>
  40667c:	eba4 0405 	sub.w	r4, r4, r5
  406680:	ea81 0e03 	eor.w	lr, r1, r3
  406684:	ea52 3503 	orrs.w	r5, r2, r3, lsl #12
  406688:	ea4f 3101 	mov.w	r1, r1, lsl #12
  40668c:	f000 8088 	beq.w	4067a0 <__aeabi_ddiv+0x144>
  406690:	ea4f 3303 	mov.w	r3, r3, lsl #12
  406694:	f04f 5580 	mov.w	r5, #268435456	; 0x10000000
  406698:	ea45 1313 	orr.w	r3, r5, r3, lsr #4
  40669c:	ea43 6312 	orr.w	r3, r3, r2, lsr #24
  4066a0:	ea4f 2202 	mov.w	r2, r2, lsl #8
  4066a4:	ea45 1511 	orr.w	r5, r5, r1, lsr #4
  4066a8:	ea45 6510 	orr.w	r5, r5, r0, lsr #24
  4066ac:	ea4f 2600 	mov.w	r6, r0, lsl #8
  4066b0:	f00e 4100 	and.w	r1, lr, #2147483648	; 0x80000000
  4066b4:	429d      	cmp	r5, r3
  4066b6:	bf08      	it	eq
  4066b8:	4296      	cmpeq	r6, r2
  4066ba:	f144 04fd 	adc.w	r4, r4, #253	; 0xfd
  4066be:	f504 7440 	add.w	r4, r4, #768	; 0x300
  4066c2:	d202      	bcs.n	4066ca <__aeabi_ddiv+0x6e>
  4066c4:	085b      	lsrs	r3, r3, #1
  4066c6:	ea4f 0232 	mov.w	r2, r2, rrx
  4066ca:	1ab6      	subs	r6, r6, r2
  4066cc:	eb65 0503 	sbc.w	r5, r5, r3
  4066d0:	085b      	lsrs	r3, r3, #1
  4066d2:	ea4f 0232 	mov.w	r2, r2, rrx
  4066d6:	f44f 1080 	mov.w	r0, #1048576	; 0x100000
  4066da:	f44f 2c00 	mov.w	ip, #524288	; 0x80000
  4066de:	ebb6 0e02 	subs.w	lr, r6, r2
  4066e2:	eb75 0e03 	sbcs.w	lr, r5, r3
  4066e6:	bf22      	ittt	cs
  4066e8:	1ab6      	subcs	r6, r6, r2
  4066ea:	4675      	movcs	r5, lr
  4066ec:	ea40 000c 	orrcs.w	r0, r0, ip
  4066f0:	085b      	lsrs	r3, r3, #1
  4066f2:	ea4f 0232 	mov.w	r2, r2, rrx
  4066f6:	ebb6 0e02 	subs.w	lr, r6, r2
  4066fa:	eb75 0e03 	sbcs.w	lr, r5, r3
  4066fe:	bf22      	ittt	cs
  406700:	1ab6      	subcs	r6, r6, r2
  406702:	4675      	movcs	r5, lr
  406704:	ea40 005c 	orrcs.w	r0, r0, ip, lsr #1
  406708:	085b      	lsrs	r3, r3, #1
  40670a:	ea4f 0232 	mov.w	r2, r2, rrx
  40670e:	ebb6 0e02 	subs.w	lr, r6, r2
  406712:	eb75 0e03 	sbcs.w	lr, r5, r3
  406716:	bf22      	ittt	cs
  406718:	1ab6      	subcs	r6, r6, r2
  40671a:	4675      	movcs	r5, lr
  40671c:	ea40 009c 	orrcs.w	r0, r0, ip, lsr #2
  406720:	085b      	lsrs	r3, r3, #1
  406722:	ea4f 0232 	mov.w	r2, r2, rrx
  406726:	ebb6 0e02 	subs.w	lr, r6, r2
  40672a:	eb75 0e03 	sbcs.w	lr, r5, r3
  40672e:	bf22      	ittt	cs
  406730:	1ab6      	subcs	r6, r6, r2
  406732:	4675      	movcs	r5, lr
  406734:	ea40 00dc 	orrcs.w	r0, r0, ip, lsr #3
  406738:	ea55 0e06 	orrs.w	lr, r5, r6
  40673c:	d018      	beq.n	406770 <__aeabi_ddiv+0x114>
  40673e:	ea4f 1505 	mov.w	r5, r5, lsl #4
  406742:	ea45 7516 	orr.w	r5, r5, r6, lsr #28
  406746:	ea4f 1606 	mov.w	r6, r6, lsl #4
  40674a:	ea4f 03c3 	mov.w	r3, r3, lsl #3
  40674e:	ea43 7352 	orr.w	r3, r3, r2, lsr #29
  406752:	ea4f 02c2 	mov.w	r2, r2, lsl #3
  406756:	ea5f 1c1c 	movs.w	ip, ip, lsr #4
  40675a:	d1c0      	bne.n	4066de <__aeabi_ddiv+0x82>
  40675c:	f411 1f80 	tst.w	r1, #1048576	; 0x100000
  406760:	d10b      	bne.n	40677a <__aeabi_ddiv+0x11e>
  406762:	ea41 0100 	orr.w	r1, r1, r0
  406766:	f04f 0000 	mov.w	r0, #0
  40676a:	f04f 4c00 	mov.w	ip, #2147483648	; 0x80000000
  40676e:	e7b6      	b.n	4066de <__aeabi_ddiv+0x82>
  406770:	f411 1f80 	tst.w	r1, #1048576	; 0x100000
  406774:	bf04      	itt	eq
  406776:	4301      	orreq	r1, r0
  406778:	2000      	moveq	r0, #0
  40677a:	f1b4 0cfd 	subs.w	ip, r4, #253	; 0xfd
  40677e:	bf88      	it	hi
  406780:	f5bc 6fe0 	cmphi.w	ip, #1792	; 0x700
  406784:	f63f aeaf 	bhi.w	4064e6 <__aeabi_dmul+0xde>
  406788:	ebb5 0c03 	subs.w	ip, r5, r3
  40678c:	bf04      	itt	eq
  40678e:	ebb6 0c02 	subseq.w	ip, r6, r2
  406792:	ea5f 0c50 	movseq.w	ip, r0, lsr #1
  406796:	f150 0000 	adcs.w	r0, r0, #0
  40679a:	eb41 5104 	adc.w	r1, r1, r4, lsl #20
  40679e:	bd70      	pop	{r4, r5, r6, pc}
  4067a0:	f00e 4e00 	and.w	lr, lr, #2147483648	; 0x80000000
  4067a4:	ea4e 3111 	orr.w	r1, lr, r1, lsr #12
  4067a8:	eb14 045c 	adds.w	r4, r4, ip, lsr #1
  4067ac:	bfc2      	ittt	gt
  4067ae:	ebd4 050c 	rsbsgt	r5, r4, ip
  4067b2:	ea41 5104 	orrgt.w	r1, r1, r4, lsl #20
  4067b6:	bd70      	popgt	{r4, r5, r6, pc}
  4067b8:	f441 1180 	orr.w	r1, r1, #1048576	; 0x100000
  4067bc:	f04f 0e00 	mov.w	lr, #0
  4067c0:	3c01      	subs	r4, #1
  4067c2:	e690      	b.n	4064e6 <__aeabi_dmul+0xde>
  4067c4:	ea45 0e06 	orr.w	lr, r5, r6
  4067c8:	e68d      	b.n	4064e6 <__aeabi_dmul+0xde>
  4067ca:	ea0c 5513 	and.w	r5, ip, r3, lsr #20
  4067ce:	ea94 0f0c 	teq	r4, ip
  4067d2:	bf08      	it	eq
  4067d4:	ea95 0f0c 	teqeq	r5, ip
  4067d8:	f43f af3b 	beq.w	406652 <__aeabi_dmul+0x24a>
  4067dc:	ea94 0f0c 	teq	r4, ip
  4067e0:	d10a      	bne.n	4067f8 <__aeabi_ddiv+0x19c>
  4067e2:	ea50 3401 	orrs.w	r4, r0, r1, lsl #12
  4067e6:	f47f af34 	bne.w	406652 <__aeabi_dmul+0x24a>
  4067ea:	ea95 0f0c 	teq	r5, ip
  4067ee:	f47f af25 	bne.w	40663c <__aeabi_dmul+0x234>
  4067f2:	4610      	mov	r0, r2
  4067f4:	4619      	mov	r1, r3
  4067f6:	e72c      	b.n	406652 <__aeabi_dmul+0x24a>
  4067f8:	ea95 0f0c 	teq	r5, ip
  4067fc:	d106      	bne.n	40680c <__aeabi_ddiv+0x1b0>
  4067fe:	ea52 3503 	orrs.w	r5, r2, r3, lsl #12
  406802:	f43f aefd 	beq.w	406600 <__aeabi_dmul+0x1f8>
  406806:	4610      	mov	r0, r2
  406808:	4619      	mov	r1, r3
  40680a:	e722      	b.n	406652 <__aeabi_dmul+0x24a>
  40680c:	ea50 0641 	orrs.w	r6, r0, r1, lsl #1
  406810:	bf18      	it	ne
  406812:	ea52 0643 	orrsne.w	r6, r2, r3, lsl #1
  406816:	f47f aec5 	bne.w	4065a4 <__aeabi_dmul+0x19c>
  40681a:	ea50 0441 	orrs.w	r4, r0, r1, lsl #1
  40681e:	f47f af0d 	bne.w	40663c <__aeabi_dmul+0x234>
  406822:	ea52 0543 	orrs.w	r5, r2, r3, lsl #1
  406826:	f47f aeeb 	bne.w	406600 <__aeabi_dmul+0x1f8>
  40682a:	e712      	b.n	406652 <__aeabi_dmul+0x24a>

0040682c <__gedf2>:
  40682c:	f04f 3cff 	mov.w	ip, #4294967295
  406830:	e006      	b.n	406840 <__cmpdf2+0x4>
  406832:	bf00      	nop

00406834 <__ledf2>:
  406834:	f04f 0c01 	mov.w	ip, #1
  406838:	e002      	b.n	406840 <__cmpdf2+0x4>
  40683a:	bf00      	nop

0040683c <__cmpdf2>:
  40683c:	f04f 0c01 	mov.w	ip, #1
  406840:	f84d cd04 	str.w	ip, [sp, #-4]!
  406844:	ea4f 0c41 	mov.w	ip, r1, lsl #1
  406848:	ea7f 5c6c 	mvns.w	ip, ip, asr #21
  40684c:	ea4f 0c43 	mov.w	ip, r3, lsl #1
  406850:	bf18      	it	ne
  406852:	ea7f 5c6c 	mvnsne.w	ip, ip, asr #21
  406856:	d01b      	beq.n	406890 <__cmpdf2+0x54>
  406858:	b001      	add	sp, #4
  40685a:	ea50 0c41 	orrs.w	ip, r0, r1, lsl #1
  40685e:	bf0c      	ite	eq
  406860:	ea52 0c43 	orrseq.w	ip, r2, r3, lsl #1
  406864:	ea91 0f03 	teqne	r1, r3
  406868:	bf02      	ittt	eq
  40686a:	ea90 0f02 	teqeq	r0, r2
  40686e:	2000      	moveq	r0, #0
  406870:	4770      	bxeq	lr
  406872:	f110 0f00 	cmn.w	r0, #0
  406876:	ea91 0f03 	teq	r1, r3
  40687a:	bf58      	it	pl
  40687c:	4299      	cmppl	r1, r3
  40687e:	bf08      	it	eq
  406880:	4290      	cmpeq	r0, r2
  406882:	bf2c      	ite	cs
  406884:	17d8      	asrcs	r0, r3, #31
  406886:	ea6f 70e3 	mvncc.w	r0, r3, asr #31
  40688a:	f040 0001 	orr.w	r0, r0, #1
  40688e:	4770      	bx	lr
  406890:	ea4f 0c41 	mov.w	ip, r1, lsl #1
  406894:	ea7f 5c6c 	mvns.w	ip, ip, asr #21
  406898:	d102      	bne.n	4068a0 <__cmpdf2+0x64>
  40689a:	ea50 3c01 	orrs.w	ip, r0, r1, lsl #12
  40689e:	d107      	bne.n	4068b0 <__cmpdf2+0x74>
  4068a0:	ea4f 0c43 	mov.w	ip, r3, lsl #1
  4068a4:	ea7f 5c6c 	mvns.w	ip, ip, asr #21
  4068a8:	d1d6      	bne.n	406858 <__cmpdf2+0x1c>
  4068aa:	ea52 3c03 	orrs.w	ip, r2, r3, lsl #12
  4068ae:	d0d3      	beq.n	406858 <__cmpdf2+0x1c>
  4068b0:	f85d 0b04 	ldr.w	r0, [sp], #4
  4068b4:	4770      	bx	lr
  4068b6:	bf00      	nop

004068b8 <__aeabi_cdrcmple>:
  4068b8:	4684      	mov	ip, r0
  4068ba:	4610      	mov	r0, r2
  4068bc:	4662      	mov	r2, ip
  4068be:	468c      	mov	ip, r1
  4068c0:	4619      	mov	r1, r3
  4068c2:	4663      	mov	r3, ip
  4068c4:	e000      	b.n	4068c8 <__aeabi_cdcmpeq>
  4068c6:	bf00      	nop

004068c8 <__aeabi_cdcmpeq>:
  4068c8:	b501      	push	{r0, lr}
  4068ca:	f7ff ffb7 	bl	40683c <__cmpdf2>
  4068ce:	2800      	cmp	r0, #0
  4068d0:	bf48      	it	mi
  4068d2:	f110 0f00 	cmnmi.w	r0, #0
  4068d6:	bd01      	pop	{r0, pc}

004068d8 <__aeabi_dcmpeq>:
  4068d8:	f84d ed08 	str.w	lr, [sp, #-8]!
  4068dc:	f7ff fff4 	bl	4068c8 <__aeabi_cdcmpeq>
  4068e0:	bf0c      	ite	eq
  4068e2:	2001      	moveq	r0, #1
  4068e4:	2000      	movne	r0, #0
  4068e6:	f85d fb08 	ldr.w	pc, [sp], #8
  4068ea:	bf00      	nop

004068ec <__aeabi_dcmplt>:
  4068ec:	f84d ed08 	str.w	lr, [sp, #-8]!
  4068f0:	f7ff ffea 	bl	4068c8 <__aeabi_cdcmpeq>
  4068f4:	bf34      	ite	cc
  4068f6:	2001      	movcc	r0, #1
  4068f8:	2000      	movcs	r0, #0
  4068fa:	f85d fb08 	ldr.w	pc, [sp], #8
  4068fe:	bf00      	nop

00406900 <__aeabi_dcmple>:
  406900:	f84d ed08 	str.w	lr, [sp, #-8]!
  406904:	f7ff ffe0 	bl	4068c8 <__aeabi_cdcmpeq>
  406908:	bf94      	ite	ls
  40690a:	2001      	movls	r0, #1
  40690c:	2000      	movhi	r0, #0
  40690e:	f85d fb08 	ldr.w	pc, [sp], #8
  406912:	bf00      	nop

00406914 <__aeabi_dcmpge>:
  406914:	f84d ed08 	str.w	lr, [sp, #-8]!
  406918:	f7ff ffce 	bl	4068b8 <__aeabi_cdrcmple>
  40691c:	bf94      	ite	ls
  40691e:	2001      	movls	r0, #1
  406920:	2000      	movhi	r0, #0
  406922:	f85d fb08 	ldr.w	pc, [sp], #8
  406926:	bf00      	nop

00406928 <__aeabi_dcmpgt>:
  406928:	f84d ed08 	str.w	lr, [sp, #-8]!
  40692c:	f7ff ffc4 	bl	4068b8 <__aeabi_cdrcmple>
  406930:	bf34      	ite	cc
  406932:	2001      	movcc	r0, #1
  406934:	2000      	movcs	r0, #0
  406936:	f85d fb08 	ldr.w	pc, [sp], #8
  40693a:	bf00      	nop

0040693c <__aeabi_dcmpun>:
  40693c:	ea4f 0c41 	mov.w	ip, r1, lsl #1
  406940:	ea7f 5c6c 	mvns.w	ip, ip, asr #21
  406944:	d102      	bne.n	40694c <__aeabi_dcmpun+0x10>
  406946:	ea50 3c01 	orrs.w	ip, r0, r1, lsl #12
  40694a:	d10a      	bne.n	406962 <__aeabi_dcmpun+0x26>
  40694c:	ea4f 0c43 	mov.w	ip, r3, lsl #1
  406950:	ea7f 5c6c 	mvns.w	ip, ip, asr #21
  406954:	d102      	bne.n	40695c <__aeabi_dcmpun+0x20>
  406956:	ea52 3c03 	orrs.w	ip, r2, r3, lsl #12
  40695a:	d102      	bne.n	406962 <__aeabi_dcmpun+0x26>
  40695c:	f04f 0000 	mov.w	r0, #0
  406960:	4770      	bx	lr
  406962:	f04f 0001 	mov.w	r0, #1
  406966:	4770      	bx	lr

00406968 <__aeabi_d2f>:
  406968:	ea4f 0241 	mov.w	r2, r1, lsl #1
  40696c:	f1b2 43e0 	subs.w	r3, r2, #1879048192	; 0x70000000
  406970:	bf24      	itt	cs
  406972:	f5b3 1c00 	subscs.w	ip, r3, #2097152	; 0x200000
  406976:	f1dc 5cfe 	rsbscs	ip, ip, #532676608	; 0x1fc00000
  40697a:	d90d      	bls.n	406998 <__aeabi_d2f+0x30>
  40697c:	f001 4c00 	and.w	ip, r1, #2147483648	; 0x80000000
  406980:	ea4f 02c0 	mov.w	r2, r0, lsl #3
  406984:	ea4c 7050 	orr.w	r0, ip, r0, lsr #29
  406988:	f1b2 4f00 	cmp.w	r2, #2147483648	; 0x80000000
  40698c:	eb40 0083 	adc.w	r0, r0, r3, lsl #2
  406990:	bf08      	it	eq
  406992:	f020 0001 	biceq.w	r0, r0, #1
  406996:	4770      	bx	lr
  406998:	f011 4f80 	tst.w	r1, #1073741824	; 0x40000000
  40699c:	d121      	bne.n	4069e2 <__aeabi_d2f+0x7a>
  40699e:	f113 7238 	adds.w	r2, r3, #48234496	; 0x2e00000
  4069a2:	bfbc      	itt	lt
  4069a4:	f001 4000 	andlt.w	r0, r1, #2147483648	; 0x80000000
  4069a8:	4770      	bxlt	lr
  4069aa:	f441 1180 	orr.w	r1, r1, #1048576	; 0x100000
  4069ae:	ea4f 5252 	mov.w	r2, r2, lsr #21
  4069b2:	f1c2 0218 	rsb	r2, r2, #24
  4069b6:	f1c2 0c20 	rsb	ip, r2, #32
  4069ba:	fa10 f30c 	lsls.w	r3, r0, ip
  4069be:	fa20 f002 	lsr.w	r0, r0, r2
  4069c2:	bf18      	it	ne
  4069c4:	f040 0001 	orrne.w	r0, r0, #1
  4069c8:	ea4f 23c1 	mov.w	r3, r1, lsl #11
  4069cc:	ea4f 23d3 	mov.w	r3, r3, lsr #11
  4069d0:	fa03 fc0c 	lsl.w	ip, r3, ip
  4069d4:	ea40 000c 	orr.w	r0, r0, ip
  4069d8:	fa23 f302 	lsr.w	r3, r3, r2
  4069dc:	ea4f 0343 	mov.w	r3, r3, lsl #1
  4069e0:	e7cc      	b.n	40697c <__aeabi_d2f+0x14>
  4069e2:	ea7f 5362 	mvns.w	r3, r2, asr #21
  4069e6:	d107      	bne.n	4069f8 <__aeabi_d2f+0x90>
  4069e8:	ea50 3301 	orrs.w	r3, r0, r1, lsl #12
  4069ec:	bf1e      	ittt	ne
  4069ee:	f04f 40fe 	movne.w	r0, #2130706432	; 0x7f000000
  4069f2:	f440 0040 	orrne.w	r0, r0, #12582912	; 0xc00000
  4069f6:	4770      	bxne	lr
  4069f8:	f001 4000 	and.w	r0, r1, #2147483648	; 0x80000000
  4069fc:	f040 40fe 	orr.w	r0, r0, #2130706432	; 0x7f000000
  406a00:	f440 0000 	orr.w	r0, r0, #8388608	; 0x800000
  406a04:	4770      	bx	lr
  406a06:	bf00      	nop

00406a08 <__aeabi_frsub>:
  406a08:	f080 4000 	eor.w	r0, r0, #2147483648	; 0x80000000
  406a0c:	e002      	b.n	406a14 <__addsf3>
  406a0e:	bf00      	nop

00406a10 <__aeabi_fsub>:
  406a10:	f081 4100 	eor.w	r1, r1, #2147483648	; 0x80000000

00406a14 <__addsf3>:
  406a14:	0042      	lsls	r2, r0, #1
  406a16:	bf1f      	itttt	ne
  406a18:	ea5f 0341 	movsne.w	r3, r1, lsl #1
  406a1c:	ea92 0f03 	teqne	r2, r3
  406a20:	ea7f 6c22 	mvnsne.w	ip, r2, asr #24
  406a24:	ea7f 6c23 	mvnsne.w	ip, r3, asr #24
  406a28:	d06a      	beq.n	406b00 <__addsf3+0xec>
  406a2a:	ea4f 6212 	mov.w	r2, r2, lsr #24
  406a2e:	ebd2 6313 	rsbs	r3, r2, r3, lsr #24
  406a32:	bfc1      	itttt	gt
  406a34:	18d2      	addgt	r2, r2, r3
  406a36:	4041      	eorgt	r1, r0
  406a38:	4048      	eorgt	r0, r1
  406a3a:	4041      	eorgt	r1, r0
  406a3c:	bfb8      	it	lt
  406a3e:	425b      	neglt	r3, r3
  406a40:	2b19      	cmp	r3, #25
  406a42:	bf88      	it	hi
  406a44:	4770      	bxhi	lr
  406a46:	f010 4f00 	tst.w	r0, #2147483648	; 0x80000000
  406a4a:	f440 0000 	orr.w	r0, r0, #8388608	; 0x800000
  406a4e:	f020 407f 	bic.w	r0, r0, #4278190080	; 0xff000000
  406a52:	bf18      	it	ne
  406a54:	4240      	negne	r0, r0
  406a56:	f011 4f00 	tst.w	r1, #2147483648	; 0x80000000
  406a5a:	f441 0100 	orr.w	r1, r1, #8388608	; 0x800000
  406a5e:	f021 417f 	bic.w	r1, r1, #4278190080	; 0xff000000
  406a62:	bf18      	it	ne
  406a64:	4249      	negne	r1, r1
  406a66:	ea92 0f03 	teq	r2, r3
  406a6a:	d03f      	beq.n	406aec <__addsf3+0xd8>
  406a6c:	f1a2 0201 	sub.w	r2, r2, #1
  406a70:	fa41 fc03 	asr.w	ip, r1, r3
  406a74:	eb10 000c 	adds.w	r0, r0, ip
  406a78:	f1c3 0320 	rsb	r3, r3, #32
  406a7c:	fa01 f103 	lsl.w	r1, r1, r3
  406a80:	f000 4300 	and.w	r3, r0, #2147483648	; 0x80000000
  406a84:	d502      	bpl.n	406a8c <__addsf3+0x78>
  406a86:	4249      	negs	r1, r1
  406a88:	eb60 0040 	sbc.w	r0, r0, r0, lsl #1
  406a8c:	f5b0 0f00 	cmp.w	r0, #8388608	; 0x800000
  406a90:	d313      	bcc.n	406aba <__addsf3+0xa6>
  406a92:	f1b0 7f80 	cmp.w	r0, #16777216	; 0x1000000
  406a96:	d306      	bcc.n	406aa6 <__addsf3+0x92>
  406a98:	0840      	lsrs	r0, r0, #1
  406a9a:	ea4f 0131 	mov.w	r1, r1, rrx
  406a9e:	f102 0201 	add.w	r2, r2, #1
  406aa2:	2afe      	cmp	r2, #254	; 0xfe
  406aa4:	d251      	bcs.n	406b4a <__addsf3+0x136>
  406aa6:	f1b1 4f00 	cmp.w	r1, #2147483648	; 0x80000000
  406aaa:	eb40 50c2 	adc.w	r0, r0, r2, lsl #23
  406aae:	bf08      	it	eq
  406ab0:	f020 0001 	biceq.w	r0, r0, #1
  406ab4:	ea40 0003 	orr.w	r0, r0, r3
  406ab8:	4770      	bx	lr
  406aba:	0049      	lsls	r1, r1, #1
  406abc:	eb40 0000 	adc.w	r0, r0, r0
  406ac0:	f410 0f00 	tst.w	r0, #8388608	; 0x800000
  406ac4:	f1a2 0201 	sub.w	r2, r2, #1
  406ac8:	d1ed      	bne.n	406aa6 <__addsf3+0x92>
  406aca:	fab0 fc80 	clz	ip, r0
  406ace:	f1ac 0c08 	sub.w	ip, ip, #8
  406ad2:	ebb2 020c 	subs.w	r2, r2, ip
  406ad6:	fa00 f00c 	lsl.w	r0, r0, ip
  406ada:	bfaa      	itet	ge
  406adc:	eb00 50c2 	addge.w	r0, r0, r2, lsl #23
  406ae0:	4252      	neglt	r2, r2
  406ae2:	4318      	orrge	r0, r3
  406ae4:	bfbc      	itt	lt
  406ae6:	40d0      	lsrlt	r0, r2
  406ae8:	4318      	orrlt	r0, r3
  406aea:	4770      	bx	lr
  406aec:	f092 0f00 	teq	r2, #0
  406af0:	f481 0100 	eor.w	r1, r1, #8388608	; 0x800000
  406af4:	bf06      	itte	eq
  406af6:	f480 0000 	eoreq.w	r0, r0, #8388608	; 0x800000
  406afa:	3201      	addeq	r2, #1
  406afc:	3b01      	subne	r3, #1
  406afe:	e7b5      	b.n	406a6c <__addsf3+0x58>
  406b00:	ea4f 0341 	mov.w	r3, r1, lsl #1
  406b04:	ea7f 6c22 	mvns.w	ip, r2, asr #24
  406b08:	bf18      	it	ne
  406b0a:	ea7f 6c23 	mvnsne.w	ip, r3, asr #24
  406b0e:	d021      	beq.n	406b54 <__addsf3+0x140>
  406b10:	ea92 0f03 	teq	r2, r3
  406b14:	d004      	beq.n	406b20 <__addsf3+0x10c>
  406b16:	f092 0f00 	teq	r2, #0
  406b1a:	bf08      	it	eq
  406b1c:	4608      	moveq	r0, r1
  406b1e:	4770      	bx	lr
  406b20:	ea90 0f01 	teq	r0, r1
  406b24:	bf1c      	itt	ne
  406b26:	2000      	movne	r0, #0
  406b28:	4770      	bxne	lr
  406b2a:	f012 4f7f 	tst.w	r2, #4278190080	; 0xff000000
  406b2e:	d104      	bne.n	406b3a <__addsf3+0x126>
  406b30:	0040      	lsls	r0, r0, #1
  406b32:	bf28      	it	cs
  406b34:	f040 4000 	orrcs.w	r0, r0, #2147483648	; 0x80000000
  406b38:	4770      	bx	lr
  406b3a:	f112 7200 	adds.w	r2, r2, #33554432	; 0x2000000
  406b3e:	bf3c      	itt	cc
  406b40:	f500 0000 	addcc.w	r0, r0, #8388608	; 0x800000
  406b44:	4770      	bxcc	lr
  406b46:	f000 4300 	and.w	r3, r0, #2147483648	; 0x80000000
  406b4a:	f043 40fe 	orr.w	r0, r3, #2130706432	; 0x7f000000
  406b4e:	f440 0000 	orr.w	r0, r0, #8388608	; 0x800000
  406b52:	4770      	bx	lr
  406b54:	ea7f 6222 	mvns.w	r2, r2, asr #24
  406b58:	bf16      	itet	ne
  406b5a:	4608      	movne	r0, r1
  406b5c:	ea7f 6323 	mvnseq.w	r3, r3, asr #24
  406b60:	4601      	movne	r1, r0
  406b62:	0242      	lsls	r2, r0, #9
  406b64:	bf06      	itte	eq
  406b66:	ea5f 2341 	movseq.w	r3, r1, lsl #9
  406b6a:	ea90 0f01 	teqeq	r0, r1
  406b6e:	f440 0080 	orrne.w	r0, r0, #4194304	; 0x400000
  406b72:	4770      	bx	lr

00406b74 <__aeabi_ui2f>:
  406b74:	f04f 0300 	mov.w	r3, #0
  406b78:	e004      	b.n	406b84 <__aeabi_i2f+0x8>
  406b7a:	bf00      	nop

00406b7c <__aeabi_i2f>:
  406b7c:	f010 4300 	ands.w	r3, r0, #2147483648	; 0x80000000
  406b80:	bf48      	it	mi
  406b82:	4240      	negmi	r0, r0
  406b84:	ea5f 0c00 	movs.w	ip, r0
  406b88:	bf08      	it	eq
  406b8a:	4770      	bxeq	lr
  406b8c:	f043 4396 	orr.w	r3, r3, #1258291200	; 0x4b000000
  406b90:	4601      	mov	r1, r0
  406b92:	f04f 0000 	mov.w	r0, #0
  406b96:	e01c      	b.n	406bd2 <__aeabi_l2f+0x2a>

00406b98 <__aeabi_ul2f>:
  406b98:	ea50 0201 	orrs.w	r2, r0, r1
  406b9c:	bf08      	it	eq
  406b9e:	4770      	bxeq	lr
  406ba0:	f04f 0300 	mov.w	r3, #0
  406ba4:	e00a      	b.n	406bbc <__aeabi_l2f+0x14>
  406ba6:	bf00      	nop

00406ba8 <__aeabi_l2f>:
  406ba8:	ea50 0201 	orrs.w	r2, r0, r1
  406bac:	bf08      	it	eq
  406bae:	4770      	bxeq	lr
  406bb0:	f011 4300 	ands.w	r3, r1, #2147483648	; 0x80000000
  406bb4:	d502      	bpl.n	406bbc <__aeabi_l2f+0x14>
  406bb6:	4240      	negs	r0, r0
  406bb8:	eb61 0141 	sbc.w	r1, r1, r1, lsl #1
  406bbc:	ea5f 0c01 	movs.w	ip, r1
  406bc0:	bf02      	ittt	eq
  406bc2:	4684      	moveq	ip, r0
  406bc4:	4601      	moveq	r1, r0
  406bc6:	2000      	moveq	r0, #0
  406bc8:	f043 43b6 	orr.w	r3, r3, #1526726656	; 0x5b000000
  406bcc:	bf08      	it	eq
  406bce:	f1a3 5380 	subeq.w	r3, r3, #268435456	; 0x10000000
  406bd2:	f5a3 0300 	sub.w	r3, r3, #8388608	; 0x800000
  406bd6:	fabc f28c 	clz	r2, ip
  406bda:	3a08      	subs	r2, #8
  406bdc:	eba3 53c2 	sub.w	r3, r3, r2, lsl #23
  406be0:	db10      	blt.n	406c04 <__aeabi_l2f+0x5c>
  406be2:	fa01 fc02 	lsl.w	ip, r1, r2
  406be6:	4463      	add	r3, ip
  406be8:	fa00 fc02 	lsl.w	ip, r0, r2
  406bec:	f1c2 0220 	rsb	r2, r2, #32
  406bf0:	f1bc 4f00 	cmp.w	ip, #2147483648	; 0x80000000
  406bf4:	fa20 f202 	lsr.w	r2, r0, r2
  406bf8:	eb43 0002 	adc.w	r0, r3, r2
  406bfc:	bf08      	it	eq
  406bfe:	f020 0001 	biceq.w	r0, r0, #1
  406c02:	4770      	bx	lr
  406c04:	f102 0220 	add.w	r2, r2, #32
  406c08:	fa01 fc02 	lsl.w	ip, r1, r2
  406c0c:	f1c2 0220 	rsb	r2, r2, #32
  406c10:	ea50 004c 	orrs.w	r0, r0, ip, lsl #1
  406c14:	fa21 f202 	lsr.w	r2, r1, r2
  406c18:	eb43 0002 	adc.w	r0, r3, r2
  406c1c:	bf08      	it	eq
  406c1e:	ea20 70dc 	biceq.w	r0, r0, ip, lsr #31
  406c22:	4770      	bx	lr

00406c24 <__aeabi_fmul>:
  406c24:	f04f 0cff 	mov.w	ip, #255	; 0xff
  406c28:	ea1c 52d0 	ands.w	r2, ip, r0, lsr #23
  406c2c:	bf1e      	ittt	ne
  406c2e:	ea1c 53d1 	andsne.w	r3, ip, r1, lsr #23
  406c32:	ea92 0f0c 	teqne	r2, ip
  406c36:	ea93 0f0c 	teqne	r3, ip
  406c3a:	d06f      	beq.n	406d1c <__aeabi_fmul+0xf8>
  406c3c:	441a      	add	r2, r3
  406c3e:	ea80 0c01 	eor.w	ip, r0, r1
  406c42:	0240      	lsls	r0, r0, #9
  406c44:	bf18      	it	ne
  406c46:	ea5f 2141 	movsne.w	r1, r1, lsl #9
  406c4a:	d01e      	beq.n	406c8a <__aeabi_fmul+0x66>
  406c4c:	f04f 6300 	mov.w	r3, #134217728	; 0x8000000
  406c50:	ea43 1050 	orr.w	r0, r3, r0, lsr #5
  406c54:	ea43 1151 	orr.w	r1, r3, r1, lsr #5
  406c58:	fba0 3101 	umull	r3, r1, r0, r1
  406c5c:	f00c 4000 	and.w	r0, ip, #2147483648	; 0x80000000
  406c60:	f5b1 0f00 	cmp.w	r1, #8388608	; 0x800000
  406c64:	bf3e      	ittt	cc
  406c66:	0049      	lslcc	r1, r1, #1
  406c68:	ea41 71d3 	orrcc.w	r1, r1, r3, lsr #31
  406c6c:	005b      	lslcc	r3, r3, #1
  406c6e:	ea40 0001 	orr.w	r0, r0, r1
  406c72:	f162 027f 	sbc.w	r2, r2, #127	; 0x7f
  406c76:	2afd      	cmp	r2, #253	; 0xfd
  406c78:	d81d      	bhi.n	406cb6 <__aeabi_fmul+0x92>
  406c7a:	f1b3 4f00 	cmp.w	r3, #2147483648	; 0x80000000
  406c7e:	eb40 50c2 	adc.w	r0, r0, r2, lsl #23
  406c82:	bf08      	it	eq
  406c84:	f020 0001 	biceq.w	r0, r0, #1
  406c88:	4770      	bx	lr
  406c8a:	f090 0f00 	teq	r0, #0
  406c8e:	f00c 4c00 	and.w	ip, ip, #2147483648	; 0x80000000
  406c92:	bf08      	it	eq
  406c94:	0249      	lsleq	r1, r1, #9
  406c96:	ea4c 2050 	orr.w	r0, ip, r0, lsr #9
  406c9a:	ea40 2051 	orr.w	r0, r0, r1, lsr #9
  406c9e:	3a7f      	subs	r2, #127	; 0x7f
  406ca0:	bfc2      	ittt	gt
  406ca2:	f1d2 03ff 	rsbsgt	r3, r2, #255	; 0xff
  406ca6:	ea40 50c2 	orrgt.w	r0, r0, r2, lsl #23
  406caa:	4770      	bxgt	lr
  406cac:	f440 0000 	orr.w	r0, r0, #8388608	; 0x800000
  406cb0:	f04f 0300 	mov.w	r3, #0
  406cb4:	3a01      	subs	r2, #1
  406cb6:	dc5d      	bgt.n	406d74 <__aeabi_fmul+0x150>
  406cb8:	f112 0f19 	cmn.w	r2, #25
  406cbc:	bfdc      	itt	le
  406cbe:	f000 4000 	andle.w	r0, r0, #2147483648	; 0x80000000
  406cc2:	4770      	bxle	lr
  406cc4:	f1c2 0200 	rsb	r2, r2, #0
  406cc8:	0041      	lsls	r1, r0, #1
  406cca:	fa21 f102 	lsr.w	r1, r1, r2
  406cce:	f1c2 0220 	rsb	r2, r2, #32
  406cd2:	fa00 fc02 	lsl.w	ip, r0, r2
  406cd6:	ea5f 0031 	movs.w	r0, r1, rrx
  406cda:	f140 0000 	adc.w	r0, r0, #0
  406cde:	ea53 034c 	orrs.w	r3, r3, ip, lsl #1
  406ce2:	bf08      	it	eq
  406ce4:	ea20 70dc 	biceq.w	r0, r0, ip, lsr #31
  406ce8:	4770      	bx	lr
  406cea:	f092 0f00 	teq	r2, #0
  406cee:	f000 4c00 	and.w	ip, r0, #2147483648	; 0x80000000
  406cf2:	bf02      	ittt	eq
  406cf4:	0040      	lsleq	r0, r0, #1
  406cf6:	f410 0f00 	tsteq.w	r0, #8388608	; 0x800000
  406cfa:	3a01      	subeq	r2, #1
  406cfc:	d0f9      	beq.n	406cf2 <__aeabi_fmul+0xce>
  406cfe:	ea40 000c 	orr.w	r0, r0, ip
  406d02:	f093 0f00 	teq	r3, #0
  406d06:	f001 4c00 	and.w	ip, r1, #2147483648	; 0x80000000
  406d0a:	bf02      	ittt	eq
  406d0c:	0049      	lsleq	r1, r1, #1
  406d0e:	f411 0f00 	tsteq.w	r1, #8388608	; 0x800000
  406d12:	3b01      	subeq	r3, #1
  406d14:	d0f9      	beq.n	406d0a <__aeabi_fmul+0xe6>
  406d16:	ea41 010c 	orr.w	r1, r1, ip
  406d1a:	e78f      	b.n	406c3c <__aeabi_fmul+0x18>
  406d1c:	ea0c 53d1 	and.w	r3, ip, r1, lsr #23
  406d20:	ea92 0f0c 	teq	r2, ip
  406d24:	bf18      	it	ne
  406d26:	ea93 0f0c 	teqne	r3, ip
  406d2a:	d00a      	beq.n	406d42 <__aeabi_fmul+0x11e>
  406d2c:	f030 4c00 	bics.w	ip, r0, #2147483648	; 0x80000000
  406d30:	bf18      	it	ne
  406d32:	f031 4c00 	bicsne.w	ip, r1, #2147483648	; 0x80000000
  406d36:	d1d8      	bne.n	406cea <__aeabi_fmul+0xc6>
  406d38:	ea80 0001 	eor.w	r0, r0, r1
  406d3c:	f000 4000 	and.w	r0, r0, #2147483648	; 0x80000000
  406d40:	4770      	bx	lr
  406d42:	f090 0f00 	teq	r0, #0
  406d46:	bf17      	itett	ne
  406d48:	f090 4f00 	teqne	r0, #2147483648	; 0x80000000
  406d4c:	4608      	moveq	r0, r1
  406d4e:	f091 0f00 	teqne	r1, #0
  406d52:	f091 4f00 	teqne	r1, #2147483648	; 0x80000000
  406d56:	d014      	beq.n	406d82 <__aeabi_fmul+0x15e>
  406d58:	ea92 0f0c 	teq	r2, ip
  406d5c:	d101      	bne.n	406d62 <__aeabi_fmul+0x13e>
  406d5e:	0242      	lsls	r2, r0, #9
  406d60:	d10f      	bne.n	406d82 <__aeabi_fmul+0x15e>
  406d62:	ea93 0f0c 	teq	r3, ip
  406d66:	d103      	bne.n	406d70 <__aeabi_fmul+0x14c>
  406d68:	024b      	lsls	r3, r1, #9
  406d6a:	bf18      	it	ne
  406d6c:	4608      	movne	r0, r1
  406d6e:	d108      	bne.n	406d82 <__aeabi_fmul+0x15e>
  406d70:	ea80 0001 	eor.w	r0, r0, r1
  406d74:	f000 4000 	and.w	r0, r0, #2147483648	; 0x80000000
  406d78:	f040 40fe 	orr.w	r0, r0, #2130706432	; 0x7f000000
  406d7c:	f440 0000 	orr.w	r0, r0, #8388608	; 0x800000
  406d80:	4770      	bx	lr
  406d82:	f040 40fe 	orr.w	r0, r0, #2130706432	; 0x7f000000
  406d86:	f440 0040 	orr.w	r0, r0, #12582912	; 0xc00000
  406d8a:	4770      	bx	lr

00406d8c <__aeabi_fdiv>:
  406d8c:	f04f 0cff 	mov.w	ip, #255	; 0xff
  406d90:	ea1c 52d0 	ands.w	r2, ip, r0, lsr #23
  406d94:	bf1e      	ittt	ne
  406d96:	ea1c 53d1 	andsne.w	r3, ip, r1, lsr #23
  406d9a:	ea92 0f0c 	teqne	r2, ip
  406d9e:	ea93 0f0c 	teqne	r3, ip
  406da2:	d069      	beq.n	406e78 <__aeabi_fdiv+0xec>
  406da4:	eba2 0203 	sub.w	r2, r2, r3
  406da8:	ea80 0c01 	eor.w	ip, r0, r1
  406dac:	0249      	lsls	r1, r1, #9
  406dae:	ea4f 2040 	mov.w	r0, r0, lsl #9
  406db2:	d037      	beq.n	406e24 <__aeabi_fdiv+0x98>
  406db4:	f04f 5380 	mov.w	r3, #268435456	; 0x10000000
  406db8:	ea43 1111 	orr.w	r1, r3, r1, lsr #4
  406dbc:	ea43 1310 	orr.w	r3, r3, r0, lsr #4
  406dc0:	f00c 4000 	and.w	r0, ip, #2147483648	; 0x80000000
  406dc4:	428b      	cmp	r3, r1
  406dc6:	bf38      	it	cc
  406dc8:	005b      	lslcc	r3, r3, #1
  406dca:	f142 027d 	adc.w	r2, r2, #125	; 0x7d
  406dce:	f44f 0c00 	mov.w	ip, #8388608	; 0x800000
  406dd2:	428b      	cmp	r3, r1
  406dd4:	bf24      	itt	cs
  406dd6:	1a5b      	subcs	r3, r3, r1
  406dd8:	ea40 000c 	orrcs.w	r0, r0, ip
  406ddc:	ebb3 0f51 	cmp.w	r3, r1, lsr #1
  406de0:	bf24      	itt	cs
  406de2:	eba3 0351 	subcs.w	r3, r3, r1, lsr #1
  406de6:	ea40 005c 	orrcs.w	r0, r0, ip, lsr #1
  406dea:	ebb3 0f91 	cmp.w	r3, r1, lsr #2
  406dee:	bf24      	itt	cs
  406df0:	eba3 0391 	subcs.w	r3, r3, r1, lsr #2
  406df4:	ea40 009c 	orrcs.w	r0, r0, ip, lsr #2
  406df8:	ebb3 0fd1 	cmp.w	r3, r1, lsr #3
  406dfc:	bf24      	itt	cs
  406dfe:	eba3 03d1 	subcs.w	r3, r3, r1, lsr #3
  406e02:	ea40 00dc 	orrcs.w	r0, r0, ip, lsr #3
  406e06:	011b      	lsls	r3, r3, #4
  406e08:	bf18      	it	ne
  406e0a:	ea5f 1c1c 	movsne.w	ip, ip, lsr #4
  406e0e:	d1e0      	bne.n	406dd2 <__aeabi_fdiv+0x46>
  406e10:	2afd      	cmp	r2, #253	; 0xfd
  406e12:	f63f af50 	bhi.w	406cb6 <__aeabi_fmul+0x92>
  406e16:	428b      	cmp	r3, r1
  406e18:	eb40 50c2 	adc.w	r0, r0, r2, lsl #23
  406e1c:	bf08      	it	eq
  406e1e:	f020 0001 	biceq.w	r0, r0, #1
  406e22:	4770      	bx	lr
  406e24:	f00c 4c00 	and.w	ip, ip, #2147483648	; 0x80000000
  406e28:	ea4c 2050 	orr.w	r0, ip, r0, lsr #9
  406e2c:	327f      	adds	r2, #127	; 0x7f
  406e2e:	bfc2      	ittt	gt
  406e30:	f1d2 03ff 	rsbsgt	r3, r2, #255	; 0xff
  406e34:	ea40 50c2 	orrgt.w	r0, r0, r2, lsl #23
  406e38:	4770      	bxgt	lr
  406e3a:	f440 0000 	orr.w	r0, r0, #8388608	; 0x800000
  406e3e:	f04f 0300 	mov.w	r3, #0
  406e42:	3a01      	subs	r2, #1
  406e44:	e737      	b.n	406cb6 <__aeabi_fmul+0x92>
  406e46:	f092 0f00 	teq	r2, #0
  406e4a:	f000 4c00 	and.w	ip, r0, #2147483648	; 0x80000000
  406e4e:	bf02      	ittt	eq
  406e50:	0040      	lsleq	r0, r0, #1
  406e52:	f410 0f00 	tsteq.w	r0, #8388608	; 0x800000
  406e56:	3a01      	subeq	r2, #1
  406e58:	d0f9      	beq.n	406e4e <__aeabi_fdiv+0xc2>
  406e5a:	ea40 000c 	orr.w	r0, r0, ip
  406e5e:	f093 0f00 	teq	r3, #0
  406e62:	f001 4c00 	and.w	ip, r1, #2147483648	; 0x80000000
  406e66:	bf02      	ittt	eq
  406e68:	0049      	lsleq	r1, r1, #1
  406e6a:	f411 0f00 	tsteq.w	r1, #8388608	; 0x800000
  406e6e:	3b01      	subeq	r3, #1
  406e70:	d0f9      	beq.n	406e66 <__aeabi_fdiv+0xda>
  406e72:	ea41 010c 	orr.w	r1, r1, ip
  406e76:	e795      	b.n	406da4 <__aeabi_fdiv+0x18>
  406e78:	ea0c 53d1 	and.w	r3, ip, r1, lsr #23
  406e7c:	ea92 0f0c 	teq	r2, ip
  406e80:	d108      	bne.n	406e94 <__aeabi_fdiv+0x108>
  406e82:	0242      	lsls	r2, r0, #9
  406e84:	f47f af7d 	bne.w	406d82 <__aeabi_fmul+0x15e>
  406e88:	ea93 0f0c 	teq	r3, ip
  406e8c:	f47f af70 	bne.w	406d70 <__aeabi_fmul+0x14c>
  406e90:	4608      	mov	r0, r1
  406e92:	e776      	b.n	406d82 <__aeabi_fmul+0x15e>
  406e94:	ea93 0f0c 	teq	r3, ip
  406e98:	d104      	bne.n	406ea4 <__aeabi_fdiv+0x118>
  406e9a:	024b      	lsls	r3, r1, #9
  406e9c:	f43f af4c 	beq.w	406d38 <__aeabi_fmul+0x114>
  406ea0:	4608      	mov	r0, r1
  406ea2:	e76e      	b.n	406d82 <__aeabi_fmul+0x15e>
  406ea4:	f030 4c00 	bics.w	ip, r0, #2147483648	; 0x80000000
  406ea8:	bf18      	it	ne
  406eaa:	f031 4c00 	bicsne.w	ip, r1, #2147483648	; 0x80000000
  406eae:	d1ca      	bne.n	406e46 <__aeabi_fdiv+0xba>
  406eb0:	f030 4200 	bics.w	r2, r0, #2147483648	; 0x80000000
  406eb4:	f47f af5c 	bne.w	406d70 <__aeabi_fmul+0x14c>
  406eb8:	f031 4300 	bics.w	r3, r1, #2147483648	; 0x80000000
  406ebc:	f47f af3c 	bne.w	406d38 <__aeabi_fmul+0x114>
  406ec0:	e75f      	b.n	406d82 <__aeabi_fmul+0x15e>
  406ec2:	bf00      	nop

00406ec4 <__gesf2>:
  406ec4:	f04f 3cff 	mov.w	ip, #4294967295
  406ec8:	e006      	b.n	406ed8 <__cmpsf2+0x4>
  406eca:	bf00      	nop

00406ecc <__lesf2>:
  406ecc:	f04f 0c01 	mov.w	ip, #1
  406ed0:	e002      	b.n	406ed8 <__cmpsf2+0x4>
  406ed2:	bf00      	nop

00406ed4 <__cmpsf2>:
  406ed4:	f04f 0c01 	mov.w	ip, #1
  406ed8:	f84d cd04 	str.w	ip, [sp, #-4]!
  406edc:	ea4f 0240 	mov.w	r2, r0, lsl #1
  406ee0:	ea4f 0341 	mov.w	r3, r1, lsl #1
  406ee4:	ea7f 6c22 	mvns.w	ip, r2, asr #24
  406ee8:	bf18      	it	ne
  406eea:	ea7f 6c23 	mvnsne.w	ip, r3, asr #24
  406eee:	d011      	beq.n	406f14 <__cmpsf2+0x40>
  406ef0:	b001      	add	sp, #4
  406ef2:	ea52 0c53 	orrs.w	ip, r2, r3, lsr #1
  406ef6:	bf18      	it	ne
  406ef8:	ea90 0f01 	teqne	r0, r1
  406efc:	bf58      	it	pl
  406efe:	ebb2 0003 	subspl.w	r0, r2, r3
  406f02:	bf88      	it	hi
  406f04:	17c8      	asrhi	r0, r1, #31
  406f06:	bf38      	it	cc
  406f08:	ea6f 70e1 	mvncc.w	r0, r1, asr #31
  406f0c:	bf18      	it	ne
  406f0e:	f040 0001 	orrne.w	r0, r0, #1
  406f12:	4770      	bx	lr
  406f14:	ea7f 6c22 	mvns.w	ip, r2, asr #24
  406f18:	d102      	bne.n	406f20 <__cmpsf2+0x4c>
  406f1a:	ea5f 2c40 	movs.w	ip, r0, lsl #9
  406f1e:	d105      	bne.n	406f2c <__cmpsf2+0x58>
  406f20:	ea7f 6c23 	mvns.w	ip, r3, asr #24
  406f24:	d1e4      	bne.n	406ef0 <__cmpsf2+0x1c>
  406f26:	ea5f 2c41 	movs.w	ip, r1, lsl #9
  406f2a:	d0e1      	beq.n	406ef0 <__cmpsf2+0x1c>
  406f2c:	f85d 0b04 	ldr.w	r0, [sp], #4
  406f30:	4770      	bx	lr
  406f32:	bf00      	nop

00406f34 <__aeabi_cfrcmple>:
  406f34:	4684      	mov	ip, r0
  406f36:	4608      	mov	r0, r1
  406f38:	4661      	mov	r1, ip
  406f3a:	e7ff      	b.n	406f3c <__aeabi_cfcmpeq>

00406f3c <__aeabi_cfcmpeq>:
  406f3c:	b50f      	push	{r0, r1, r2, r3, lr}
  406f3e:	f7ff ffc9 	bl	406ed4 <__cmpsf2>
  406f42:	2800      	cmp	r0, #0
  406f44:	bf48      	it	mi
  406f46:	f110 0f00 	cmnmi.w	r0, #0
  406f4a:	bd0f      	pop	{r0, r1, r2, r3, pc}

00406f4c <__aeabi_fcmpeq>:
  406f4c:	f84d ed08 	str.w	lr, [sp, #-8]!
  406f50:	f7ff fff4 	bl	406f3c <__aeabi_cfcmpeq>
  406f54:	bf0c      	ite	eq
  406f56:	2001      	moveq	r0, #1
  406f58:	2000      	movne	r0, #0
  406f5a:	f85d fb08 	ldr.w	pc, [sp], #8
  406f5e:	bf00      	nop

00406f60 <__aeabi_fcmplt>:
  406f60:	f84d ed08 	str.w	lr, [sp, #-8]!
  406f64:	f7ff ffea 	bl	406f3c <__aeabi_cfcmpeq>
  406f68:	bf34      	ite	cc
  406f6a:	2001      	movcc	r0, #1
  406f6c:	2000      	movcs	r0, #0
  406f6e:	f85d fb08 	ldr.w	pc, [sp], #8
  406f72:	bf00      	nop

00406f74 <__aeabi_fcmple>:
  406f74:	f84d ed08 	str.w	lr, [sp, #-8]!
  406f78:	f7ff ffe0 	bl	406f3c <__aeabi_cfcmpeq>
  406f7c:	bf94      	ite	ls
  406f7e:	2001      	movls	r0, #1
  406f80:	2000      	movhi	r0, #0
  406f82:	f85d fb08 	ldr.w	pc, [sp], #8
  406f86:	bf00      	nop

00406f88 <__aeabi_fcmpge>:
  406f88:	f84d ed08 	str.w	lr, [sp, #-8]!
  406f8c:	f7ff ffd2 	bl	406f34 <__aeabi_cfrcmple>
  406f90:	bf94      	ite	ls
  406f92:	2001      	movls	r0, #1
  406f94:	2000      	movhi	r0, #0
  406f96:	f85d fb08 	ldr.w	pc, [sp], #8
  406f9a:	bf00      	nop

00406f9c <__aeabi_fcmpgt>:
  406f9c:	f84d ed08 	str.w	lr, [sp, #-8]!
  406fa0:	f7ff ffc8 	bl	406f34 <__aeabi_cfrcmple>
  406fa4:	bf34      	ite	cc
  406fa6:	2001      	movcc	r0, #1
  406fa8:	2000      	movcs	r0, #0
  406faa:	f85d fb08 	ldr.w	pc, [sp], #8
  406fae:	bf00      	nop

00406fb0 <__aeabi_fcmpun>:
  406fb0:	ea4f 0240 	mov.w	r2, r0, lsl #1
  406fb4:	ea4f 0341 	mov.w	r3, r1, lsl #1
  406fb8:	ea7f 6c22 	mvns.w	ip, r2, asr #24
  406fbc:	d102      	bne.n	406fc4 <__aeabi_fcmpun+0x14>
  406fbe:	ea5f 2c40 	movs.w	ip, r0, lsl #9
  406fc2:	d108      	bne.n	406fd6 <__aeabi_fcmpun+0x26>
  406fc4:	ea7f 6c23 	mvns.w	ip, r3, asr #24
  406fc8:	d102      	bne.n	406fd0 <__aeabi_fcmpun+0x20>
  406fca:	ea5f 2c41 	movs.w	ip, r1, lsl #9
  406fce:	d102      	bne.n	406fd6 <__aeabi_fcmpun+0x26>
  406fd0:	f04f 0000 	mov.w	r0, #0
  406fd4:	4770      	bx	lr
  406fd6:	f04f 0001 	mov.w	r0, #1
  406fda:	4770      	bx	lr

00406fdc <__aeabi_f2iz>:
  406fdc:	ea4f 0240 	mov.w	r2, r0, lsl #1
  406fe0:	f1b2 4ffe 	cmp.w	r2, #2130706432	; 0x7f000000
  406fe4:	d30f      	bcc.n	407006 <__aeabi_f2iz+0x2a>
  406fe6:	f04f 039e 	mov.w	r3, #158	; 0x9e
  406fea:	ebb3 6212 	subs.w	r2, r3, r2, lsr #24
  406fee:	d90d      	bls.n	40700c <__aeabi_f2iz+0x30>
  406ff0:	ea4f 2300 	mov.w	r3, r0, lsl #8
  406ff4:	f043 4300 	orr.w	r3, r3, #2147483648	; 0x80000000
  406ff8:	f010 4f00 	tst.w	r0, #2147483648	; 0x80000000
  406ffc:	fa23 f002 	lsr.w	r0, r3, r2
  407000:	bf18      	it	ne
  407002:	4240      	negne	r0, r0
  407004:	4770      	bx	lr
  407006:	f04f 0000 	mov.w	r0, #0
  40700a:	4770      	bx	lr
  40700c:	f112 0f61 	cmn.w	r2, #97	; 0x61
  407010:	d101      	bne.n	407016 <__aeabi_f2iz+0x3a>
  407012:	0242      	lsls	r2, r0, #9
  407014:	d105      	bne.n	407022 <__aeabi_f2iz+0x46>
  407016:	f010 4000 	ands.w	r0, r0, #2147483648	; 0x80000000
  40701a:	bf08      	it	eq
  40701c:	f06f 4000 	mvneq.w	r0, #2147483648	; 0x80000000
  407020:	4770      	bx	lr
  407022:	f04f 0000 	mov.w	r0, #0
  407026:	4770      	bx	lr

00407028 <__errno>:
  407028:	4b01      	ldr	r3, [pc, #4]	; (407030 <__errno+0x8>)
  40702a:	6818      	ldr	r0, [r3, #0]
  40702c:	4770      	bx	lr
  40702e:	bf00      	nop
  407030:	20400028 	.word	0x20400028

00407034 <__libc_init_array>:
  407034:	b570      	push	{r4, r5, r6, lr}
  407036:	4e0f      	ldr	r6, [pc, #60]	; (407074 <__libc_init_array+0x40>)
  407038:	4d0f      	ldr	r5, [pc, #60]	; (407078 <__libc_init_array+0x44>)
  40703a:	1b76      	subs	r6, r6, r5
  40703c:	10b6      	asrs	r6, r6, #2
  40703e:	bf18      	it	ne
  407040:	2400      	movne	r4, #0
  407042:	d005      	beq.n	407050 <__libc_init_array+0x1c>
  407044:	3401      	adds	r4, #1
  407046:	f855 3b04 	ldr.w	r3, [r5], #4
  40704a:	4798      	blx	r3
  40704c:	42a6      	cmp	r6, r4
  40704e:	d1f9      	bne.n	407044 <__libc_init_array+0x10>
  407050:	4e0a      	ldr	r6, [pc, #40]	; (40707c <__libc_init_array+0x48>)
  407052:	4d0b      	ldr	r5, [pc, #44]	; (407080 <__libc_init_array+0x4c>)
  407054:	1b76      	subs	r6, r6, r5
  407056:	f003 fcb7 	bl	40a9c8 <_init>
  40705a:	10b6      	asrs	r6, r6, #2
  40705c:	bf18      	it	ne
  40705e:	2400      	movne	r4, #0
  407060:	d006      	beq.n	407070 <__libc_init_array+0x3c>
  407062:	3401      	adds	r4, #1
  407064:	f855 3b04 	ldr.w	r3, [r5], #4
  407068:	4798      	blx	r3
  40706a:	42a6      	cmp	r6, r4
  40706c:	d1f9      	bne.n	407062 <__libc_init_array+0x2e>
  40706e:	bd70      	pop	{r4, r5, r6, pc}
  407070:	bd70      	pop	{r4, r5, r6, pc}
  407072:	bf00      	nop
  407074:	0040a9d4 	.word	0x0040a9d4
  407078:	0040a9d4 	.word	0x0040a9d4
  40707c:	0040a9dc 	.word	0x0040a9dc
  407080:	0040a9d4 	.word	0x0040a9d4

00407084 <iprintf>:
  407084:	b40f      	push	{r0, r1, r2, r3}
  407086:	b500      	push	{lr}
  407088:	4907      	ldr	r1, [pc, #28]	; (4070a8 <iprintf+0x24>)
  40708a:	b083      	sub	sp, #12
  40708c:	ab04      	add	r3, sp, #16
  40708e:	6808      	ldr	r0, [r1, #0]
  407090:	f853 2b04 	ldr.w	r2, [r3], #4
  407094:	6881      	ldr	r1, [r0, #8]
  407096:	9301      	str	r3, [sp, #4]
  407098:	f000 fa80 	bl	40759c <_vfiprintf_r>
  40709c:	b003      	add	sp, #12
  40709e:	f85d eb04 	ldr.w	lr, [sp], #4
  4070a2:	b004      	add	sp, #16
  4070a4:	4770      	bx	lr
  4070a6:	bf00      	nop
  4070a8:	20400028 	.word	0x20400028

004070ac <memcpy>:
  4070ac:	4684      	mov	ip, r0
  4070ae:	ea41 0300 	orr.w	r3, r1, r0
  4070b2:	f013 0303 	ands.w	r3, r3, #3
  4070b6:	d16d      	bne.n	407194 <memcpy+0xe8>
  4070b8:	3a40      	subs	r2, #64	; 0x40
  4070ba:	d341      	bcc.n	407140 <memcpy+0x94>
  4070bc:	f851 3b04 	ldr.w	r3, [r1], #4
  4070c0:	f840 3b04 	str.w	r3, [r0], #4
  4070c4:	f851 3b04 	ldr.w	r3, [r1], #4
  4070c8:	f840 3b04 	str.w	r3, [r0], #4
  4070cc:	f851 3b04 	ldr.w	r3, [r1], #4
  4070d0:	f840 3b04 	str.w	r3, [r0], #4
  4070d4:	f851 3b04 	ldr.w	r3, [r1], #4
  4070d8:	f840 3b04 	str.w	r3, [r0], #4
  4070dc:	f851 3b04 	ldr.w	r3, [r1], #4
  4070e0:	f840 3b04 	str.w	r3, [r0], #4
  4070e4:	f851 3b04 	ldr.w	r3, [r1], #4
  4070e8:	f840 3b04 	str.w	r3, [r0], #4
  4070ec:	f851 3b04 	ldr.w	r3, [r1], #4
  4070f0:	f840 3b04 	str.w	r3, [r0], #4
  4070f4:	f851 3b04 	ldr.w	r3, [r1], #4
  4070f8:	f840 3b04 	str.w	r3, [r0], #4
  4070fc:	f851 3b04 	ldr.w	r3, [r1], #4
  407100:	f840 3b04 	str.w	r3, [r0], #4
  407104:	f851 3b04 	ldr.w	r3, [r1], #4
  407108:	f840 3b04 	str.w	r3, [r0], #4
  40710c:	f851 3b04 	ldr.w	r3, [r1], #4
  407110:	f840 3b04 	str.w	r3, [r0], #4
  407114:	f851 3b04 	ldr.w	r3, [r1], #4
  407118:	f840 3b04 	str.w	r3, [r0], #4
  40711c:	f851 3b04 	ldr.w	r3, [r1], #4
  407120:	f840 3b04 	str.w	r3, [r0], #4
  407124:	f851 3b04 	ldr.w	r3, [r1], #4
  407128:	f840 3b04 	str.w	r3, [r0], #4
  40712c:	f851 3b04 	ldr.w	r3, [r1], #4
  407130:	f840 3b04 	str.w	r3, [r0], #4
  407134:	f851 3b04 	ldr.w	r3, [r1], #4
  407138:	f840 3b04 	str.w	r3, [r0], #4
  40713c:	3a40      	subs	r2, #64	; 0x40
  40713e:	d2bd      	bcs.n	4070bc <memcpy+0x10>
  407140:	3230      	adds	r2, #48	; 0x30
  407142:	d311      	bcc.n	407168 <memcpy+0xbc>
  407144:	f851 3b04 	ldr.w	r3, [r1], #4
  407148:	f840 3b04 	str.w	r3, [r0], #4
  40714c:	f851 3b04 	ldr.w	r3, [r1], #4
  407150:	f840 3b04 	str.w	r3, [r0], #4
  407154:	f851 3b04 	ldr.w	r3, [r1], #4
  407158:	f840 3b04 	str.w	r3, [r0], #4
  40715c:	f851 3b04 	ldr.w	r3, [r1], #4
  407160:	f840 3b04 	str.w	r3, [r0], #4
  407164:	3a10      	subs	r2, #16
  407166:	d2ed      	bcs.n	407144 <memcpy+0x98>
  407168:	320c      	adds	r2, #12
  40716a:	d305      	bcc.n	407178 <memcpy+0xcc>
  40716c:	f851 3b04 	ldr.w	r3, [r1], #4
  407170:	f840 3b04 	str.w	r3, [r0], #4
  407174:	3a04      	subs	r2, #4
  407176:	d2f9      	bcs.n	40716c <memcpy+0xc0>
  407178:	3204      	adds	r2, #4
  40717a:	d008      	beq.n	40718e <memcpy+0xe2>
  40717c:	07d2      	lsls	r2, r2, #31
  40717e:	bf1c      	itt	ne
  407180:	f811 3b01 	ldrbne.w	r3, [r1], #1
  407184:	f800 3b01 	strbne.w	r3, [r0], #1
  407188:	d301      	bcc.n	40718e <memcpy+0xe2>
  40718a:	880b      	ldrh	r3, [r1, #0]
  40718c:	8003      	strh	r3, [r0, #0]
  40718e:	4660      	mov	r0, ip
  407190:	4770      	bx	lr
  407192:	bf00      	nop
  407194:	2a08      	cmp	r2, #8
  407196:	d313      	bcc.n	4071c0 <memcpy+0x114>
  407198:	078b      	lsls	r3, r1, #30
  40719a:	d08d      	beq.n	4070b8 <memcpy+0xc>
  40719c:	f010 0303 	ands.w	r3, r0, #3
  4071a0:	d08a      	beq.n	4070b8 <memcpy+0xc>
  4071a2:	f1c3 0304 	rsb	r3, r3, #4
  4071a6:	1ad2      	subs	r2, r2, r3
  4071a8:	07db      	lsls	r3, r3, #31
  4071aa:	bf1c      	itt	ne
  4071ac:	f811 3b01 	ldrbne.w	r3, [r1], #1
  4071b0:	f800 3b01 	strbne.w	r3, [r0], #1
  4071b4:	d380      	bcc.n	4070b8 <memcpy+0xc>
  4071b6:	f831 3b02 	ldrh.w	r3, [r1], #2
  4071ba:	f820 3b02 	strh.w	r3, [r0], #2
  4071be:	e77b      	b.n	4070b8 <memcpy+0xc>
  4071c0:	3a04      	subs	r2, #4
  4071c2:	d3d9      	bcc.n	407178 <memcpy+0xcc>
  4071c4:	3a01      	subs	r2, #1
  4071c6:	f811 3b01 	ldrb.w	r3, [r1], #1
  4071ca:	f800 3b01 	strb.w	r3, [r0], #1
  4071ce:	d2f9      	bcs.n	4071c4 <memcpy+0x118>
  4071d0:	780b      	ldrb	r3, [r1, #0]
  4071d2:	7003      	strb	r3, [r0, #0]
  4071d4:	784b      	ldrb	r3, [r1, #1]
  4071d6:	7043      	strb	r3, [r0, #1]
  4071d8:	788b      	ldrb	r3, [r1, #2]
  4071da:	7083      	strb	r3, [r0, #2]
  4071dc:	4660      	mov	r0, ip
  4071de:	4770      	bx	lr

004071e0 <memset>:
  4071e0:	b470      	push	{r4, r5, r6}
  4071e2:	0786      	lsls	r6, r0, #30
  4071e4:	d046      	beq.n	407274 <memset+0x94>
  4071e6:	1e54      	subs	r4, r2, #1
  4071e8:	2a00      	cmp	r2, #0
  4071ea:	d041      	beq.n	407270 <memset+0x90>
  4071ec:	b2ca      	uxtb	r2, r1
  4071ee:	4603      	mov	r3, r0
  4071f0:	e002      	b.n	4071f8 <memset+0x18>
  4071f2:	f114 34ff 	adds.w	r4, r4, #4294967295
  4071f6:	d33b      	bcc.n	407270 <memset+0x90>
  4071f8:	f803 2b01 	strb.w	r2, [r3], #1
  4071fc:	079d      	lsls	r5, r3, #30
  4071fe:	d1f8      	bne.n	4071f2 <memset+0x12>
  407200:	2c03      	cmp	r4, #3
  407202:	d92e      	bls.n	407262 <memset+0x82>
  407204:	b2cd      	uxtb	r5, r1
  407206:	ea45 2505 	orr.w	r5, r5, r5, lsl #8
  40720a:	2c0f      	cmp	r4, #15
  40720c:	ea45 4505 	orr.w	r5, r5, r5, lsl #16
  407210:	d919      	bls.n	407246 <memset+0x66>
  407212:	f103 0210 	add.w	r2, r3, #16
  407216:	4626      	mov	r6, r4
  407218:	3e10      	subs	r6, #16
  40721a:	2e0f      	cmp	r6, #15
  40721c:	f842 5c10 	str.w	r5, [r2, #-16]
  407220:	f842 5c0c 	str.w	r5, [r2, #-12]
  407224:	f842 5c08 	str.w	r5, [r2, #-8]
  407228:	f842 5c04 	str.w	r5, [r2, #-4]
  40722c:	f102 0210 	add.w	r2, r2, #16
  407230:	d8f2      	bhi.n	407218 <memset+0x38>
  407232:	f1a4 0210 	sub.w	r2, r4, #16
  407236:	f022 020f 	bic.w	r2, r2, #15
  40723a:	f004 040f 	and.w	r4, r4, #15
  40723e:	3210      	adds	r2, #16
  407240:	2c03      	cmp	r4, #3
  407242:	4413      	add	r3, r2
  407244:	d90d      	bls.n	407262 <memset+0x82>
  407246:	461e      	mov	r6, r3
  407248:	4622      	mov	r2, r4
  40724a:	3a04      	subs	r2, #4
  40724c:	2a03      	cmp	r2, #3
  40724e:	f846 5b04 	str.w	r5, [r6], #4
  407252:	d8fa      	bhi.n	40724a <memset+0x6a>
  407254:	1f22      	subs	r2, r4, #4
  407256:	f022 0203 	bic.w	r2, r2, #3
  40725a:	3204      	adds	r2, #4
  40725c:	4413      	add	r3, r2
  40725e:	f004 0403 	and.w	r4, r4, #3
  407262:	b12c      	cbz	r4, 407270 <memset+0x90>
  407264:	b2c9      	uxtb	r1, r1
  407266:	441c      	add	r4, r3
  407268:	f803 1b01 	strb.w	r1, [r3], #1
  40726c:	429c      	cmp	r4, r3
  40726e:	d1fb      	bne.n	407268 <memset+0x88>
  407270:	bc70      	pop	{r4, r5, r6}
  407272:	4770      	bx	lr
  407274:	4614      	mov	r4, r2
  407276:	4603      	mov	r3, r0
  407278:	e7c2      	b.n	407200 <memset+0x20>
  40727a:	bf00      	nop

0040727c <setbuf>:
  40727c:	2900      	cmp	r1, #0
  40727e:	bf0c      	ite	eq
  407280:	2202      	moveq	r2, #2
  407282:	2200      	movne	r2, #0
  407284:	f44f 6380 	mov.w	r3, #1024	; 0x400
  407288:	f000 b800 	b.w	40728c <setvbuf>

0040728c <setvbuf>:
  40728c:	e92d 43f0 	stmdb	sp!, {r4, r5, r6, r7, r8, r9, lr}
  407290:	4c61      	ldr	r4, [pc, #388]	; (407418 <setvbuf+0x18c>)
  407292:	6825      	ldr	r5, [r4, #0]
  407294:	b083      	sub	sp, #12
  407296:	4604      	mov	r4, r0
  407298:	460f      	mov	r7, r1
  40729a:	4690      	mov	r8, r2
  40729c:	461e      	mov	r6, r3
  40729e:	b115      	cbz	r5, 4072a6 <setvbuf+0x1a>
  4072a0:	6bab      	ldr	r3, [r5, #56]	; 0x38
  4072a2:	2b00      	cmp	r3, #0
  4072a4:	d064      	beq.n	407370 <setvbuf+0xe4>
  4072a6:	f1b8 0f02 	cmp.w	r8, #2
  4072aa:	d006      	beq.n	4072ba <setvbuf+0x2e>
  4072ac:	f1b8 0f01 	cmp.w	r8, #1
  4072b0:	f200 809f 	bhi.w	4073f2 <setvbuf+0x166>
  4072b4:	2e00      	cmp	r6, #0
  4072b6:	f2c0 809c 	blt.w	4073f2 <setvbuf+0x166>
  4072ba:	6e63      	ldr	r3, [r4, #100]	; 0x64
  4072bc:	07d8      	lsls	r0, r3, #31
  4072be:	d534      	bpl.n	40732a <setvbuf+0x9e>
  4072c0:	4621      	mov	r1, r4
  4072c2:	4628      	mov	r0, r5
  4072c4:	f001 f908 	bl	4084d8 <_fflush_r>
  4072c8:	6b21      	ldr	r1, [r4, #48]	; 0x30
  4072ca:	b141      	cbz	r1, 4072de <setvbuf+0x52>
  4072cc:	f104 0340 	add.w	r3, r4, #64	; 0x40
  4072d0:	4299      	cmp	r1, r3
  4072d2:	d002      	beq.n	4072da <setvbuf+0x4e>
  4072d4:	4628      	mov	r0, r5
  4072d6:	f001 fa7d 	bl	4087d4 <_free_r>
  4072da:	2300      	movs	r3, #0
  4072dc:	6323      	str	r3, [r4, #48]	; 0x30
  4072de:	f9b4 300c 	ldrsh.w	r3, [r4, #12]
  4072e2:	2200      	movs	r2, #0
  4072e4:	61a2      	str	r2, [r4, #24]
  4072e6:	6062      	str	r2, [r4, #4]
  4072e8:	061a      	lsls	r2, r3, #24
  4072ea:	d43a      	bmi.n	407362 <setvbuf+0xd6>
  4072ec:	f423 634a 	bic.w	r3, r3, #3232	; 0xca0
  4072f0:	f023 0303 	bic.w	r3, r3, #3
  4072f4:	f1b8 0f02 	cmp.w	r8, #2
  4072f8:	81a3      	strh	r3, [r4, #12]
  4072fa:	d01d      	beq.n	407338 <setvbuf+0xac>
  4072fc:	ab01      	add	r3, sp, #4
  4072fe:	466a      	mov	r2, sp
  407300:	4621      	mov	r1, r4
  407302:	4628      	mov	r0, r5
  407304:	f001 fd04 	bl	408d10 <__swhatbuf_r>
  407308:	89a3      	ldrh	r3, [r4, #12]
  40730a:	4318      	orrs	r0, r3
  40730c:	81a0      	strh	r0, [r4, #12]
  40730e:	2e00      	cmp	r6, #0
  407310:	d132      	bne.n	407378 <setvbuf+0xec>
  407312:	9e00      	ldr	r6, [sp, #0]
  407314:	4630      	mov	r0, r6
  407316:	f001 fd73 	bl	408e00 <malloc>
  40731a:	4607      	mov	r7, r0
  40731c:	2800      	cmp	r0, #0
  40731e:	d06b      	beq.n	4073f8 <setvbuf+0x16c>
  407320:	89a3      	ldrh	r3, [r4, #12]
  407322:	f043 0380 	orr.w	r3, r3, #128	; 0x80
  407326:	81a3      	strh	r3, [r4, #12]
  407328:	e028      	b.n	40737c <setvbuf+0xf0>
  40732a:	89a3      	ldrh	r3, [r4, #12]
  40732c:	0599      	lsls	r1, r3, #22
  40732e:	d4c7      	bmi.n	4072c0 <setvbuf+0x34>
  407330:	6da0      	ldr	r0, [r4, #88]	; 0x58
  407332:	f001 fce9 	bl	408d08 <__retarget_lock_acquire_recursive>
  407336:	e7c3      	b.n	4072c0 <setvbuf+0x34>
  407338:	2500      	movs	r5, #0
  40733a:	6e61      	ldr	r1, [r4, #100]	; 0x64
  40733c:	2600      	movs	r6, #0
  40733e:	f104 0243 	add.w	r2, r4, #67	; 0x43
  407342:	f043 0302 	orr.w	r3, r3, #2
  407346:	2001      	movs	r0, #1
  407348:	60a6      	str	r6, [r4, #8]
  40734a:	07ce      	lsls	r6, r1, #31
  40734c:	81a3      	strh	r3, [r4, #12]
  40734e:	6022      	str	r2, [r4, #0]
  407350:	6122      	str	r2, [r4, #16]
  407352:	6160      	str	r0, [r4, #20]
  407354:	d401      	bmi.n	40735a <setvbuf+0xce>
  407356:	0598      	lsls	r0, r3, #22
  407358:	d53e      	bpl.n	4073d8 <setvbuf+0x14c>
  40735a:	4628      	mov	r0, r5
  40735c:	b003      	add	sp, #12
  40735e:	e8bd 83f0 	ldmia.w	sp!, {r4, r5, r6, r7, r8, r9, pc}
  407362:	6921      	ldr	r1, [r4, #16]
  407364:	4628      	mov	r0, r5
  407366:	f001 fa35 	bl	4087d4 <_free_r>
  40736a:	f9b4 300c 	ldrsh.w	r3, [r4, #12]
  40736e:	e7bd      	b.n	4072ec <setvbuf+0x60>
  407370:	4628      	mov	r0, r5
  407372:	f001 f909 	bl	408588 <__sinit>
  407376:	e796      	b.n	4072a6 <setvbuf+0x1a>
  407378:	2f00      	cmp	r7, #0
  40737a:	d0cb      	beq.n	407314 <setvbuf+0x88>
  40737c:	6bab      	ldr	r3, [r5, #56]	; 0x38
  40737e:	2b00      	cmp	r3, #0
  407380:	d033      	beq.n	4073ea <setvbuf+0x15e>
  407382:	9b00      	ldr	r3, [sp, #0]
  407384:	f9b4 200c 	ldrsh.w	r2, [r4, #12]
  407388:	6027      	str	r7, [r4, #0]
  40738a:	429e      	cmp	r6, r3
  40738c:	bf1c      	itt	ne
  40738e:	f442 6200 	orrne.w	r2, r2, #2048	; 0x800
  407392:	81a2      	strhne	r2, [r4, #12]
  407394:	f1b8 0f01 	cmp.w	r8, #1
  407398:	bf04      	itt	eq
  40739a:	f042 0201 	orreq.w	r2, r2, #1
  40739e:	81a2      	strheq	r2, [r4, #12]
  4073a0:	b292      	uxth	r2, r2
  4073a2:	f012 0308 	ands.w	r3, r2, #8
  4073a6:	6127      	str	r7, [r4, #16]
  4073a8:	6166      	str	r6, [r4, #20]
  4073aa:	d00e      	beq.n	4073ca <setvbuf+0x13e>
  4073ac:	07d1      	lsls	r1, r2, #31
  4073ae:	d51a      	bpl.n	4073e6 <setvbuf+0x15a>
  4073b0:	6e65      	ldr	r5, [r4, #100]	; 0x64
  4073b2:	4276      	negs	r6, r6
  4073b4:	2300      	movs	r3, #0
  4073b6:	f015 0501 	ands.w	r5, r5, #1
  4073ba:	61a6      	str	r6, [r4, #24]
  4073bc:	60a3      	str	r3, [r4, #8]
  4073be:	d009      	beq.n	4073d4 <setvbuf+0x148>
  4073c0:	2500      	movs	r5, #0
  4073c2:	4628      	mov	r0, r5
  4073c4:	b003      	add	sp, #12
  4073c6:	e8bd 83f0 	ldmia.w	sp!, {r4, r5, r6, r7, r8, r9, pc}
  4073ca:	60a3      	str	r3, [r4, #8]
  4073cc:	6e65      	ldr	r5, [r4, #100]	; 0x64
  4073ce:	f015 0501 	ands.w	r5, r5, #1
  4073d2:	d1f5      	bne.n	4073c0 <setvbuf+0x134>
  4073d4:	0593      	lsls	r3, r2, #22
  4073d6:	d4c0      	bmi.n	40735a <setvbuf+0xce>
  4073d8:	6da0      	ldr	r0, [r4, #88]	; 0x58
  4073da:	f001 fc97 	bl	408d0c <__retarget_lock_release_recursive>
  4073de:	4628      	mov	r0, r5
  4073e0:	b003      	add	sp, #12
  4073e2:	e8bd 83f0 	ldmia.w	sp!, {r4, r5, r6, r7, r8, r9, pc}
  4073e6:	60a6      	str	r6, [r4, #8]
  4073e8:	e7f0      	b.n	4073cc <setvbuf+0x140>
  4073ea:	4628      	mov	r0, r5
  4073ec:	f001 f8cc 	bl	408588 <__sinit>
  4073f0:	e7c7      	b.n	407382 <setvbuf+0xf6>
  4073f2:	f04f 35ff 	mov.w	r5, #4294967295
  4073f6:	e7b0      	b.n	40735a <setvbuf+0xce>
  4073f8:	f8dd 9000 	ldr.w	r9, [sp]
  4073fc:	45b1      	cmp	r9, r6
  4073fe:	d004      	beq.n	40740a <setvbuf+0x17e>
  407400:	4648      	mov	r0, r9
  407402:	f001 fcfd 	bl	408e00 <malloc>
  407406:	4607      	mov	r7, r0
  407408:	b920      	cbnz	r0, 407414 <setvbuf+0x188>
  40740a:	f9b4 300c 	ldrsh.w	r3, [r4, #12]
  40740e:	f04f 35ff 	mov.w	r5, #4294967295
  407412:	e792      	b.n	40733a <setvbuf+0xae>
  407414:	464e      	mov	r6, r9
  407416:	e783      	b.n	407320 <setvbuf+0x94>
  407418:	20400028 	.word	0x20400028
	...

00407440 <strlen>:
  407440:	f890 f000 	pld	[r0]
  407444:	e96d 4502 	strd	r4, r5, [sp, #-8]!
  407448:	f020 0107 	bic.w	r1, r0, #7
  40744c:	f06f 0c00 	mvn.w	ip, #0
  407450:	f010 0407 	ands.w	r4, r0, #7
  407454:	f891 f020 	pld	[r1, #32]
  407458:	f040 8049 	bne.w	4074ee <strlen+0xae>
  40745c:	f04f 0400 	mov.w	r4, #0
  407460:	f06f 0007 	mvn.w	r0, #7
  407464:	e9d1 2300 	ldrd	r2, r3, [r1]
  407468:	f891 f040 	pld	[r1, #64]	; 0x40
  40746c:	f100 0008 	add.w	r0, r0, #8
  407470:	fa82 f24c 	uadd8	r2, r2, ip
  407474:	faa4 f28c 	sel	r2, r4, ip
  407478:	fa83 f34c 	uadd8	r3, r3, ip
  40747c:	faa2 f38c 	sel	r3, r2, ip
  407480:	bb4b      	cbnz	r3, 4074d6 <strlen+0x96>
  407482:	e9d1 2302 	ldrd	r2, r3, [r1, #8]
  407486:	fa82 f24c 	uadd8	r2, r2, ip
  40748a:	f100 0008 	add.w	r0, r0, #8
  40748e:	faa4 f28c 	sel	r2, r4, ip
  407492:	fa83 f34c 	uadd8	r3, r3, ip
  407496:	faa2 f38c 	sel	r3, r2, ip
  40749a:	b9e3      	cbnz	r3, 4074d6 <strlen+0x96>
  40749c:	e9d1 2304 	ldrd	r2, r3, [r1, #16]
  4074a0:	fa82 f24c 	uadd8	r2, r2, ip
  4074a4:	f100 0008 	add.w	r0, r0, #8
  4074a8:	faa4 f28c 	sel	r2, r4, ip
  4074ac:	fa83 f34c 	uadd8	r3, r3, ip
  4074b0:	faa2 f38c 	sel	r3, r2, ip
  4074b4:	b97b      	cbnz	r3, 4074d6 <strlen+0x96>
  4074b6:	e9d1 2306 	ldrd	r2, r3, [r1, #24]
  4074ba:	f101 0120 	add.w	r1, r1, #32
  4074be:	fa82 f24c 	uadd8	r2, r2, ip
  4074c2:	f100 0008 	add.w	r0, r0, #8
  4074c6:	faa4 f28c 	sel	r2, r4, ip
  4074ca:	fa83 f34c 	uadd8	r3, r3, ip
  4074ce:	faa2 f38c 	sel	r3, r2, ip
  4074d2:	2b00      	cmp	r3, #0
  4074d4:	d0c6      	beq.n	407464 <strlen+0x24>
  4074d6:	2a00      	cmp	r2, #0
  4074d8:	bf04      	itt	eq
  4074da:	3004      	addeq	r0, #4
  4074dc:	461a      	moveq	r2, r3
  4074de:	ba12      	rev	r2, r2
  4074e0:	fab2 f282 	clz	r2, r2
  4074e4:	e8fd 4502 	ldrd	r4, r5, [sp], #8
  4074e8:	eb00 00d2 	add.w	r0, r0, r2, lsr #3
  4074ec:	4770      	bx	lr
  4074ee:	e9d1 2300 	ldrd	r2, r3, [r1]
  4074f2:	f004 0503 	and.w	r5, r4, #3
  4074f6:	f1c4 0000 	rsb	r0, r4, #0
  4074fa:	ea4f 05c5 	mov.w	r5, r5, lsl #3
  4074fe:	f014 0f04 	tst.w	r4, #4
  407502:	f891 f040 	pld	[r1, #64]	; 0x40
  407506:	fa0c f505 	lsl.w	r5, ip, r5
  40750a:	ea62 0205 	orn	r2, r2, r5
  40750e:	bf1c      	itt	ne
  407510:	ea63 0305 	ornne	r3, r3, r5
  407514:	4662      	movne	r2, ip
  407516:	f04f 0400 	mov.w	r4, #0
  40751a:	e7a9      	b.n	407470 <strlen+0x30>

0040751c <__sprint_r.part.0>:
  40751c:	e92d 4ff8 	stmdb	sp!, {r3, r4, r5, r6, r7, r8, r9, sl, fp, lr}
  407520:	6e4b      	ldr	r3, [r1, #100]	; 0x64
  407522:	049c      	lsls	r4, r3, #18
  407524:	4693      	mov	fp, r2
  407526:	d52f      	bpl.n	407588 <__sprint_r.part.0+0x6c>
  407528:	6893      	ldr	r3, [r2, #8]
  40752a:	6812      	ldr	r2, [r2, #0]
  40752c:	b353      	cbz	r3, 407584 <__sprint_r.part.0+0x68>
  40752e:	460e      	mov	r6, r1
  407530:	4607      	mov	r7, r0
  407532:	f102 0908 	add.w	r9, r2, #8
  407536:	e919 0420 	ldmdb	r9, {r5, sl}
  40753a:	ea5f 089a 	movs.w	r8, sl, lsr #2
  40753e:	d017      	beq.n	407570 <__sprint_r.part.0+0x54>
  407540:	3d04      	subs	r5, #4
  407542:	2400      	movs	r4, #0
  407544:	e001      	b.n	40754a <__sprint_r.part.0+0x2e>
  407546:	45a0      	cmp	r8, r4
  407548:	d010      	beq.n	40756c <__sprint_r.part.0+0x50>
  40754a:	4632      	mov	r2, r6
  40754c:	f855 1f04 	ldr.w	r1, [r5, #4]!
  407550:	4638      	mov	r0, r7
  407552:	f001 f8bb 	bl	4086cc <_fputwc_r>
  407556:	1c43      	adds	r3, r0, #1
  407558:	f104 0401 	add.w	r4, r4, #1
  40755c:	d1f3      	bne.n	407546 <__sprint_r.part.0+0x2a>
  40755e:	2300      	movs	r3, #0
  407560:	f8cb 3008 	str.w	r3, [fp, #8]
  407564:	f8cb 3004 	str.w	r3, [fp, #4]
  407568:	e8bd 8ff8 	ldmia.w	sp!, {r3, r4, r5, r6, r7, r8, r9, sl, fp, pc}
  40756c:	f8db 3008 	ldr.w	r3, [fp, #8]
  407570:	f02a 0a03 	bic.w	sl, sl, #3
  407574:	eba3 030a 	sub.w	r3, r3, sl
  407578:	f8cb 3008 	str.w	r3, [fp, #8]
  40757c:	f109 0908 	add.w	r9, r9, #8
  407580:	2b00      	cmp	r3, #0
  407582:	d1d8      	bne.n	407536 <__sprint_r.part.0+0x1a>
  407584:	2000      	movs	r0, #0
  407586:	e7ea      	b.n	40755e <__sprint_r.part.0+0x42>
  407588:	f001 fa0a 	bl	4089a0 <__sfvwrite_r>
  40758c:	2300      	movs	r3, #0
  40758e:	f8cb 3008 	str.w	r3, [fp, #8]
  407592:	f8cb 3004 	str.w	r3, [fp, #4]
  407596:	e8bd 8ff8 	ldmia.w	sp!, {r3, r4, r5, r6, r7, r8, r9, sl, fp, pc}
  40759a:	bf00      	nop

0040759c <_vfiprintf_r>:
  40759c:	e92d 4ff0 	stmdb	sp!, {r4, r5, r6, r7, r8, r9, sl, fp, lr}
  4075a0:	b0ad      	sub	sp, #180	; 0xb4
  4075a2:	461d      	mov	r5, r3
  4075a4:	468b      	mov	fp, r1
  4075a6:	4690      	mov	r8, r2
  4075a8:	9307      	str	r3, [sp, #28]
  4075aa:	9006      	str	r0, [sp, #24]
  4075ac:	b118      	cbz	r0, 4075b6 <_vfiprintf_r+0x1a>
  4075ae:	6b83      	ldr	r3, [r0, #56]	; 0x38
  4075b0:	2b00      	cmp	r3, #0
  4075b2:	f000 80f3 	beq.w	40779c <_vfiprintf_r+0x200>
  4075b6:	f8db 3064 	ldr.w	r3, [fp, #100]	; 0x64
  4075ba:	f9bb 000c 	ldrsh.w	r0, [fp, #12]
  4075be:	07df      	lsls	r7, r3, #31
  4075c0:	b281      	uxth	r1, r0
  4075c2:	d402      	bmi.n	4075ca <_vfiprintf_r+0x2e>
  4075c4:	058e      	lsls	r6, r1, #22
  4075c6:	f140 80fc 	bpl.w	4077c2 <_vfiprintf_r+0x226>
  4075ca:	048c      	lsls	r4, r1, #18
  4075cc:	d40a      	bmi.n	4075e4 <_vfiprintf_r+0x48>
  4075ce:	f8db 3064 	ldr.w	r3, [fp, #100]	; 0x64
  4075d2:	f440 5100 	orr.w	r1, r0, #8192	; 0x2000
  4075d6:	f423 5300 	bic.w	r3, r3, #8192	; 0x2000
  4075da:	f8ab 100c 	strh.w	r1, [fp, #12]
  4075de:	f8cb 3064 	str.w	r3, [fp, #100]	; 0x64
  4075e2:	b289      	uxth	r1, r1
  4075e4:	0708      	lsls	r0, r1, #28
  4075e6:	f140 80b3 	bpl.w	407750 <_vfiprintf_r+0x1b4>
  4075ea:	f8db 3010 	ldr.w	r3, [fp, #16]
  4075ee:	2b00      	cmp	r3, #0
  4075f0:	f000 80ae 	beq.w	407750 <_vfiprintf_r+0x1b4>
  4075f4:	f001 031a 	and.w	r3, r1, #26
  4075f8:	2b0a      	cmp	r3, #10
  4075fa:	f000 80b5 	beq.w	407768 <_vfiprintf_r+0x1cc>
  4075fe:	2300      	movs	r3, #0
  407600:	f10d 0970 	add.w	r9, sp, #112	; 0x70
  407604:	930b      	str	r3, [sp, #44]	; 0x2c
  407606:	9311      	str	r3, [sp, #68]	; 0x44
  407608:	9310      	str	r3, [sp, #64]	; 0x40
  40760a:	9303      	str	r3, [sp, #12]
  40760c:	f8cd 903c 	str.w	r9, [sp, #60]	; 0x3c
  407610:	46ca      	mov	sl, r9
  407612:	f8cd b010 	str.w	fp, [sp, #16]
  407616:	f898 3000 	ldrb.w	r3, [r8]
  40761a:	4644      	mov	r4, r8
  40761c:	b1fb      	cbz	r3, 40765e <_vfiprintf_r+0xc2>
  40761e:	2b25      	cmp	r3, #37	; 0x25
  407620:	d102      	bne.n	407628 <_vfiprintf_r+0x8c>
  407622:	e01c      	b.n	40765e <_vfiprintf_r+0xc2>
  407624:	2b25      	cmp	r3, #37	; 0x25
  407626:	d003      	beq.n	407630 <_vfiprintf_r+0x94>
  407628:	f814 3f01 	ldrb.w	r3, [r4, #1]!
  40762c:	2b00      	cmp	r3, #0
  40762e:	d1f9      	bne.n	407624 <_vfiprintf_r+0x88>
  407630:	eba4 0508 	sub.w	r5, r4, r8
  407634:	b19d      	cbz	r5, 40765e <_vfiprintf_r+0xc2>
  407636:	9b10      	ldr	r3, [sp, #64]	; 0x40
  407638:	9a11      	ldr	r2, [sp, #68]	; 0x44
  40763a:	f8ca 8000 	str.w	r8, [sl]
  40763e:	3301      	adds	r3, #1
  407640:	442a      	add	r2, r5
  407642:	2b07      	cmp	r3, #7
  407644:	f8ca 5004 	str.w	r5, [sl, #4]
  407648:	9211      	str	r2, [sp, #68]	; 0x44
  40764a:	9310      	str	r3, [sp, #64]	; 0x40
  40764c:	dd7a      	ble.n	407744 <_vfiprintf_r+0x1a8>
  40764e:	2a00      	cmp	r2, #0
  407650:	f040 84b0 	bne.w	407fb4 <_vfiprintf_r+0xa18>
  407654:	9b03      	ldr	r3, [sp, #12]
  407656:	9210      	str	r2, [sp, #64]	; 0x40
  407658:	442b      	add	r3, r5
  40765a:	46ca      	mov	sl, r9
  40765c:	9303      	str	r3, [sp, #12]
  40765e:	7823      	ldrb	r3, [r4, #0]
  407660:	2b00      	cmp	r3, #0
  407662:	f000 83e0 	beq.w	407e26 <_vfiprintf_r+0x88a>
  407666:	2000      	movs	r0, #0
  407668:	f04f 0300 	mov.w	r3, #0
  40766c:	f88d 3037 	strb.w	r3, [sp, #55]	; 0x37
  407670:	f104 0801 	add.w	r8, r4, #1
  407674:	7862      	ldrb	r2, [r4, #1]
  407676:	4605      	mov	r5, r0
  407678:	4606      	mov	r6, r0
  40767a:	4603      	mov	r3, r0
  40767c:	f04f 34ff 	mov.w	r4, #4294967295
  407680:	f108 0801 	add.w	r8, r8, #1
  407684:	f1a2 0120 	sub.w	r1, r2, #32
  407688:	2958      	cmp	r1, #88	; 0x58
  40768a:	f200 82de 	bhi.w	407c4a <_vfiprintf_r+0x6ae>
  40768e:	e8df f011 	tbh	[pc, r1, lsl #1]
  407692:	0221      	.short	0x0221
  407694:	02dc02dc 	.word	0x02dc02dc
  407698:	02dc0229 	.word	0x02dc0229
  40769c:	02dc02dc 	.word	0x02dc02dc
  4076a0:	02dc02dc 	.word	0x02dc02dc
  4076a4:	028902dc 	.word	0x028902dc
  4076a8:	02dc0295 	.word	0x02dc0295
  4076ac:	02bd00a2 	.word	0x02bd00a2
  4076b0:	019f02dc 	.word	0x019f02dc
  4076b4:	01a401a4 	.word	0x01a401a4
  4076b8:	01a401a4 	.word	0x01a401a4
  4076bc:	01a401a4 	.word	0x01a401a4
  4076c0:	01a401a4 	.word	0x01a401a4
  4076c4:	02dc01a4 	.word	0x02dc01a4
  4076c8:	02dc02dc 	.word	0x02dc02dc
  4076cc:	02dc02dc 	.word	0x02dc02dc
  4076d0:	02dc02dc 	.word	0x02dc02dc
  4076d4:	02dc02dc 	.word	0x02dc02dc
  4076d8:	01b202dc 	.word	0x01b202dc
  4076dc:	02dc02dc 	.word	0x02dc02dc
  4076e0:	02dc02dc 	.word	0x02dc02dc
  4076e4:	02dc02dc 	.word	0x02dc02dc
  4076e8:	02dc02dc 	.word	0x02dc02dc
  4076ec:	02dc02dc 	.word	0x02dc02dc
  4076f0:	02dc0197 	.word	0x02dc0197
  4076f4:	02dc02dc 	.word	0x02dc02dc
  4076f8:	02dc02dc 	.word	0x02dc02dc
  4076fc:	02dc019b 	.word	0x02dc019b
  407700:	025302dc 	.word	0x025302dc
  407704:	02dc02dc 	.word	0x02dc02dc
  407708:	02dc02dc 	.word	0x02dc02dc
  40770c:	02dc02dc 	.word	0x02dc02dc
  407710:	02dc02dc 	.word	0x02dc02dc
  407714:	02dc02dc 	.word	0x02dc02dc
  407718:	021b025a 	.word	0x021b025a
  40771c:	02dc02dc 	.word	0x02dc02dc
  407720:	026e02dc 	.word	0x026e02dc
  407724:	02dc021b 	.word	0x02dc021b
  407728:	027302dc 	.word	0x027302dc
  40772c:	01f502dc 	.word	0x01f502dc
  407730:	02090182 	.word	0x02090182
  407734:	02dc02d7 	.word	0x02dc02d7
  407738:	02dc029a 	.word	0x02dc029a
  40773c:	02dc00a7 	.word	0x02dc00a7
  407740:	022e02dc 	.word	0x022e02dc
  407744:	f10a 0a08 	add.w	sl, sl, #8
  407748:	9b03      	ldr	r3, [sp, #12]
  40774a:	442b      	add	r3, r5
  40774c:	9303      	str	r3, [sp, #12]
  40774e:	e786      	b.n	40765e <_vfiprintf_r+0xc2>
  407750:	4659      	mov	r1, fp
  407752:	9806      	ldr	r0, [sp, #24]
  407754:	f000 fdac 	bl	4082b0 <__swsetup_r>
  407758:	bb18      	cbnz	r0, 4077a2 <_vfiprintf_r+0x206>
  40775a:	f8bb 100c 	ldrh.w	r1, [fp, #12]
  40775e:	f001 031a 	and.w	r3, r1, #26
  407762:	2b0a      	cmp	r3, #10
  407764:	f47f af4b 	bne.w	4075fe <_vfiprintf_r+0x62>
  407768:	f9bb 300e 	ldrsh.w	r3, [fp, #14]
  40776c:	2b00      	cmp	r3, #0
  40776e:	f6ff af46 	blt.w	4075fe <_vfiprintf_r+0x62>
  407772:	f8db 3064 	ldr.w	r3, [fp, #100]	; 0x64
  407776:	07db      	lsls	r3, r3, #31
  407778:	d405      	bmi.n	407786 <_vfiprintf_r+0x1ea>
  40777a:	058f      	lsls	r7, r1, #22
  40777c:	d403      	bmi.n	407786 <_vfiprintf_r+0x1ea>
  40777e:	f8db 0058 	ldr.w	r0, [fp, #88]	; 0x58
  407782:	f001 fac3 	bl	408d0c <__retarget_lock_release_recursive>
  407786:	462b      	mov	r3, r5
  407788:	4642      	mov	r2, r8
  40778a:	4659      	mov	r1, fp
  40778c:	9806      	ldr	r0, [sp, #24]
  40778e:	f000 fd4d 	bl	40822c <__sbprintf>
  407792:	9003      	str	r0, [sp, #12]
  407794:	9803      	ldr	r0, [sp, #12]
  407796:	b02d      	add	sp, #180	; 0xb4
  407798:	e8bd 8ff0 	ldmia.w	sp!, {r4, r5, r6, r7, r8, r9, sl, fp, pc}
  40779c:	f000 fef4 	bl	408588 <__sinit>
  4077a0:	e709      	b.n	4075b6 <_vfiprintf_r+0x1a>
  4077a2:	f8db 3064 	ldr.w	r3, [fp, #100]	; 0x64
  4077a6:	07d9      	lsls	r1, r3, #31
  4077a8:	d404      	bmi.n	4077b4 <_vfiprintf_r+0x218>
  4077aa:	f8bb 300c 	ldrh.w	r3, [fp, #12]
  4077ae:	059a      	lsls	r2, r3, #22
  4077b0:	f140 84aa 	bpl.w	408108 <_vfiprintf_r+0xb6c>
  4077b4:	f04f 33ff 	mov.w	r3, #4294967295
  4077b8:	9303      	str	r3, [sp, #12]
  4077ba:	9803      	ldr	r0, [sp, #12]
  4077bc:	b02d      	add	sp, #180	; 0xb4
  4077be:	e8bd 8ff0 	ldmia.w	sp!, {r4, r5, r6, r7, r8, r9, sl, fp, pc}
  4077c2:	f8db 0058 	ldr.w	r0, [fp, #88]	; 0x58
  4077c6:	f001 fa9f 	bl	408d08 <__retarget_lock_acquire_recursive>
  4077ca:	f9bb 000c 	ldrsh.w	r0, [fp, #12]
  4077ce:	b281      	uxth	r1, r0
  4077d0:	e6fb      	b.n	4075ca <_vfiprintf_r+0x2e>
  4077d2:	4276      	negs	r6, r6
  4077d4:	9207      	str	r2, [sp, #28]
  4077d6:	f043 0304 	orr.w	r3, r3, #4
  4077da:	f898 2000 	ldrb.w	r2, [r8]
  4077de:	e74f      	b.n	407680 <_vfiprintf_r+0xe4>
  4077e0:	9608      	str	r6, [sp, #32]
  4077e2:	069e      	lsls	r6, r3, #26
  4077e4:	f100 8450 	bmi.w	408088 <_vfiprintf_r+0xaec>
  4077e8:	9907      	ldr	r1, [sp, #28]
  4077ea:	06dd      	lsls	r5, r3, #27
  4077ec:	460a      	mov	r2, r1
  4077ee:	f100 83ef 	bmi.w	407fd0 <_vfiprintf_r+0xa34>
  4077f2:	0658      	lsls	r0, r3, #25
  4077f4:	f140 83ec 	bpl.w	407fd0 <_vfiprintf_r+0xa34>
  4077f8:	880e      	ldrh	r6, [r1, #0]
  4077fa:	3104      	adds	r1, #4
  4077fc:	2700      	movs	r7, #0
  4077fe:	2201      	movs	r2, #1
  407800:	9107      	str	r1, [sp, #28]
  407802:	f04f 0100 	mov.w	r1, #0
  407806:	f88d 1037 	strb.w	r1, [sp, #55]	; 0x37
  40780a:	2500      	movs	r5, #0
  40780c:	1c61      	adds	r1, r4, #1
  40780e:	f000 8116 	beq.w	407a3e <_vfiprintf_r+0x4a2>
  407812:	f023 0180 	bic.w	r1, r3, #128	; 0x80
  407816:	9102      	str	r1, [sp, #8]
  407818:	ea56 0107 	orrs.w	r1, r6, r7
  40781c:	f040 8114 	bne.w	407a48 <_vfiprintf_r+0x4ac>
  407820:	2c00      	cmp	r4, #0
  407822:	f040 835c 	bne.w	407ede <_vfiprintf_r+0x942>
  407826:	2a00      	cmp	r2, #0
  407828:	f040 83b7 	bne.w	407f9a <_vfiprintf_r+0x9fe>
  40782c:	f013 0301 	ands.w	r3, r3, #1
  407830:	9305      	str	r3, [sp, #20]
  407832:	f000 8457 	beq.w	4080e4 <_vfiprintf_r+0xb48>
  407836:	f10d 0bb0 	add.w	fp, sp, #176	; 0xb0
  40783a:	2330      	movs	r3, #48	; 0x30
  40783c:	f80b 3d41 	strb.w	r3, [fp, #-65]!
  407840:	9b05      	ldr	r3, [sp, #20]
  407842:	42a3      	cmp	r3, r4
  407844:	bfb8      	it	lt
  407846:	4623      	movlt	r3, r4
  407848:	9301      	str	r3, [sp, #4]
  40784a:	b10d      	cbz	r5, 407850 <_vfiprintf_r+0x2b4>
  40784c:	3301      	adds	r3, #1
  40784e:	9301      	str	r3, [sp, #4]
  407850:	9b02      	ldr	r3, [sp, #8]
  407852:	f013 0302 	ands.w	r3, r3, #2
  407856:	9309      	str	r3, [sp, #36]	; 0x24
  407858:	d002      	beq.n	407860 <_vfiprintf_r+0x2c4>
  40785a:	9b01      	ldr	r3, [sp, #4]
  40785c:	3302      	adds	r3, #2
  40785e:	9301      	str	r3, [sp, #4]
  407860:	9b02      	ldr	r3, [sp, #8]
  407862:	f013 0384 	ands.w	r3, r3, #132	; 0x84
  407866:	930a      	str	r3, [sp, #40]	; 0x28
  407868:	f040 8217 	bne.w	407c9a <_vfiprintf_r+0x6fe>
  40786c:	9b08      	ldr	r3, [sp, #32]
  40786e:	9a01      	ldr	r2, [sp, #4]
  407870:	1a9d      	subs	r5, r3, r2
  407872:	2d00      	cmp	r5, #0
  407874:	f340 8211 	ble.w	407c9a <_vfiprintf_r+0x6fe>
  407878:	2d10      	cmp	r5, #16
  40787a:	f340 8490 	ble.w	40819e <_vfiprintf_r+0xc02>
  40787e:	9b10      	ldr	r3, [sp, #64]	; 0x40
  407880:	9a11      	ldr	r2, [sp, #68]	; 0x44
  407882:	4ec4      	ldr	r6, [pc, #784]	; (407b94 <_vfiprintf_r+0x5f8>)
  407884:	46d6      	mov	lr, sl
  407886:	2710      	movs	r7, #16
  407888:	46a2      	mov	sl, r4
  40788a:	4619      	mov	r1, r3
  40788c:	9c06      	ldr	r4, [sp, #24]
  40788e:	e007      	b.n	4078a0 <_vfiprintf_r+0x304>
  407890:	f101 0c02 	add.w	ip, r1, #2
  407894:	f10e 0e08 	add.w	lr, lr, #8
  407898:	4601      	mov	r1, r0
  40789a:	3d10      	subs	r5, #16
  40789c:	2d10      	cmp	r5, #16
  40789e:	dd11      	ble.n	4078c4 <_vfiprintf_r+0x328>
  4078a0:	1c48      	adds	r0, r1, #1
  4078a2:	3210      	adds	r2, #16
  4078a4:	2807      	cmp	r0, #7
  4078a6:	9211      	str	r2, [sp, #68]	; 0x44
  4078a8:	e88e 00c0 	stmia.w	lr, {r6, r7}
  4078ac:	9010      	str	r0, [sp, #64]	; 0x40
  4078ae:	ddef      	ble.n	407890 <_vfiprintf_r+0x2f4>
  4078b0:	2a00      	cmp	r2, #0
  4078b2:	f040 81e4 	bne.w	407c7e <_vfiprintf_r+0x6e2>
  4078b6:	3d10      	subs	r5, #16
  4078b8:	2d10      	cmp	r5, #16
  4078ba:	4611      	mov	r1, r2
  4078bc:	f04f 0c01 	mov.w	ip, #1
  4078c0:	46ce      	mov	lr, r9
  4078c2:	dced      	bgt.n	4078a0 <_vfiprintf_r+0x304>
  4078c4:	4654      	mov	r4, sl
  4078c6:	4661      	mov	r1, ip
  4078c8:	46f2      	mov	sl, lr
  4078ca:	442a      	add	r2, r5
  4078cc:	2907      	cmp	r1, #7
  4078ce:	9211      	str	r2, [sp, #68]	; 0x44
  4078d0:	f8ca 6000 	str.w	r6, [sl]
  4078d4:	f8ca 5004 	str.w	r5, [sl, #4]
  4078d8:	9110      	str	r1, [sp, #64]	; 0x40
  4078da:	f300 82ec 	bgt.w	407eb6 <_vfiprintf_r+0x91a>
  4078de:	f89d 5037 	ldrb.w	r5, [sp, #55]	; 0x37
  4078e2:	f10a 0a08 	add.w	sl, sl, #8
  4078e6:	1c48      	adds	r0, r1, #1
  4078e8:	2d00      	cmp	r5, #0
  4078ea:	f040 81de 	bne.w	407caa <_vfiprintf_r+0x70e>
  4078ee:	9b09      	ldr	r3, [sp, #36]	; 0x24
  4078f0:	2b00      	cmp	r3, #0
  4078f2:	f000 81f8 	beq.w	407ce6 <_vfiprintf_r+0x74a>
  4078f6:	3202      	adds	r2, #2
  4078f8:	a90e      	add	r1, sp, #56	; 0x38
  4078fa:	2302      	movs	r3, #2
  4078fc:	2807      	cmp	r0, #7
  4078fe:	9211      	str	r2, [sp, #68]	; 0x44
  407900:	9010      	str	r0, [sp, #64]	; 0x40
  407902:	e88a 000a 	stmia.w	sl, {r1, r3}
  407906:	f340 81ea 	ble.w	407cde <_vfiprintf_r+0x742>
  40790a:	2a00      	cmp	r2, #0
  40790c:	f040 838c 	bne.w	408028 <_vfiprintf_r+0xa8c>
  407910:	9b0a      	ldr	r3, [sp, #40]	; 0x28
  407912:	2b80      	cmp	r3, #128	; 0x80
  407914:	f04f 0001 	mov.w	r0, #1
  407918:	4611      	mov	r1, r2
  40791a:	46ca      	mov	sl, r9
  40791c:	f040 81e7 	bne.w	407cee <_vfiprintf_r+0x752>
  407920:	9b08      	ldr	r3, [sp, #32]
  407922:	9d01      	ldr	r5, [sp, #4]
  407924:	1b5e      	subs	r6, r3, r5
  407926:	2e00      	cmp	r6, #0
  407928:	f340 81e1 	ble.w	407cee <_vfiprintf_r+0x752>
  40792c:	2e10      	cmp	r6, #16
  40792e:	4d9a      	ldr	r5, [pc, #616]	; (407b98 <_vfiprintf_r+0x5fc>)
  407930:	f340 8450 	ble.w	4081d4 <_vfiprintf_r+0xc38>
  407934:	46d4      	mov	ip, sl
  407936:	2710      	movs	r7, #16
  407938:	46a2      	mov	sl, r4
  40793a:	9c06      	ldr	r4, [sp, #24]
  40793c:	e007      	b.n	40794e <_vfiprintf_r+0x3b2>
  40793e:	f101 0e02 	add.w	lr, r1, #2
  407942:	f10c 0c08 	add.w	ip, ip, #8
  407946:	4601      	mov	r1, r0
  407948:	3e10      	subs	r6, #16
  40794a:	2e10      	cmp	r6, #16
  40794c:	dd11      	ble.n	407972 <_vfiprintf_r+0x3d6>
  40794e:	1c48      	adds	r0, r1, #1
  407950:	3210      	adds	r2, #16
  407952:	2807      	cmp	r0, #7
  407954:	9211      	str	r2, [sp, #68]	; 0x44
  407956:	e88c 00a0 	stmia.w	ip, {r5, r7}
  40795a:	9010      	str	r0, [sp, #64]	; 0x40
  40795c:	ddef      	ble.n	40793e <_vfiprintf_r+0x3a2>
  40795e:	2a00      	cmp	r2, #0
  407960:	f040 829d 	bne.w	407e9e <_vfiprintf_r+0x902>
  407964:	3e10      	subs	r6, #16
  407966:	2e10      	cmp	r6, #16
  407968:	f04f 0e01 	mov.w	lr, #1
  40796c:	4611      	mov	r1, r2
  40796e:	46cc      	mov	ip, r9
  407970:	dced      	bgt.n	40794e <_vfiprintf_r+0x3b2>
  407972:	4654      	mov	r4, sl
  407974:	46e2      	mov	sl, ip
  407976:	4432      	add	r2, r6
  407978:	f1be 0f07 	cmp.w	lr, #7
  40797c:	9211      	str	r2, [sp, #68]	; 0x44
  40797e:	e88a 0060 	stmia.w	sl, {r5, r6}
  407982:	f8cd e040 	str.w	lr, [sp, #64]	; 0x40
  407986:	f300 8369 	bgt.w	40805c <_vfiprintf_r+0xac0>
  40798a:	f10a 0a08 	add.w	sl, sl, #8
  40798e:	f10e 0001 	add.w	r0, lr, #1
  407992:	4671      	mov	r1, lr
  407994:	e1ab      	b.n	407cee <_vfiprintf_r+0x752>
  407996:	9608      	str	r6, [sp, #32]
  407998:	f013 0220 	ands.w	r2, r3, #32
  40799c:	f040 838c 	bne.w	4080b8 <_vfiprintf_r+0xb1c>
  4079a0:	f013 0110 	ands.w	r1, r3, #16
  4079a4:	f040 831a 	bne.w	407fdc <_vfiprintf_r+0xa40>
  4079a8:	f013 0240 	ands.w	r2, r3, #64	; 0x40
  4079ac:	f000 8316 	beq.w	407fdc <_vfiprintf_r+0xa40>
  4079b0:	9807      	ldr	r0, [sp, #28]
  4079b2:	460a      	mov	r2, r1
  4079b4:	4601      	mov	r1, r0
  4079b6:	3104      	adds	r1, #4
  4079b8:	8806      	ldrh	r6, [r0, #0]
  4079ba:	9107      	str	r1, [sp, #28]
  4079bc:	2700      	movs	r7, #0
  4079be:	e720      	b.n	407802 <_vfiprintf_r+0x266>
  4079c0:	9608      	str	r6, [sp, #32]
  4079c2:	f043 0310 	orr.w	r3, r3, #16
  4079c6:	e7e7      	b.n	407998 <_vfiprintf_r+0x3fc>
  4079c8:	9608      	str	r6, [sp, #32]
  4079ca:	f043 0310 	orr.w	r3, r3, #16
  4079ce:	e708      	b.n	4077e2 <_vfiprintf_r+0x246>
  4079d0:	f043 0380 	orr.w	r3, r3, #128	; 0x80
  4079d4:	f898 2000 	ldrb.w	r2, [r8]
  4079d8:	e652      	b.n	407680 <_vfiprintf_r+0xe4>
  4079da:	f1a2 0130 	sub.w	r1, r2, #48	; 0x30
  4079de:	2600      	movs	r6, #0
  4079e0:	f818 2b01 	ldrb.w	r2, [r8], #1
  4079e4:	eb06 0686 	add.w	r6, r6, r6, lsl #2
  4079e8:	eb01 0646 	add.w	r6, r1, r6, lsl #1
  4079ec:	f1a2 0130 	sub.w	r1, r2, #48	; 0x30
  4079f0:	2909      	cmp	r1, #9
  4079f2:	d9f5      	bls.n	4079e0 <_vfiprintf_r+0x444>
  4079f4:	e646      	b.n	407684 <_vfiprintf_r+0xe8>
  4079f6:	9608      	str	r6, [sp, #32]
  4079f8:	2800      	cmp	r0, #0
  4079fa:	f040 8408 	bne.w	40820e <_vfiprintf_r+0xc72>
  4079fe:	f043 0310 	orr.w	r3, r3, #16
  407a02:	069e      	lsls	r6, r3, #26
  407a04:	f100 834c 	bmi.w	4080a0 <_vfiprintf_r+0xb04>
  407a08:	06dd      	lsls	r5, r3, #27
  407a0a:	f100 82f3 	bmi.w	407ff4 <_vfiprintf_r+0xa58>
  407a0e:	0658      	lsls	r0, r3, #25
  407a10:	f140 82f0 	bpl.w	407ff4 <_vfiprintf_r+0xa58>
  407a14:	9d07      	ldr	r5, [sp, #28]
  407a16:	f9b5 6000 	ldrsh.w	r6, [r5]
  407a1a:	462a      	mov	r2, r5
  407a1c:	17f7      	asrs	r7, r6, #31
  407a1e:	3204      	adds	r2, #4
  407a20:	4630      	mov	r0, r6
  407a22:	4639      	mov	r1, r7
  407a24:	9207      	str	r2, [sp, #28]
  407a26:	2800      	cmp	r0, #0
  407a28:	f171 0200 	sbcs.w	r2, r1, #0
  407a2c:	f2c0 835d 	blt.w	4080ea <_vfiprintf_r+0xb4e>
  407a30:	1c61      	adds	r1, r4, #1
  407a32:	f89d 5037 	ldrb.w	r5, [sp, #55]	; 0x37
  407a36:	f04f 0201 	mov.w	r2, #1
  407a3a:	f47f aeea 	bne.w	407812 <_vfiprintf_r+0x276>
  407a3e:	ea56 0107 	orrs.w	r1, r6, r7
  407a42:	f000 824d 	beq.w	407ee0 <_vfiprintf_r+0x944>
  407a46:	9302      	str	r3, [sp, #8]
  407a48:	2a01      	cmp	r2, #1
  407a4a:	f000 828c 	beq.w	407f66 <_vfiprintf_r+0x9ca>
  407a4e:	2a02      	cmp	r2, #2
  407a50:	f040 825c 	bne.w	407f0c <_vfiprintf_r+0x970>
  407a54:	980b      	ldr	r0, [sp, #44]	; 0x2c
  407a56:	46cb      	mov	fp, r9
  407a58:	0933      	lsrs	r3, r6, #4
  407a5a:	f006 010f 	and.w	r1, r6, #15
  407a5e:	ea43 7307 	orr.w	r3, r3, r7, lsl #28
  407a62:	093a      	lsrs	r2, r7, #4
  407a64:	461e      	mov	r6, r3
  407a66:	4617      	mov	r7, r2
  407a68:	5c43      	ldrb	r3, [r0, r1]
  407a6a:	f80b 3d01 	strb.w	r3, [fp, #-1]!
  407a6e:	ea56 0307 	orrs.w	r3, r6, r7
  407a72:	d1f1      	bne.n	407a58 <_vfiprintf_r+0x4bc>
  407a74:	eba9 030b 	sub.w	r3, r9, fp
  407a78:	9305      	str	r3, [sp, #20]
  407a7a:	e6e1      	b.n	407840 <_vfiprintf_r+0x2a4>
  407a7c:	2800      	cmp	r0, #0
  407a7e:	f040 83c0 	bne.w	408202 <_vfiprintf_r+0xc66>
  407a82:	0699      	lsls	r1, r3, #26
  407a84:	f100 8367 	bmi.w	408156 <_vfiprintf_r+0xbba>
  407a88:	06da      	lsls	r2, r3, #27
  407a8a:	f100 80f1 	bmi.w	407c70 <_vfiprintf_r+0x6d4>
  407a8e:	065b      	lsls	r3, r3, #25
  407a90:	f140 80ee 	bpl.w	407c70 <_vfiprintf_r+0x6d4>
  407a94:	9a07      	ldr	r2, [sp, #28]
  407a96:	6813      	ldr	r3, [r2, #0]
  407a98:	3204      	adds	r2, #4
  407a9a:	9207      	str	r2, [sp, #28]
  407a9c:	f8bd 200c 	ldrh.w	r2, [sp, #12]
  407aa0:	801a      	strh	r2, [r3, #0]
  407aa2:	e5b8      	b.n	407616 <_vfiprintf_r+0x7a>
  407aa4:	9807      	ldr	r0, [sp, #28]
  407aa6:	4a3d      	ldr	r2, [pc, #244]	; (407b9c <_vfiprintf_r+0x600>)
  407aa8:	9608      	str	r6, [sp, #32]
  407aaa:	920b      	str	r2, [sp, #44]	; 0x2c
  407aac:	6806      	ldr	r6, [r0, #0]
  407aae:	2278      	movs	r2, #120	; 0x78
  407ab0:	2130      	movs	r1, #48	; 0x30
  407ab2:	3004      	adds	r0, #4
  407ab4:	f88d 2039 	strb.w	r2, [sp, #57]	; 0x39
  407ab8:	f043 0302 	orr.w	r3, r3, #2
  407abc:	9007      	str	r0, [sp, #28]
  407abe:	2700      	movs	r7, #0
  407ac0:	f88d 1038 	strb.w	r1, [sp, #56]	; 0x38
  407ac4:	2202      	movs	r2, #2
  407ac6:	e69c      	b.n	407802 <_vfiprintf_r+0x266>
  407ac8:	9608      	str	r6, [sp, #32]
  407aca:	2800      	cmp	r0, #0
  407acc:	d099      	beq.n	407a02 <_vfiprintf_r+0x466>
  407ace:	f88d 5037 	strb.w	r5, [sp, #55]	; 0x37
  407ad2:	e796      	b.n	407a02 <_vfiprintf_r+0x466>
  407ad4:	f898 2000 	ldrb.w	r2, [r8]
  407ad8:	2d00      	cmp	r5, #0
  407ada:	f47f add1 	bne.w	407680 <_vfiprintf_r+0xe4>
  407ade:	2001      	movs	r0, #1
  407ae0:	2520      	movs	r5, #32
  407ae2:	e5cd      	b.n	407680 <_vfiprintf_r+0xe4>
  407ae4:	f043 0301 	orr.w	r3, r3, #1
  407ae8:	f898 2000 	ldrb.w	r2, [r8]
  407aec:	e5c8      	b.n	407680 <_vfiprintf_r+0xe4>
  407aee:	9608      	str	r6, [sp, #32]
  407af0:	2800      	cmp	r0, #0
  407af2:	f040 8393 	bne.w	40821c <_vfiprintf_r+0xc80>
  407af6:	4929      	ldr	r1, [pc, #164]	; (407b9c <_vfiprintf_r+0x600>)
  407af8:	910b      	str	r1, [sp, #44]	; 0x2c
  407afa:	069f      	lsls	r7, r3, #26
  407afc:	f100 82e8 	bmi.w	4080d0 <_vfiprintf_r+0xb34>
  407b00:	9807      	ldr	r0, [sp, #28]
  407b02:	06de      	lsls	r6, r3, #27
  407b04:	4601      	mov	r1, r0
  407b06:	f100 8270 	bmi.w	407fea <_vfiprintf_r+0xa4e>
  407b0a:	065d      	lsls	r5, r3, #25
  407b0c:	f140 826d 	bpl.w	407fea <_vfiprintf_r+0xa4e>
  407b10:	3104      	adds	r1, #4
  407b12:	8806      	ldrh	r6, [r0, #0]
  407b14:	9107      	str	r1, [sp, #28]
  407b16:	2700      	movs	r7, #0
  407b18:	07d8      	lsls	r0, r3, #31
  407b1a:	f140 8222 	bpl.w	407f62 <_vfiprintf_r+0x9c6>
  407b1e:	ea56 0107 	orrs.w	r1, r6, r7
  407b22:	f000 821e 	beq.w	407f62 <_vfiprintf_r+0x9c6>
  407b26:	2130      	movs	r1, #48	; 0x30
  407b28:	f88d 2039 	strb.w	r2, [sp, #57]	; 0x39
  407b2c:	f043 0302 	orr.w	r3, r3, #2
  407b30:	f88d 1038 	strb.w	r1, [sp, #56]	; 0x38
  407b34:	2202      	movs	r2, #2
  407b36:	e664      	b.n	407802 <_vfiprintf_r+0x266>
  407b38:	9608      	str	r6, [sp, #32]
  407b3a:	2800      	cmp	r0, #0
  407b3c:	f040 836b 	bne.w	408216 <_vfiprintf_r+0xc7a>
  407b40:	4917      	ldr	r1, [pc, #92]	; (407ba0 <_vfiprintf_r+0x604>)
  407b42:	910b      	str	r1, [sp, #44]	; 0x2c
  407b44:	e7d9      	b.n	407afa <_vfiprintf_r+0x55e>
  407b46:	9907      	ldr	r1, [sp, #28]
  407b48:	9608      	str	r6, [sp, #32]
  407b4a:	680a      	ldr	r2, [r1, #0]
  407b4c:	f88d 2048 	strb.w	r2, [sp, #72]	; 0x48
  407b50:	f04f 0000 	mov.w	r0, #0
  407b54:	460a      	mov	r2, r1
  407b56:	f88d 0037 	strb.w	r0, [sp, #55]	; 0x37
  407b5a:	3204      	adds	r2, #4
  407b5c:	2001      	movs	r0, #1
  407b5e:	9001      	str	r0, [sp, #4]
  407b60:	9207      	str	r2, [sp, #28]
  407b62:	9005      	str	r0, [sp, #20]
  407b64:	f10d 0b48 	add.w	fp, sp, #72	; 0x48
  407b68:	9302      	str	r3, [sp, #8]
  407b6a:	2400      	movs	r4, #0
  407b6c:	e670      	b.n	407850 <_vfiprintf_r+0x2b4>
  407b6e:	f043 0340 	orr.w	r3, r3, #64	; 0x40
  407b72:	f898 2000 	ldrb.w	r2, [r8]
  407b76:	e583      	b.n	407680 <_vfiprintf_r+0xe4>
  407b78:	f898 2000 	ldrb.w	r2, [r8]
  407b7c:	2a6c      	cmp	r2, #108	; 0x6c
  407b7e:	bf03      	ittte	eq
  407b80:	f898 2001 	ldrbeq.w	r2, [r8, #1]
  407b84:	f043 0320 	orreq.w	r3, r3, #32
  407b88:	f108 0801 	addeq.w	r8, r8, #1
  407b8c:	f043 0310 	orrne.w	r3, r3, #16
  407b90:	e576      	b.n	407680 <_vfiprintf_r+0xe4>
  407b92:	bf00      	nop
  407b94:	0040a894 	.word	0x0040a894
  407b98:	0040a8a4 	.word	0x0040a8a4
  407b9c:	0040a878 	.word	0x0040a878
  407ba0:	0040a864 	.word	0x0040a864
  407ba4:	9907      	ldr	r1, [sp, #28]
  407ba6:	680e      	ldr	r6, [r1, #0]
  407ba8:	460a      	mov	r2, r1
  407baa:	2e00      	cmp	r6, #0
  407bac:	f102 0204 	add.w	r2, r2, #4
  407bb0:	f6ff ae0f 	blt.w	4077d2 <_vfiprintf_r+0x236>
  407bb4:	9207      	str	r2, [sp, #28]
  407bb6:	f898 2000 	ldrb.w	r2, [r8]
  407bba:	e561      	b.n	407680 <_vfiprintf_r+0xe4>
  407bbc:	f898 2000 	ldrb.w	r2, [r8]
  407bc0:	2001      	movs	r0, #1
  407bc2:	252b      	movs	r5, #43	; 0x2b
  407bc4:	e55c      	b.n	407680 <_vfiprintf_r+0xe4>
  407bc6:	9907      	ldr	r1, [sp, #28]
  407bc8:	9608      	str	r6, [sp, #32]
  407bca:	f8d1 b000 	ldr.w	fp, [r1]
  407bce:	f04f 0200 	mov.w	r2, #0
  407bd2:	f88d 2037 	strb.w	r2, [sp, #55]	; 0x37
  407bd6:	1d0e      	adds	r6, r1, #4
  407bd8:	f1bb 0f00 	cmp.w	fp, #0
  407bdc:	f000 82e5 	beq.w	4081aa <_vfiprintf_r+0xc0e>
  407be0:	1c67      	adds	r7, r4, #1
  407be2:	f000 82c4 	beq.w	40816e <_vfiprintf_r+0xbd2>
  407be6:	4622      	mov	r2, r4
  407be8:	2100      	movs	r1, #0
  407bea:	4658      	mov	r0, fp
  407bec:	9301      	str	r3, [sp, #4]
  407bee:	f001 fbd7 	bl	4093a0 <memchr>
  407bf2:	9b01      	ldr	r3, [sp, #4]
  407bf4:	2800      	cmp	r0, #0
  407bf6:	f000 82e5 	beq.w	4081c4 <_vfiprintf_r+0xc28>
  407bfa:	eba0 020b 	sub.w	r2, r0, fp
  407bfe:	9205      	str	r2, [sp, #20]
  407c00:	9607      	str	r6, [sp, #28]
  407c02:	9302      	str	r3, [sp, #8]
  407c04:	f89d 5037 	ldrb.w	r5, [sp, #55]	; 0x37
  407c08:	2400      	movs	r4, #0
  407c0a:	e619      	b.n	407840 <_vfiprintf_r+0x2a4>
  407c0c:	f898 2000 	ldrb.w	r2, [r8]
  407c10:	2a2a      	cmp	r2, #42	; 0x2a
  407c12:	f108 0701 	add.w	r7, r8, #1
  407c16:	f000 82e9 	beq.w	4081ec <_vfiprintf_r+0xc50>
  407c1a:	f1a2 0130 	sub.w	r1, r2, #48	; 0x30
  407c1e:	2909      	cmp	r1, #9
  407c20:	46b8      	mov	r8, r7
  407c22:	f04f 0400 	mov.w	r4, #0
  407c26:	f63f ad2d 	bhi.w	407684 <_vfiprintf_r+0xe8>
  407c2a:	f818 2b01 	ldrb.w	r2, [r8], #1
  407c2e:	eb04 0484 	add.w	r4, r4, r4, lsl #2
  407c32:	eb01 0444 	add.w	r4, r1, r4, lsl #1
  407c36:	f1a2 0130 	sub.w	r1, r2, #48	; 0x30
  407c3a:	2909      	cmp	r1, #9
  407c3c:	d9f5      	bls.n	407c2a <_vfiprintf_r+0x68e>
  407c3e:	e521      	b.n	407684 <_vfiprintf_r+0xe8>
  407c40:	f043 0320 	orr.w	r3, r3, #32
  407c44:	f898 2000 	ldrb.w	r2, [r8]
  407c48:	e51a      	b.n	407680 <_vfiprintf_r+0xe4>
  407c4a:	9608      	str	r6, [sp, #32]
  407c4c:	2800      	cmp	r0, #0
  407c4e:	f040 82db 	bne.w	408208 <_vfiprintf_r+0xc6c>
  407c52:	2a00      	cmp	r2, #0
  407c54:	f000 80e7 	beq.w	407e26 <_vfiprintf_r+0x88a>
  407c58:	2101      	movs	r1, #1
  407c5a:	f88d 2048 	strb.w	r2, [sp, #72]	; 0x48
  407c5e:	f04f 0200 	mov.w	r2, #0
  407c62:	9101      	str	r1, [sp, #4]
  407c64:	f88d 2037 	strb.w	r2, [sp, #55]	; 0x37
  407c68:	9105      	str	r1, [sp, #20]
  407c6a:	f10d 0b48 	add.w	fp, sp, #72	; 0x48
  407c6e:	e77b      	b.n	407b68 <_vfiprintf_r+0x5cc>
  407c70:	9a07      	ldr	r2, [sp, #28]
  407c72:	6813      	ldr	r3, [r2, #0]
  407c74:	3204      	adds	r2, #4
  407c76:	9207      	str	r2, [sp, #28]
  407c78:	9a03      	ldr	r2, [sp, #12]
  407c7a:	601a      	str	r2, [r3, #0]
  407c7c:	e4cb      	b.n	407616 <_vfiprintf_r+0x7a>
  407c7e:	aa0f      	add	r2, sp, #60	; 0x3c
  407c80:	9904      	ldr	r1, [sp, #16]
  407c82:	4620      	mov	r0, r4
  407c84:	f7ff fc4a 	bl	40751c <__sprint_r.part.0>
  407c88:	2800      	cmp	r0, #0
  407c8a:	f040 8139 	bne.w	407f00 <_vfiprintf_r+0x964>
  407c8e:	9910      	ldr	r1, [sp, #64]	; 0x40
  407c90:	9a11      	ldr	r2, [sp, #68]	; 0x44
  407c92:	f101 0c01 	add.w	ip, r1, #1
  407c96:	46ce      	mov	lr, r9
  407c98:	e5ff      	b.n	40789a <_vfiprintf_r+0x2fe>
  407c9a:	9910      	ldr	r1, [sp, #64]	; 0x40
  407c9c:	9a11      	ldr	r2, [sp, #68]	; 0x44
  407c9e:	1c48      	adds	r0, r1, #1
  407ca0:	f89d 5037 	ldrb.w	r5, [sp, #55]	; 0x37
  407ca4:	2d00      	cmp	r5, #0
  407ca6:	f43f ae22 	beq.w	4078ee <_vfiprintf_r+0x352>
  407caa:	3201      	adds	r2, #1
  407cac:	f10d 0537 	add.w	r5, sp, #55	; 0x37
  407cb0:	2101      	movs	r1, #1
  407cb2:	2807      	cmp	r0, #7
  407cb4:	9211      	str	r2, [sp, #68]	; 0x44
  407cb6:	9010      	str	r0, [sp, #64]	; 0x40
  407cb8:	f8ca 5000 	str.w	r5, [sl]
  407cbc:	f8ca 1004 	str.w	r1, [sl, #4]
  407cc0:	f340 8108 	ble.w	407ed4 <_vfiprintf_r+0x938>
  407cc4:	2a00      	cmp	r2, #0
  407cc6:	f040 81bc 	bne.w	408042 <_vfiprintf_r+0xaa6>
  407cca:	9b09      	ldr	r3, [sp, #36]	; 0x24
  407ccc:	2b00      	cmp	r3, #0
  407cce:	f43f ae1f 	beq.w	407910 <_vfiprintf_r+0x374>
  407cd2:	ab0e      	add	r3, sp, #56	; 0x38
  407cd4:	2202      	movs	r2, #2
  407cd6:	4608      	mov	r0, r1
  407cd8:	931c      	str	r3, [sp, #112]	; 0x70
  407cda:	921d      	str	r2, [sp, #116]	; 0x74
  407cdc:	46ca      	mov	sl, r9
  407cde:	4601      	mov	r1, r0
  407ce0:	f10a 0a08 	add.w	sl, sl, #8
  407ce4:	3001      	adds	r0, #1
  407ce6:	9b0a      	ldr	r3, [sp, #40]	; 0x28
  407ce8:	2b80      	cmp	r3, #128	; 0x80
  407cea:	f43f ae19 	beq.w	407920 <_vfiprintf_r+0x384>
  407cee:	9b05      	ldr	r3, [sp, #20]
  407cf0:	1ae4      	subs	r4, r4, r3
  407cf2:	2c00      	cmp	r4, #0
  407cf4:	dd2e      	ble.n	407d54 <_vfiprintf_r+0x7b8>
  407cf6:	2c10      	cmp	r4, #16
  407cf8:	4db3      	ldr	r5, [pc, #716]	; (407fc8 <_vfiprintf_r+0xa2c>)
  407cfa:	dd1e      	ble.n	407d3a <_vfiprintf_r+0x79e>
  407cfc:	46d6      	mov	lr, sl
  407cfe:	2610      	movs	r6, #16
  407d00:	9f06      	ldr	r7, [sp, #24]
  407d02:	f8dd a010 	ldr.w	sl, [sp, #16]
  407d06:	e006      	b.n	407d16 <_vfiprintf_r+0x77a>
  407d08:	1c88      	adds	r0, r1, #2
  407d0a:	f10e 0e08 	add.w	lr, lr, #8
  407d0e:	4619      	mov	r1, r3
  407d10:	3c10      	subs	r4, #16
  407d12:	2c10      	cmp	r4, #16
  407d14:	dd10      	ble.n	407d38 <_vfiprintf_r+0x79c>
  407d16:	1c4b      	adds	r3, r1, #1
  407d18:	3210      	adds	r2, #16
  407d1a:	2b07      	cmp	r3, #7
  407d1c:	9211      	str	r2, [sp, #68]	; 0x44
  407d1e:	e88e 0060 	stmia.w	lr, {r5, r6}
  407d22:	9310      	str	r3, [sp, #64]	; 0x40
  407d24:	ddf0      	ble.n	407d08 <_vfiprintf_r+0x76c>
  407d26:	2a00      	cmp	r2, #0
  407d28:	d165      	bne.n	407df6 <_vfiprintf_r+0x85a>
  407d2a:	3c10      	subs	r4, #16
  407d2c:	2c10      	cmp	r4, #16
  407d2e:	f04f 0001 	mov.w	r0, #1
  407d32:	4611      	mov	r1, r2
  407d34:	46ce      	mov	lr, r9
  407d36:	dcee      	bgt.n	407d16 <_vfiprintf_r+0x77a>
  407d38:	46f2      	mov	sl, lr
  407d3a:	4422      	add	r2, r4
  407d3c:	2807      	cmp	r0, #7
  407d3e:	9211      	str	r2, [sp, #68]	; 0x44
  407d40:	f8ca 5000 	str.w	r5, [sl]
  407d44:	f8ca 4004 	str.w	r4, [sl, #4]
  407d48:	9010      	str	r0, [sp, #64]	; 0x40
  407d4a:	f300 8085 	bgt.w	407e58 <_vfiprintf_r+0x8bc>
  407d4e:	f10a 0a08 	add.w	sl, sl, #8
  407d52:	3001      	adds	r0, #1
  407d54:	9905      	ldr	r1, [sp, #20]
  407d56:	f8ca b000 	str.w	fp, [sl]
  407d5a:	440a      	add	r2, r1
  407d5c:	2807      	cmp	r0, #7
  407d5e:	9211      	str	r2, [sp, #68]	; 0x44
  407d60:	f8ca 1004 	str.w	r1, [sl, #4]
  407d64:	9010      	str	r0, [sp, #64]	; 0x40
  407d66:	f340 8082 	ble.w	407e6e <_vfiprintf_r+0x8d2>
  407d6a:	2a00      	cmp	r2, #0
  407d6c:	f040 8118 	bne.w	407fa0 <_vfiprintf_r+0xa04>
  407d70:	9b02      	ldr	r3, [sp, #8]
  407d72:	9210      	str	r2, [sp, #64]	; 0x40
  407d74:	0758      	lsls	r0, r3, #29
  407d76:	d535      	bpl.n	407de4 <_vfiprintf_r+0x848>
  407d78:	9b08      	ldr	r3, [sp, #32]
  407d7a:	9901      	ldr	r1, [sp, #4]
  407d7c:	1a5c      	subs	r4, r3, r1
  407d7e:	2c00      	cmp	r4, #0
  407d80:	f340 80e7 	ble.w	407f52 <_vfiprintf_r+0x9b6>
  407d84:	46ca      	mov	sl, r9
  407d86:	2c10      	cmp	r4, #16
  407d88:	f340 8218 	ble.w	4081bc <_vfiprintf_r+0xc20>
  407d8c:	9910      	ldr	r1, [sp, #64]	; 0x40
  407d8e:	4e8f      	ldr	r6, [pc, #572]	; (407fcc <_vfiprintf_r+0xa30>)
  407d90:	9f06      	ldr	r7, [sp, #24]
  407d92:	f8dd b010 	ldr.w	fp, [sp, #16]
  407d96:	2510      	movs	r5, #16
  407d98:	e006      	b.n	407da8 <_vfiprintf_r+0x80c>
  407d9a:	1c88      	adds	r0, r1, #2
  407d9c:	f10a 0a08 	add.w	sl, sl, #8
  407da0:	4619      	mov	r1, r3
  407da2:	3c10      	subs	r4, #16
  407da4:	2c10      	cmp	r4, #16
  407da6:	dd11      	ble.n	407dcc <_vfiprintf_r+0x830>
  407da8:	1c4b      	adds	r3, r1, #1
  407daa:	3210      	adds	r2, #16
  407dac:	2b07      	cmp	r3, #7
  407dae:	9211      	str	r2, [sp, #68]	; 0x44
  407db0:	f8ca 6000 	str.w	r6, [sl]
  407db4:	f8ca 5004 	str.w	r5, [sl, #4]
  407db8:	9310      	str	r3, [sp, #64]	; 0x40
  407dba:	ddee      	ble.n	407d9a <_vfiprintf_r+0x7fe>
  407dbc:	bb42      	cbnz	r2, 407e10 <_vfiprintf_r+0x874>
  407dbe:	3c10      	subs	r4, #16
  407dc0:	2c10      	cmp	r4, #16
  407dc2:	f04f 0001 	mov.w	r0, #1
  407dc6:	4611      	mov	r1, r2
  407dc8:	46ca      	mov	sl, r9
  407dca:	dced      	bgt.n	407da8 <_vfiprintf_r+0x80c>
  407dcc:	4422      	add	r2, r4
  407dce:	2807      	cmp	r0, #7
  407dd0:	9211      	str	r2, [sp, #68]	; 0x44
  407dd2:	f8ca 6000 	str.w	r6, [sl]
  407dd6:	f8ca 4004 	str.w	r4, [sl, #4]
  407dda:	9010      	str	r0, [sp, #64]	; 0x40
  407ddc:	dd51      	ble.n	407e82 <_vfiprintf_r+0x8e6>
  407dde:	2a00      	cmp	r2, #0
  407de0:	f040 819b 	bne.w	40811a <_vfiprintf_r+0xb7e>
  407de4:	9b03      	ldr	r3, [sp, #12]
  407de6:	9a08      	ldr	r2, [sp, #32]
  407de8:	9901      	ldr	r1, [sp, #4]
  407dea:	428a      	cmp	r2, r1
  407dec:	bfac      	ite	ge
  407dee:	189b      	addge	r3, r3, r2
  407df0:	185b      	addlt	r3, r3, r1
  407df2:	9303      	str	r3, [sp, #12]
  407df4:	e04e      	b.n	407e94 <_vfiprintf_r+0x8f8>
  407df6:	aa0f      	add	r2, sp, #60	; 0x3c
  407df8:	4651      	mov	r1, sl
  407dfa:	4638      	mov	r0, r7
  407dfc:	f7ff fb8e 	bl	40751c <__sprint_r.part.0>
  407e00:	2800      	cmp	r0, #0
  407e02:	f040 813f 	bne.w	408084 <_vfiprintf_r+0xae8>
  407e06:	9910      	ldr	r1, [sp, #64]	; 0x40
  407e08:	9a11      	ldr	r2, [sp, #68]	; 0x44
  407e0a:	1c48      	adds	r0, r1, #1
  407e0c:	46ce      	mov	lr, r9
  407e0e:	e77f      	b.n	407d10 <_vfiprintf_r+0x774>
  407e10:	aa0f      	add	r2, sp, #60	; 0x3c
  407e12:	4659      	mov	r1, fp
  407e14:	4638      	mov	r0, r7
  407e16:	f7ff fb81 	bl	40751c <__sprint_r.part.0>
  407e1a:	b960      	cbnz	r0, 407e36 <_vfiprintf_r+0x89a>
  407e1c:	9910      	ldr	r1, [sp, #64]	; 0x40
  407e1e:	9a11      	ldr	r2, [sp, #68]	; 0x44
  407e20:	1c48      	adds	r0, r1, #1
  407e22:	46ca      	mov	sl, r9
  407e24:	e7bd      	b.n	407da2 <_vfiprintf_r+0x806>
  407e26:	9b11      	ldr	r3, [sp, #68]	; 0x44
  407e28:	f8dd b010 	ldr.w	fp, [sp, #16]
  407e2c:	2b00      	cmp	r3, #0
  407e2e:	f040 81d4 	bne.w	4081da <_vfiprintf_r+0xc3e>
  407e32:	2300      	movs	r3, #0
  407e34:	9310      	str	r3, [sp, #64]	; 0x40
  407e36:	f8db 3064 	ldr.w	r3, [fp, #100]	; 0x64
  407e3a:	f013 0f01 	tst.w	r3, #1
  407e3e:	f8bb 300c 	ldrh.w	r3, [fp, #12]
  407e42:	d102      	bne.n	407e4a <_vfiprintf_r+0x8ae>
  407e44:	059a      	lsls	r2, r3, #22
  407e46:	f140 80de 	bpl.w	408006 <_vfiprintf_r+0xa6a>
  407e4a:	065b      	lsls	r3, r3, #25
  407e4c:	f53f acb2 	bmi.w	4077b4 <_vfiprintf_r+0x218>
  407e50:	9803      	ldr	r0, [sp, #12]
  407e52:	b02d      	add	sp, #180	; 0xb4
  407e54:	e8bd 8ff0 	ldmia.w	sp!, {r4, r5, r6, r7, r8, r9, sl, fp, pc}
  407e58:	2a00      	cmp	r2, #0
  407e5a:	f040 8106 	bne.w	40806a <_vfiprintf_r+0xace>
  407e5e:	9a05      	ldr	r2, [sp, #20]
  407e60:	921d      	str	r2, [sp, #116]	; 0x74
  407e62:	2301      	movs	r3, #1
  407e64:	9211      	str	r2, [sp, #68]	; 0x44
  407e66:	f8cd b070 	str.w	fp, [sp, #112]	; 0x70
  407e6a:	9310      	str	r3, [sp, #64]	; 0x40
  407e6c:	46ca      	mov	sl, r9
  407e6e:	f10a 0a08 	add.w	sl, sl, #8
  407e72:	9b02      	ldr	r3, [sp, #8]
  407e74:	0759      	lsls	r1, r3, #29
  407e76:	d504      	bpl.n	407e82 <_vfiprintf_r+0x8e6>
  407e78:	9b08      	ldr	r3, [sp, #32]
  407e7a:	9901      	ldr	r1, [sp, #4]
  407e7c:	1a5c      	subs	r4, r3, r1
  407e7e:	2c00      	cmp	r4, #0
  407e80:	dc81      	bgt.n	407d86 <_vfiprintf_r+0x7ea>
  407e82:	9b03      	ldr	r3, [sp, #12]
  407e84:	9908      	ldr	r1, [sp, #32]
  407e86:	9801      	ldr	r0, [sp, #4]
  407e88:	4281      	cmp	r1, r0
  407e8a:	bfac      	ite	ge
  407e8c:	185b      	addge	r3, r3, r1
  407e8e:	181b      	addlt	r3, r3, r0
  407e90:	9303      	str	r3, [sp, #12]
  407e92:	bb72      	cbnz	r2, 407ef2 <_vfiprintf_r+0x956>
  407e94:	2300      	movs	r3, #0
  407e96:	9310      	str	r3, [sp, #64]	; 0x40
  407e98:	46ca      	mov	sl, r9
  407e9a:	f7ff bbbc 	b.w	407616 <_vfiprintf_r+0x7a>
  407e9e:	aa0f      	add	r2, sp, #60	; 0x3c
  407ea0:	9904      	ldr	r1, [sp, #16]
  407ea2:	4620      	mov	r0, r4
  407ea4:	f7ff fb3a 	bl	40751c <__sprint_r.part.0>
  407ea8:	bb50      	cbnz	r0, 407f00 <_vfiprintf_r+0x964>
  407eaa:	9910      	ldr	r1, [sp, #64]	; 0x40
  407eac:	9a11      	ldr	r2, [sp, #68]	; 0x44
  407eae:	f101 0e01 	add.w	lr, r1, #1
  407eb2:	46cc      	mov	ip, r9
  407eb4:	e548      	b.n	407948 <_vfiprintf_r+0x3ac>
  407eb6:	2a00      	cmp	r2, #0
  407eb8:	f040 8140 	bne.w	40813c <_vfiprintf_r+0xba0>
  407ebc:	f89d 1037 	ldrb.w	r1, [sp, #55]	; 0x37
  407ec0:	2900      	cmp	r1, #0
  407ec2:	f000 811b 	beq.w	4080fc <_vfiprintf_r+0xb60>
  407ec6:	2201      	movs	r2, #1
  407ec8:	f10d 0137 	add.w	r1, sp, #55	; 0x37
  407ecc:	4610      	mov	r0, r2
  407ece:	921d      	str	r2, [sp, #116]	; 0x74
  407ed0:	911c      	str	r1, [sp, #112]	; 0x70
  407ed2:	46ca      	mov	sl, r9
  407ed4:	4601      	mov	r1, r0
  407ed6:	f10a 0a08 	add.w	sl, sl, #8
  407eda:	3001      	adds	r0, #1
  407edc:	e507      	b.n	4078ee <_vfiprintf_r+0x352>
  407ede:	9b02      	ldr	r3, [sp, #8]
  407ee0:	2a01      	cmp	r2, #1
  407ee2:	f000 8098 	beq.w	408016 <_vfiprintf_r+0xa7a>
  407ee6:	2a02      	cmp	r2, #2
  407ee8:	d10d      	bne.n	407f06 <_vfiprintf_r+0x96a>
  407eea:	9302      	str	r3, [sp, #8]
  407eec:	2600      	movs	r6, #0
  407eee:	2700      	movs	r7, #0
  407ef0:	e5b0      	b.n	407a54 <_vfiprintf_r+0x4b8>
  407ef2:	aa0f      	add	r2, sp, #60	; 0x3c
  407ef4:	9904      	ldr	r1, [sp, #16]
  407ef6:	9806      	ldr	r0, [sp, #24]
  407ef8:	f7ff fb10 	bl	40751c <__sprint_r.part.0>
  407efc:	2800      	cmp	r0, #0
  407efe:	d0c9      	beq.n	407e94 <_vfiprintf_r+0x8f8>
  407f00:	f8dd b010 	ldr.w	fp, [sp, #16]
  407f04:	e797      	b.n	407e36 <_vfiprintf_r+0x89a>
  407f06:	9302      	str	r3, [sp, #8]
  407f08:	2600      	movs	r6, #0
  407f0a:	2700      	movs	r7, #0
  407f0c:	4649      	mov	r1, r9
  407f0e:	e000      	b.n	407f12 <_vfiprintf_r+0x976>
  407f10:	4659      	mov	r1, fp
  407f12:	08f2      	lsrs	r2, r6, #3
  407f14:	ea42 7247 	orr.w	r2, r2, r7, lsl #29
  407f18:	08f8      	lsrs	r0, r7, #3
  407f1a:	f006 0307 	and.w	r3, r6, #7
  407f1e:	4607      	mov	r7, r0
  407f20:	4616      	mov	r6, r2
  407f22:	3330      	adds	r3, #48	; 0x30
  407f24:	ea56 0207 	orrs.w	r2, r6, r7
  407f28:	f801 3c01 	strb.w	r3, [r1, #-1]
  407f2c:	f101 3bff 	add.w	fp, r1, #4294967295
  407f30:	d1ee      	bne.n	407f10 <_vfiprintf_r+0x974>
  407f32:	9a02      	ldr	r2, [sp, #8]
  407f34:	07d6      	lsls	r6, r2, #31
  407f36:	f57f ad9d 	bpl.w	407a74 <_vfiprintf_r+0x4d8>
  407f3a:	2b30      	cmp	r3, #48	; 0x30
  407f3c:	f43f ad9a 	beq.w	407a74 <_vfiprintf_r+0x4d8>
  407f40:	3902      	subs	r1, #2
  407f42:	2330      	movs	r3, #48	; 0x30
  407f44:	f80b 3c01 	strb.w	r3, [fp, #-1]
  407f48:	eba9 0301 	sub.w	r3, r9, r1
  407f4c:	9305      	str	r3, [sp, #20]
  407f4e:	468b      	mov	fp, r1
  407f50:	e476      	b.n	407840 <_vfiprintf_r+0x2a4>
  407f52:	9b03      	ldr	r3, [sp, #12]
  407f54:	9a08      	ldr	r2, [sp, #32]
  407f56:	428a      	cmp	r2, r1
  407f58:	bfac      	ite	ge
  407f5a:	189b      	addge	r3, r3, r2
  407f5c:	185b      	addlt	r3, r3, r1
  407f5e:	9303      	str	r3, [sp, #12]
  407f60:	e798      	b.n	407e94 <_vfiprintf_r+0x8f8>
  407f62:	2202      	movs	r2, #2
  407f64:	e44d      	b.n	407802 <_vfiprintf_r+0x266>
  407f66:	2f00      	cmp	r7, #0
  407f68:	bf08      	it	eq
  407f6a:	2e0a      	cmpeq	r6, #10
  407f6c:	d352      	bcc.n	408014 <_vfiprintf_r+0xa78>
  407f6e:	46cb      	mov	fp, r9
  407f70:	4630      	mov	r0, r6
  407f72:	4639      	mov	r1, r7
  407f74:	220a      	movs	r2, #10
  407f76:	2300      	movs	r3, #0
  407f78:	f001 fe9c 	bl	409cb4 <__aeabi_uldivmod>
  407f7c:	3230      	adds	r2, #48	; 0x30
  407f7e:	f80b 2d01 	strb.w	r2, [fp, #-1]!
  407f82:	4630      	mov	r0, r6
  407f84:	4639      	mov	r1, r7
  407f86:	2300      	movs	r3, #0
  407f88:	220a      	movs	r2, #10
  407f8a:	f001 fe93 	bl	409cb4 <__aeabi_uldivmod>
  407f8e:	4606      	mov	r6, r0
  407f90:	460f      	mov	r7, r1
  407f92:	ea56 0307 	orrs.w	r3, r6, r7
  407f96:	d1eb      	bne.n	407f70 <_vfiprintf_r+0x9d4>
  407f98:	e56c      	b.n	407a74 <_vfiprintf_r+0x4d8>
  407f9a:	9405      	str	r4, [sp, #20]
  407f9c:	46cb      	mov	fp, r9
  407f9e:	e44f      	b.n	407840 <_vfiprintf_r+0x2a4>
  407fa0:	aa0f      	add	r2, sp, #60	; 0x3c
  407fa2:	9904      	ldr	r1, [sp, #16]
  407fa4:	9806      	ldr	r0, [sp, #24]
  407fa6:	f7ff fab9 	bl	40751c <__sprint_r.part.0>
  407faa:	2800      	cmp	r0, #0
  407fac:	d1a8      	bne.n	407f00 <_vfiprintf_r+0x964>
  407fae:	9a11      	ldr	r2, [sp, #68]	; 0x44
  407fb0:	46ca      	mov	sl, r9
  407fb2:	e75e      	b.n	407e72 <_vfiprintf_r+0x8d6>
  407fb4:	aa0f      	add	r2, sp, #60	; 0x3c
  407fb6:	9904      	ldr	r1, [sp, #16]
  407fb8:	9806      	ldr	r0, [sp, #24]
  407fba:	f7ff faaf 	bl	40751c <__sprint_r.part.0>
  407fbe:	2800      	cmp	r0, #0
  407fc0:	d19e      	bne.n	407f00 <_vfiprintf_r+0x964>
  407fc2:	46ca      	mov	sl, r9
  407fc4:	f7ff bbc0 	b.w	407748 <_vfiprintf_r+0x1ac>
  407fc8:	0040a8a4 	.word	0x0040a8a4
  407fcc:	0040a894 	.word	0x0040a894
  407fd0:	3104      	adds	r1, #4
  407fd2:	6816      	ldr	r6, [r2, #0]
  407fd4:	9107      	str	r1, [sp, #28]
  407fd6:	2201      	movs	r2, #1
  407fd8:	2700      	movs	r7, #0
  407fda:	e412      	b.n	407802 <_vfiprintf_r+0x266>
  407fdc:	9807      	ldr	r0, [sp, #28]
  407fde:	4601      	mov	r1, r0
  407fe0:	3104      	adds	r1, #4
  407fe2:	6806      	ldr	r6, [r0, #0]
  407fe4:	9107      	str	r1, [sp, #28]
  407fe6:	2700      	movs	r7, #0
  407fe8:	e40b      	b.n	407802 <_vfiprintf_r+0x266>
  407fea:	680e      	ldr	r6, [r1, #0]
  407fec:	3104      	adds	r1, #4
  407fee:	9107      	str	r1, [sp, #28]
  407ff0:	2700      	movs	r7, #0
  407ff2:	e591      	b.n	407b18 <_vfiprintf_r+0x57c>
  407ff4:	9907      	ldr	r1, [sp, #28]
  407ff6:	680e      	ldr	r6, [r1, #0]
  407ff8:	460a      	mov	r2, r1
  407ffa:	17f7      	asrs	r7, r6, #31
  407ffc:	3204      	adds	r2, #4
  407ffe:	9207      	str	r2, [sp, #28]
  408000:	4630      	mov	r0, r6
  408002:	4639      	mov	r1, r7
  408004:	e50f      	b.n	407a26 <_vfiprintf_r+0x48a>
  408006:	f8db 0058 	ldr.w	r0, [fp, #88]	; 0x58
  40800a:	f000 fe7f 	bl	408d0c <__retarget_lock_release_recursive>
  40800e:	f8bb 300c 	ldrh.w	r3, [fp, #12]
  408012:	e71a      	b.n	407e4a <_vfiprintf_r+0x8ae>
  408014:	9b02      	ldr	r3, [sp, #8]
  408016:	9302      	str	r3, [sp, #8]
  408018:	f10d 0bb0 	add.w	fp, sp, #176	; 0xb0
  40801c:	3630      	adds	r6, #48	; 0x30
  40801e:	2301      	movs	r3, #1
  408020:	f80b 6d41 	strb.w	r6, [fp, #-65]!
  408024:	9305      	str	r3, [sp, #20]
  408026:	e40b      	b.n	407840 <_vfiprintf_r+0x2a4>
  408028:	aa0f      	add	r2, sp, #60	; 0x3c
  40802a:	9904      	ldr	r1, [sp, #16]
  40802c:	9806      	ldr	r0, [sp, #24]
  40802e:	f7ff fa75 	bl	40751c <__sprint_r.part.0>
  408032:	2800      	cmp	r0, #0
  408034:	f47f af64 	bne.w	407f00 <_vfiprintf_r+0x964>
  408038:	9910      	ldr	r1, [sp, #64]	; 0x40
  40803a:	9a11      	ldr	r2, [sp, #68]	; 0x44
  40803c:	1c48      	adds	r0, r1, #1
  40803e:	46ca      	mov	sl, r9
  408040:	e651      	b.n	407ce6 <_vfiprintf_r+0x74a>
  408042:	aa0f      	add	r2, sp, #60	; 0x3c
  408044:	9904      	ldr	r1, [sp, #16]
  408046:	9806      	ldr	r0, [sp, #24]
  408048:	f7ff fa68 	bl	40751c <__sprint_r.part.0>
  40804c:	2800      	cmp	r0, #0
  40804e:	f47f af57 	bne.w	407f00 <_vfiprintf_r+0x964>
  408052:	9910      	ldr	r1, [sp, #64]	; 0x40
  408054:	9a11      	ldr	r2, [sp, #68]	; 0x44
  408056:	1c48      	adds	r0, r1, #1
  408058:	46ca      	mov	sl, r9
  40805a:	e448      	b.n	4078ee <_vfiprintf_r+0x352>
  40805c:	2a00      	cmp	r2, #0
  40805e:	f040 8091 	bne.w	408184 <_vfiprintf_r+0xbe8>
  408062:	2001      	movs	r0, #1
  408064:	4611      	mov	r1, r2
  408066:	46ca      	mov	sl, r9
  408068:	e641      	b.n	407cee <_vfiprintf_r+0x752>
  40806a:	aa0f      	add	r2, sp, #60	; 0x3c
  40806c:	9904      	ldr	r1, [sp, #16]
  40806e:	9806      	ldr	r0, [sp, #24]
  408070:	f7ff fa54 	bl	40751c <__sprint_r.part.0>
  408074:	2800      	cmp	r0, #0
  408076:	f47f af43 	bne.w	407f00 <_vfiprintf_r+0x964>
  40807a:	9810      	ldr	r0, [sp, #64]	; 0x40
  40807c:	9a11      	ldr	r2, [sp, #68]	; 0x44
  40807e:	3001      	adds	r0, #1
  408080:	46ca      	mov	sl, r9
  408082:	e667      	b.n	407d54 <_vfiprintf_r+0x7b8>
  408084:	46d3      	mov	fp, sl
  408086:	e6d6      	b.n	407e36 <_vfiprintf_r+0x89a>
  408088:	9e07      	ldr	r6, [sp, #28]
  40808a:	3607      	adds	r6, #7
  40808c:	f026 0207 	bic.w	r2, r6, #7
  408090:	f102 0108 	add.w	r1, r2, #8
  408094:	e9d2 6700 	ldrd	r6, r7, [r2]
  408098:	9107      	str	r1, [sp, #28]
  40809a:	2201      	movs	r2, #1
  40809c:	f7ff bbb1 	b.w	407802 <_vfiprintf_r+0x266>
  4080a0:	9e07      	ldr	r6, [sp, #28]
  4080a2:	3607      	adds	r6, #7
  4080a4:	f026 0607 	bic.w	r6, r6, #7
  4080a8:	e9d6 0100 	ldrd	r0, r1, [r6]
  4080ac:	f106 0208 	add.w	r2, r6, #8
  4080b0:	9207      	str	r2, [sp, #28]
  4080b2:	4606      	mov	r6, r0
  4080b4:	460f      	mov	r7, r1
  4080b6:	e4b6      	b.n	407a26 <_vfiprintf_r+0x48a>
  4080b8:	9e07      	ldr	r6, [sp, #28]
  4080ba:	3607      	adds	r6, #7
  4080bc:	f026 0207 	bic.w	r2, r6, #7
  4080c0:	f102 0108 	add.w	r1, r2, #8
  4080c4:	e9d2 6700 	ldrd	r6, r7, [r2]
  4080c8:	9107      	str	r1, [sp, #28]
  4080ca:	2200      	movs	r2, #0
  4080cc:	f7ff bb99 	b.w	407802 <_vfiprintf_r+0x266>
  4080d0:	9e07      	ldr	r6, [sp, #28]
  4080d2:	3607      	adds	r6, #7
  4080d4:	f026 0107 	bic.w	r1, r6, #7
  4080d8:	f101 0008 	add.w	r0, r1, #8
  4080dc:	9007      	str	r0, [sp, #28]
  4080de:	e9d1 6700 	ldrd	r6, r7, [r1]
  4080e2:	e519      	b.n	407b18 <_vfiprintf_r+0x57c>
  4080e4:	46cb      	mov	fp, r9
  4080e6:	f7ff bbab 	b.w	407840 <_vfiprintf_r+0x2a4>
  4080ea:	252d      	movs	r5, #45	; 0x2d
  4080ec:	4276      	negs	r6, r6
  4080ee:	eb67 0747 	sbc.w	r7, r7, r7, lsl #1
  4080f2:	f88d 5037 	strb.w	r5, [sp, #55]	; 0x37
  4080f6:	2201      	movs	r2, #1
  4080f8:	f7ff bb88 	b.w	40780c <_vfiprintf_r+0x270>
  4080fc:	9b09      	ldr	r3, [sp, #36]	; 0x24
  4080fe:	b9b3      	cbnz	r3, 40812e <_vfiprintf_r+0xb92>
  408100:	4611      	mov	r1, r2
  408102:	2001      	movs	r0, #1
  408104:	46ca      	mov	sl, r9
  408106:	e5f2      	b.n	407cee <_vfiprintf_r+0x752>
  408108:	f8db 0058 	ldr.w	r0, [fp, #88]	; 0x58
  40810c:	f000 fdfe 	bl	408d0c <__retarget_lock_release_recursive>
  408110:	f04f 33ff 	mov.w	r3, #4294967295
  408114:	9303      	str	r3, [sp, #12]
  408116:	f7ff bb50 	b.w	4077ba <_vfiprintf_r+0x21e>
  40811a:	aa0f      	add	r2, sp, #60	; 0x3c
  40811c:	9904      	ldr	r1, [sp, #16]
  40811e:	9806      	ldr	r0, [sp, #24]
  408120:	f7ff f9fc 	bl	40751c <__sprint_r.part.0>
  408124:	2800      	cmp	r0, #0
  408126:	f47f aeeb 	bne.w	407f00 <_vfiprintf_r+0x964>
  40812a:	9a11      	ldr	r2, [sp, #68]	; 0x44
  40812c:	e6a9      	b.n	407e82 <_vfiprintf_r+0x8e6>
  40812e:	ab0e      	add	r3, sp, #56	; 0x38
  408130:	2202      	movs	r2, #2
  408132:	931c      	str	r3, [sp, #112]	; 0x70
  408134:	921d      	str	r2, [sp, #116]	; 0x74
  408136:	2001      	movs	r0, #1
  408138:	46ca      	mov	sl, r9
  40813a:	e5d0      	b.n	407cde <_vfiprintf_r+0x742>
  40813c:	aa0f      	add	r2, sp, #60	; 0x3c
  40813e:	9904      	ldr	r1, [sp, #16]
  408140:	9806      	ldr	r0, [sp, #24]
  408142:	f7ff f9eb 	bl	40751c <__sprint_r.part.0>
  408146:	2800      	cmp	r0, #0
  408148:	f47f aeda 	bne.w	407f00 <_vfiprintf_r+0x964>
  40814c:	9910      	ldr	r1, [sp, #64]	; 0x40
  40814e:	9a11      	ldr	r2, [sp, #68]	; 0x44
  408150:	1c48      	adds	r0, r1, #1
  408152:	46ca      	mov	sl, r9
  408154:	e5a4      	b.n	407ca0 <_vfiprintf_r+0x704>
  408156:	9a07      	ldr	r2, [sp, #28]
  408158:	9903      	ldr	r1, [sp, #12]
  40815a:	6813      	ldr	r3, [r2, #0]
  40815c:	17cd      	asrs	r5, r1, #31
  40815e:	4608      	mov	r0, r1
  408160:	3204      	adds	r2, #4
  408162:	4629      	mov	r1, r5
  408164:	9207      	str	r2, [sp, #28]
  408166:	e9c3 0100 	strd	r0, r1, [r3]
  40816a:	f7ff ba54 	b.w	407616 <_vfiprintf_r+0x7a>
  40816e:	4658      	mov	r0, fp
  408170:	9607      	str	r6, [sp, #28]
  408172:	9302      	str	r3, [sp, #8]
  408174:	f7ff f964 	bl	407440 <strlen>
  408178:	2400      	movs	r4, #0
  40817a:	9005      	str	r0, [sp, #20]
  40817c:	f89d 5037 	ldrb.w	r5, [sp, #55]	; 0x37
  408180:	f7ff bb5e 	b.w	407840 <_vfiprintf_r+0x2a4>
  408184:	aa0f      	add	r2, sp, #60	; 0x3c
  408186:	9904      	ldr	r1, [sp, #16]
  408188:	9806      	ldr	r0, [sp, #24]
  40818a:	f7ff f9c7 	bl	40751c <__sprint_r.part.0>
  40818e:	2800      	cmp	r0, #0
  408190:	f47f aeb6 	bne.w	407f00 <_vfiprintf_r+0x964>
  408194:	9910      	ldr	r1, [sp, #64]	; 0x40
  408196:	9a11      	ldr	r2, [sp, #68]	; 0x44
  408198:	1c48      	adds	r0, r1, #1
  40819a:	46ca      	mov	sl, r9
  40819c:	e5a7      	b.n	407cee <_vfiprintf_r+0x752>
  40819e:	9910      	ldr	r1, [sp, #64]	; 0x40
  4081a0:	9a11      	ldr	r2, [sp, #68]	; 0x44
  4081a2:	4e20      	ldr	r6, [pc, #128]	; (408224 <_vfiprintf_r+0xc88>)
  4081a4:	3101      	adds	r1, #1
  4081a6:	f7ff bb90 	b.w	4078ca <_vfiprintf_r+0x32e>
  4081aa:	2c06      	cmp	r4, #6
  4081ac:	bf28      	it	cs
  4081ae:	2406      	movcs	r4, #6
  4081b0:	9405      	str	r4, [sp, #20]
  4081b2:	9607      	str	r6, [sp, #28]
  4081b4:	9401      	str	r4, [sp, #4]
  4081b6:	f8df b070 	ldr.w	fp, [pc, #112]	; 408228 <_vfiprintf_r+0xc8c>
  4081ba:	e4d5      	b.n	407b68 <_vfiprintf_r+0x5cc>
  4081bc:	9810      	ldr	r0, [sp, #64]	; 0x40
  4081be:	4e19      	ldr	r6, [pc, #100]	; (408224 <_vfiprintf_r+0xc88>)
  4081c0:	3001      	adds	r0, #1
  4081c2:	e603      	b.n	407dcc <_vfiprintf_r+0x830>
  4081c4:	9405      	str	r4, [sp, #20]
  4081c6:	f89d 5037 	ldrb.w	r5, [sp, #55]	; 0x37
  4081ca:	9607      	str	r6, [sp, #28]
  4081cc:	9302      	str	r3, [sp, #8]
  4081ce:	4604      	mov	r4, r0
  4081d0:	f7ff bb36 	b.w	407840 <_vfiprintf_r+0x2a4>
  4081d4:	4686      	mov	lr, r0
  4081d6:	f7ff bbce 	b.w	407976 <_vfiprintf_r+0x3da>
  4081da:	9806      	ldr	r0, [sp, #24]
  4081dc:	aa0f      	add	r2, sp, #60	; 0x3c
  4081de:	4659      	mov	r1, fp
  4081e0:	f7ff f99c 	bl	40751c <__sprint_r.part.0>
  4081e4:	2800      	cmp	r0, #0
  4081e6:	f43f ae24 	beq.w	407e32 <_vfiprintf_r+0x896>
  4081ea:	e624      	b.n	407e36 <_vfiprintf_r+0x89a>
  4081ec:	9907      	ldr	r1, [sp, #28]
  4081ee:	f898 2001 	ldrb.w	r2, [r8, #1]
  4081f2:	680c      	ldr	r4, [r1, #0]
  4081f4:	3104      	adds	r1, #4
  4081f6:	ea44 74e4 	orr.w	r4, r4, r4, asr #31
  4081fa:	46b8      	mov	r8, r7
  4081fc:	9107      	str	r1, [sp, #28]
  4081fe:	f7ff ba3f 	b.w	407680 <_vfiprintf_r+0xe4>
  408202:	f88d 5037 	strb.w	r5, [sp, #55]	; 0x37
  408206:	e43c      	b.n	407a82 <_vfiprintf_r+0x4e6>
  408208:	f88d 5037 	strb.w	r5, [sp, #55]	; 0x37
  40820c:	e521      	b.n	407c52 <_vfiprintf_r+0x6b6>
  40820e:	f88d 5037 	strb.w	r5, [sp, #55]	; 0x37
  408212:	f7ff bbf4 	b.w	4079fe <_vfiprintf_r+0x462>
  408216:	f88d 5037 	strb.w	r5, [sp, #55]	; 0x37
  40821a:	e491      	b.n	407b40 <_vfiprintf_r+0x5a4>
  40821c:	f88d 5037 	strb.w	r5, [sp, #55]	; 0x37
  408220:	e469      	b.n	407af6 <_vfiprintf_r+0x55a>
  408222:	bf00      	nop
  408224:	0040a894 	.word	0x0040a894
  408228:	0040a88c 	.word	0x0040a88c

0040822c <__sbprintf>:
  40822c:	e92d 41f0 	stmdb	sp!, {r4, r5, r6, r7, r8, lr}
  408230:	460c      	mov	r4, r1
  408232:	f5ad 6d8d 	sub.w	sp, sp, #1128	; 0x468
  408236:	8989      	ldrh	r1, [r1, #12]
  408238:	6e66      	ldr	r6, [r4, #100]	; 0x64
  40823a:	89e5      	ldrh	r5, [r4, #14]
  40823c:	9619      	str	r6, [sp, #100]	; 0x64
  40823e:	f021 0102 	bic.w	r1, r1, #2
  408242:	4606      	mov	r6, r0
  408244:	69e0      	ldr	r0, [r4, #28]
  408246:	f8ad 100c 	strh.w	r1, [sp, #12]
  40824a:	4617      	mov	r7, r2
  40824c:	f44f 6180 	mov.w	r1, #1024	; 0x400
  408250:	6a62      	ldr	r2, [r4, #36]	; 0x24
  408252:	f8ad 500e 	strh.w	r5, [sp, #14]
  408256:	4698      	mov	r8, r3
  408258:	ad1a      	add	r5, sp, #104	; 0x68
  40825a:	2300      	movs	r3, #0
  40825c:	9007      	str	r0, [sp, #28]
  40825e:	a816      	add	r0, sp, #88	; 0x58
  408260:	9209      	str	r2, [sp, #36]	; 0x24
  408262:	9306      	str	r3, [sp, #24]
  408264:	9500      	str	r5, [sp, #0]
  408266:	9504      	str	r5, [sp, #16]
  408268:	9102      	str	r1, [sp, #8]
  40826a:	9105      	str	r1, [sp, #20]
  40826c:	f000 fd48 	bl	408d00 <__retarget_lock_init_recursive>
  408270:	4643      	mov	r3, r8
  408272:	463a      	mov	r2, r7
  408274:	4669      	mov	r1, sp
  408276:	4630      	mov	r0, r6
  408278:	f7ff f990 	bl	40759c <_vfiprintf_r>
  40827c:	1e05      	subs	r5, r0, #0
  40827e:	db07      	blt.n	408290 <__sbprintf+0x64>
  408280:	4630      	mov	r0, r6
  408282:	4669      	mov	r1, sp
  408284:	f000 f928 	bl	4084d8 <_fflush_r>
  408288:	2800      	cmp	r0, #0
  40828a:	bf18      	it	ne
  40828c:	f04f 35ff 	movne.w	r5, #4294967295
  408290:	f8bd 300c 	ldrh.w	r3, [sp, #12]
  408294:	065b      	lsls	r3, r3, #25
  408296:	d503      	bpl.n	4082a0 <__sbprintf+0x74>
  408298:	89a3      	ldrh	r3, [r4, #12]
  40829a:	f043 0340 	orr.w	r3, r3, #64	; 0x40
  40829e:	81a3      	strh	r3, [r4, #12]
  4082a0:	9816      	ldr	r0, [sp, #88]	; 0x58
  4082a2:	f000 fd2f 	bl	408d04 <__retarget_lock_close_recursive>
  4082a6:	4628      	mov	r0, r5
  4082a8:	f50d 6d8d 	add.w	sp, sp, #1128	; 0x468
  4082ac:	e8bd 81f0 	ldmia.w	sp!, {r4, r5, r6, r7, r8, pc}

004082b0 <__swsetup_r>:
  4082b0:	b538      	push	{r3, r4, r5, lr}
  4082b2:	4b30      	ldr	r3, [pc, #192]	; (408374 <__swsetup_r+0xc4>)
  4082b4:	681b      	ldr	r3, [r3, #0]
  4082b6:	4605      	mov	r5, r0
  4082b8:	460c      	mov	r4, r1
  4082ba:	b113      	cbz	r3, 4082c2 <__swsetup_r+0x12>
  4082bc:	6b9a      	ldr	r2, [r3, #56]	; 0x38
  4082be:	2a00      	cmp	r2, #0
  4082c0:	d038      	beq.n	408334 <__swsetup_r+0x84>
  4082c2:	f9b4 200c 	ldrsh.w	r2, [r4, #12]
  4082c6:	b293      	uxth	r3, r2
  4082c8:	0718      	lsls	r0, r3, #28
  4082ca:	d50c      	bpl.n	4082e6 <__swsetup_r+0x36>
  4082cc:	6920      	ldr	r0, [r4, #16]
  4082ce:	b1a8      	cbz	r0, 4082fc <__swsetup_r+0x4c>
  4082d0:	f013 0201 	ands.w	r2, r3, #1
  4082d4:	d01e      	beq.n	408314 <__swsetup_r+0x64>
  4082d6:	6963      	ldr	r3, [r4, #20]
  4082d8:	2200      	movs	r2, #0
  4082da:	425b      	negs	r3, r3
  4082dc:	61a3      	str	r3, [r4, #24]
  4082de:	60a2      	str	r2, [r4, #8]
  4082e0:	b1f0      	cbz	r0, 408320 <__swsetup_r+0x70>
  4082e2:	2000      	movs	r0, #0
  4082e4:	bd38      	pop	{r3, r4, r5, pc}
  4082e6:	06d9      	lsls	r1, r3, #27
  4082e8:	d53c      	bpl.n	408364 <__swsetup_r+0xb4>
  4082ea:	0758      	lsls	r0, r3, #29
  4082ec:	d426      	bmi.n	40833c <__swsetup_r+0x8c>
  4082ee:	6920      	ldr	r0, [r4, #16]
  4082f0:	f042 0308 	orr.w	r3, r2, #8
  4082f4:	81a3      	strh	r3, [r4, #12]
  4082f6:	b29b      	uxth	r3, r3
  4082f8:	2800      	cmp	r0, #0
  4082fa:	d1e9      	bne.n	4082d0 <__swsetup_r+0x20>
  4082fc:	f403 7220 	and.w	r2, r3, #640	; 0x280
  408300:	f5b2 7f00 	cmp.w	r2, #512	; 0x200
  408304:	d0e4      	beq.n	4082d0 <__swsetup_r+0x20>
  408306:	4628      	mov	r0, r5
  408308:	4621      	mov	r1, r4
  40830a:	f000 fd2f 	bl	408d6c <__smakebuf_r>
  40830e:	89a3      	ldrh	r3, [r4, #12]
  408310:	6920      	ldr	r0, [r4, #16]
  408312:	e7dd      	b.n	4082d0 <__swsetup_r+0x20>
  408314:	0799      	lsls	r1, r3, #30
  408316:	bf58      	it	pl
  408318:	6962      	ldrpl	r2, [r4, #20]
  40831a:	60a2      	str	r2, [r4, #8]
  40831c:	2800      	cmp	r0, #0
  40831e:	d1e0      	bne.n	4082e2 <__swsetup_r+0x32>
  408320:	f9b4 300c 	ldrsh.w	r3, [r4, #12]
  408324:	061a      	lsls	r2, r3, #24
  408326:	d5dd      	bpl.n	4082e4 <__swsetup_r+0x34>
  408328:	f043 0340 	orr.w	r3, r3, #64	; 0x40
  40832c:	81a3      	strh	r3, [r4, #12]
  40832e:	f04f 30ff 	mov.w	r0, #4294967295
  408332:	bd38      	pop	{r3, r4, r5, pc}
  408334:	4618      	mov	r0, r3
  408336:	f000 f927 	bl	408588 <__sinit>
  40833a:	e7c2      	b.n	4082c2 <__swsetup_r+0x12>
  40833c:	6b21      	ldr	r1, [r4, #48]	; 0x30
  40833e:	b151      	cbz	r1, 408356 <__swsetup_r+0xa6>
  408340:	f104 0340 	add.w	r3, r4, #64	; 0x40
  408344:	4299      	cmp	r1, r3
  408346:	d004      	beq.n	408352 <__swsetup_r+0xa2>
  408348:	4628      	mov	r0, r5
  40834a:	f000 fa43 	bl	4087d4 <_free_r>
  40834e:	f9b4 200c 	ldrsh.w	r2, [r4, #12]
  408352:	2300      	movs	r3, #0
  408354:	6323      	str	r3, [r4, #48]	; 0x30
  408356:	2300      	movs	r3, #0
  408358:	6920      	ldr	r0, [r4, #16]
  40835a:	6063      	str	r3, [r4, #4]
  40835c:	f022 0224 	bic.w	r2, r2, #36	; 0x24
  408360:	6020      	str	r0, [r4, #0]
  408362:	e7c5      	b.n	4082f0 <__swsetup_r+0x40>
  408364:	f042 0240 	orr.w	r2, r2, #64	; 0x40
  408368:	2309      	movs	r3, #9
  40836a:	602b      	str	r3, [r5, #0]
  40836c:	f04f 30ff 	mov.w	r0, #4294967295
  408370:	81a2      	strh	r2, [r4, #12]
  408372:	bd38      	pop	{r3, r4, r5, pc}
  408374:	20400028 	.word	0x20400028

00408378 <register_fini>:
  408378:	4b02      	ldr	r3, [pc, #8]	; (408384 <register_fini+0xc>)
  40837a:	b113      	cbz	r3, 408382 <register_fini+0xa>
  40837c:	4802      	ldr	r0, [pc, #8]	; (408388 <register_fini+0x10>)
  40837e:	f000 b805 	b.w	40838c <atexit>
  408382:	4770      	bx	lr
  408384:	00000000 	.word	0x00000000
  408388:	004085f9 	.word	0x004085f9

0040838c <atexit>:
  40838c:	2300      	movs	r3, #0
  40838e:	4601      	mov	r1, r0
  408390:	461a      	mov	r2, r3
  408392:	4618      	mov	r0, r3
  408394:	f001 bb66 	b.w	409a64 <__register_exitproc>

00408398 <__sflush_r>:
  408398:	f9b1 300c 	ldrsh.w	r3, [r1, #12]
  40839c:	b29a      	uxth	r2, r3
  40839e:	e92d 41f0 	stmdb	sp!, {r4, r5, r6, r7, r8, lr}
  4083a2:	460d      	mov	r5, r1
  4083a4:	0711      	lsls	r1, r2, #28
  4083a6:	4680      	mov	r8, r0
  4083a8:	d43a      	bmi.n	408420 <__sflush_r+0x88>
  4083aa:	686a      	ldr	r2, [r5, #4]
  4083ac:	f443 6300 	orr.w	r3, r3, #2048	; 0x800
  4083b0:	2a00      	cmp	r2, #0
  4083b2:	81ab      	strh	r3, [r5, #12]
  4083b4:	dd6f      	ble.n	408496 <__sflush_r+0xfe>
  4083b6:	6aac      	ldr	r4, [r5, #40]	; 0x28
  4083b8:	2c00      	cmp	r4, #0
  4083ba:	d049      	beq.n	408450 <__sflush_r+0xb8>
  4083bc:	2200      	movs	r2, #0
  4083be:	b29b      	uxth	r3, r3
  4083c0:	f8d8 6000 	ldr.w	r6, [r8]
  4083c4:	f8c8 2000 	str.w	r2, [r8]
  4083c8:	f413 5280 	ands.w	r2, r3, #4096	; 0x1000
  4083cc:	d067      	beq.n	40849e <__sflush_r+0x106>
  4083ce:	6d2a      	ldr	r2, [r5, #80]	; 0x50
  4083d0:	075f      	lsls	r7, r3, #29
  4083d2:	d505      	bpl.n	4083e0 <__sflush_r+0x48>
  4083d4:	6869      	ldr	r1, [r5, #4]
  4083d6:	6b2b      	ldr	r3, [r5, #48]	; 0x30
  4083d8:	1a52      	subs	r2, r2, r1
  4083da:	b10b      	cbz	r3, 4083e0 <__sflush_r+0x48>
  4083dc:	6beb      	ldr	r3, [r5, #60]	; 0x3c
  4083de:	1ad2      	subs	r2, r2, r3
  4083e0:	2300      	movs	r3, #0
  4083e2:	69e9      	ldr	r1, [r5, #28]
  4083e4:	4640      	mov	r0, r8
  4083e6:	47a0      	blx	r4
  4083e8:	1c44      	adds	r4, r0, #1
  4083ea:	d03c      	beq.n	408466 <__sflush_r+0xce>
  4083ec:	f9b5 300c 	ldrsh.w	r3, [r5, #12]
  4083f0:	692a      	ldr	r2, [r5, #16]
  4083f2:	602a      	str	r2, [r5, #0]
  4083f4:	f423 6300 	bic.w	r3, r3, #2048	; 0x800
  4083f8:	2200      	movs	r2, #0
  4083fa:	81ab      	strh	r3, [r5, #12]
  4083fc:	04db      	lsls	r3, r3, #19
  4083fe:	606a      	str	r2, [r5, #4]
  408400:	d447      	bmi.n	408492 <__sflush_r+0xfa>
  408402:	6b29      	ldr	r1, [r5, #48]	; 0x30
  408404:	f8c8 6000 	str.w	r6, [r8]
  408408:	b311      	cbz	r1, 408450 <__sflush_r+0xb8>
  40840a:	f105 0340 	add.w	r3, r5, #64	; 0x40
  40840e:	4299      	cmp	r1, r3
  408410:	d002      	beq.n	408418 <__sflush_r+0x80>
  408412:	4640      	mov	r0, r8
  408414:	f000 f9de 	bl	4087d4 <_free_r>
  408418:	2000      	movs	r0, #0
  40841a:	6328      	str	r0, [r5, #48]	; 0x30
  40841c:	e8bd 81f0 	ldmia.w	sp!, {r4, r5, r6, r7, r8, pc}
  408420:	692e      	ldr	r6, [r5, #16]
  408422:	b1ae      	cbz	r6, 408450 <__sflush_r+0xb8>
  408424:	682c      	ldr	r4, [r5, #0]
  408426:	602e      	str	r6, [r5, #0]
  408428:	0791      	lsls	r1, r2, #30
  40842a:	bf0c      	ite	eq
  40842c:	696b      	ldreq	r3, [r5, #20]
  40842e:	2300      	movne	r3, #0
  408430:	1ba4      	subs	r4, r4, r6
  408432:	60ab      	str	r3, [r5, #8]
  408434:	e00a      	b.n	40844c <__sflush_r+0xb4>
  408436:	4623      	mov	r3, r4
  408438:	4632      	mov	r2, r6
  40843a:	6a6f      	ldr	r7, [r5, #36]	; 0x24
  40843c:	69e9      	ldr	r1, [r5, #28]
  40843e:	4640      	mov	r0, r8
  408440:	47b8      	blx	r7
  408442:	2800      	cmp	r0, #0
  408444:	eba4 0400 	sub.w	r4, r4, r0
  408448:	4406      	add	r6, r0
  40844a:	dd04      	ble.n	408456 <__sflush_r+0xbe>
  40844c:	2c00      	cmp	r4, #0
  40844e:	dcf2      	bgt.n	408436 <__sflush_r+0x9e>
  408450:	2000      	movs	r0, #0
  408452:	e8bd 81f0 	ldmia.w	sp!, {r4, r5, r6, r7, r8, pc}
  408456:	89ab      	ldrh	r3, [r5, #12]
  408458:	f043 0340 	orr.w	r3, r3, #64	; 0x40
  40845c:	81ab      	strh	r3, [r5, #12]
  40845e:	f04f 30ff 	mov.w	r0, #4294967295
  408462:	e8bd 81f0 	ldmia.w	sp!, {r4, r5, r6, r7, r8, pc}
  408466:	f8d8 4000 	ldr.w	r4, [r8]
  40846a:	2c1d      	cmp	r4, #29
  40846c:	d8f3      	bhi.n	408456 <__sflush_r+0xbe>
  40846e:	4b19      	ldr	r3, [pc, #100]	; (4084d4 <__sflush_r+0x13c>)
  408470:	40e3      	lsrs	r3, r4
  408472:	43db      	mvns	r3, r3
  408474:	f013 0301 	ands.w	r3, r3, #1
  408478:	d1ed      	bne.n	408456 <__sflush_r+0xbe>
  40847a:	f9b5 200c 	ldrsh.w	r2, [r5, #12]
  40847e:	606b      	str	r3, [r5, #4]
  408480:	f422 6300 	bic.w	r3, r2, #2048	; 0x800
  408484:	6929      	ldr	r1, [r5, #16]
  408486:	81ab      	strh	r3, [r5, #12]
  408488:	04da      	lsls	r2, r3, #19
  40848a:	6029      	str	r1, [r5, #0]
  40848c:	d5b9      	bpl.n	408402 <__sflush_r+0x6a>
  40848e:	2c00      	cmp	r4, #0
  408490:	d1b7      	bne.n	408402 <__sflush_r+0x6a>
  408492:	6528      	str	r0, [r5, #80]	; 0x50
  408494:	e7b5      	b.n	408402 <__sflush_r+0x6a>
  408496:	6bea      	ldr	r2, [r5, #60]	; 0x3c
  408498:	2a00      	cmp	r2, #0
  40849a:	dc8c      	bgt.n	4083b6 <__sflush_r+0x1e>
  40849c:	e7d8      	b.n	408450 <__sflush_r+0xb8>
  40849e:	2301      	movs	r3, #1
  4084a0:	69e9      	ldr	r1, [r5, #28]
  4084a2:	4640      	mov	r0, r8
  4084a4:	47a0      	blx	r4
  4084a6:	1c43      	adds	r3, r0, #1
  4084a8:	4602      	mov	r2, r0
  4084aa:	d002      	beq.n	4084b2 <__sflush_r+0x11a>
  4084ac:	89ab      	ldrh	r3, [r5, #12]
  4084ae:	6aac      	ldr	r4, [r5, #40]	; 0x28
  4084b0:	e78e      	b.n	4083d0 <__sflush_r+0x38>
  4084b2:	f8d8 3000 	ldr.w	r3, [r8]
  4084b6:	2b00      	cmp	r3, #0
  4084b8:	d0f8      	beq.n	4084ac <__sflush_r+0x114>
  4084ba:	2b1d      	cmp	r3, #29
  4084bc:	d001      	beq.n	4084c2 <__sflush_r+0x12a>
  4084be:	2b16      	cmp	r3, #22
  4084c0:	d102      	bne.n	4084c8 <__sflush_r+0x130>
  4084c2:	f8c8 6000 	str.w	r6, [r8]
  4084c6:	e7c3      	b.n	408450 <__sflush_r+0xb8>
  4084c8:	89ab      	ldrh	r3, [r5, #12]
  4084ca:	f043 0340 	orr.w	r3, r3, #64	; 0x40
  4084ce:	81ab      	strh	r3, [r5, #12]
  4084d0:	e8bd 81f0 	ldmia.w	sp!, {r4, r5, r6, r7, r8, pc}
  4084d4:	20400001 	.word	0x20400001

004084d8 <_fflush_r>:
  4084d8:	b538      	push	{r3, r4, r5, lr}
  4084da:	460d      	mov	r5, r1
  4084dc:	4604      	mov	r4, r0
  4084de:	b108      	cbz	r0, 4084e4 <_fflush_r+0xc>
  4084e0:	6b83      	ldr	r3, [r0, #56]	; 0x38
  4084e2:	b1bb      	cbz	r3, 408514 <_fflush_r+0x3c>
  4084e4:	f9b5 000c 	ldrsh.w	r0, [r5, #12]
  4084e8:	b188      	cbz	r0, 40850e <_fflush_r+0x36>
  4084ea:	6e6b      	ldr	r3, [r5, #100]	; 0x64
  4084ec:	07db      	lsls	r3, r3, #31
  4084ee:	d401      	bmi.n	4084f4 <_fflush_r+0x1c>
  4084f0:	0581      	lsls	r1, r0, #22
  4084f2:	d517      	bpl.n	408524 <_fflush_r+0x4c>
  4084f4:	4620      	mov	r0, r4
  4084f6:	4629      	mov	r1, r5
  4084f8:	f7ff ff4e 	bl	408398 <__sflush_r>
  4084fc:	6e6b      	ldr	r3, [r5, #100]	; 0x64
  4084fe:	07da      	lsls	r2, r3, #31
  408500:	4604      	mov	r4, r0
  408502:	d402      	bmi.n	40850a <_fflush_r+0x32>
  408504:	89ab      	ldrh	r3, [r5, #12]
  408506:	059b      	lsls	r3, r3, #22
  408508:	d507      	bpl.n	40851a <_fflush_r+0x42>
  40850a:	4620      	mov	r0, r4
  40850c:	bd38      	pop	{r3, r4, r5, pc}
  40850e:	4604      	mov	r4, r0
  408510:	4620      	mov	r0, r4
  408512:	bd38      	pop	{r3, r4, r5, pc}
  408514:	f000 f838 	bl	408588 <__sinit>
  408518:	e7e4      	b.n	4084e4 <_fflush_r+0xc>
  40851a:	6da8      	ldr	r0, [r5, #88]	; 0x58
  40851c:	f000 fbf6 	bl	408d0c <__retarget_lock_release_recursive>
  408520:	4620      	mov	r0, r4
  408522:	bd38      	pop	{r3, r4, r5, pc}
  408524:	6da8      	ldr	r0, [r5, #88]	; 0x58
  408526:	f000 fbef 	bl	408d08 <__retarget_lock_acquire_recursive>
  40852a:	e7e3      	b.n	4084f4 <_fflush_r+0x1c>

0040852c <_cleanup_r>:
  40852c:	4901      	ldr	r1, [pc, #4]	; (408534 <_cleanup_r+0x8>)
  40852e:	f000 bbaf 	b.w	408c90 <_fwalk_reent>
  408532:	bf00      	nop
  408534:	00409b4d 	.word	0x00409b4d

00408538 <std.isra.0>:
  408538:	b510      	push	{r4, lr}
  40853a:	2300      	movs	r3, #0
  40853c:	4604      	mov	r4, r0
  40853e:	8181      	strh	r1, [r0, #12]
  408540:	81c2      	strh	r2, [r0, #14]
  408542:	6003      	str	r3, [r0, #0]
  408544:	6043      	str	r3, [r0, #4]
  408546:	6083      	str	r3, [r0, #8]
  408548:	6643      	str	r3, [r0, #100]	; 0x64
  40854a:	6103      	str	r3, [r0, #16]
  40854c:	6143      	str	r3, [r0, #20]
  40854e:	6183      	str	r3, [r0, #24]
  408550:	4619      	mov	r1, r3
  408552:	2208      	movs	r2, #8
  408554:	305c      	adds	r0, #92	; 0x5c
  408556:	f7fe fe43 	bl	4071e0 <memset>
  40855a:	4807      	ldr	r0, [pc, #28]	; (408578 <std.isra.0+0x40>)
  40855c:	4907      	ldr	r1, [pc, #28]	; (40857c <std.isra.0+0x44>)
  40855e:	4a08      	ldr	r2, [pc, #32]	; (408580 <std.isra.0+0x48>)
  408560:	4b08      	ldr	r3, [pc, #32]	; (408584 <std.isra.0+0x4c>)
  408562:	6220      	str	r0, [r4, #32]
  408564:	61e4      	str	r4, [r4, #28]
  408566:	6261      	str	r1, [r4, #36]	; 0x24
  408568:	62a2      	str	r2, [r4, #40]	; 0x28
  40856a:	62e3      	str	r3, [r4, #44]	; 0x2c
  40856c:	f104 0058 	add.w	r0, r4, #88	; 0x58
  408570:	e8bd 4010 	ldmia.w	sp!, {r4, lr}
  408574:	f000 bbc4 	b.w	408d00 <__retarget_lock_init_recursive>
  408578:	00409891 	.word	0x00409891
  40857c:	004098b5 	.word	0x004098b5
  408580:	004098f1 	.word	0x004098f1
  408584:	00409911 	.word	0x00409911

00408588 <__sinit>:
  408588:	b510      	push	{r4, lr}
  40858a:	4604      	mov	r4, r0
  40858c:	4812      	ldr	r0, [pc, #72]	; (4085d8 <__sinit+0x50>)
  40858e:	f000 fbbb 	bl	408d08 <__retarget_lock_acquire_recursive>
  408592:	6ba2      	ldr	r2, [r4, #56]	; 0x38
  408594:	b9d2      	cbnz	r2, 4085cc <__sinit+0x44>
  408596:	f504 733b 	add.w	r3, r4, #748	; 0x2ec
  40859a:	4810      	ldr	r0, [pc, #64]	; (4085dc <__sinit+0x54>)
  40859c:	f8c4 32e8 	str.w	r3, [r4, #744]	; 0x2e8
  4085a0:	2103      	movs	r1, #3
  4085a2:	f8c4 22e0 	str.w	r2, [r4, #736]	; 0x2e0
  4085a6:	63e0      	str	r0, [r4, #60]	; 0x3c
  4085a8:	f8c4 12e4 	str.w	r1, [r4, #740]	; 0x2e4
  4085ac:	6860      	ldr	r0, [r4, #4]
  4085ae:	2104      	movs	r1, #4
  4085b0:	f7ff ffc2 	bl	408538 <std.isra.0>
  4085b4:	2201      	movs	r2, #1
  4085b6:	2109      	movs	r1, #9
  4085b8:	68a0      	ldr	r0, [r4, #8]
  4085ba:	f7ff ffbd 	bl	408538 <std.isra.0>
  4085be:	2202      	movs	r2, #2
  4085c0:	2112      	movs	r1, #18
  4085c2:	68e0      	ldr	r0, [r4, #12]
  4085c4:	f7ff ffb8 	bl	408538 <std.isra.0>
  4085c8:	2301      	movs	r3, #1
  4085ca:	63a3      	str	r3, [r4, #56]	; 0x38
  4085cc:	4802      	ldr	r0, [pc, #8]	; (4085d8 <__sinit+0x50>)
  4085ce:	e8bd 4010 	ldmia.w	sp!, {r4, lr}
  4085d2:	f000 bb9b 	b.w	408d0c <__retarget_lock_release_recursive>
  4085d6:	bf00      	nop
  4085d8:	2040c654 	.word	0x2040c654
  4085dc:	0040852d 	.word	0x0040852d

004085e0 <__sfp_lock_acquire>:
  4085e0:	4801      	ldr	r0, [pc, #4]	; (4085e8 <__sfp_lock_acquire+0x8>)
  4085e2:	f000 bb91 	b.w	408d08 <__retarget_lock_acquire_recursive>
  4085e6:	bf00      	nop
  4085e8:	2040c668 	.word	0x2040c668

004085ec <__sfp_lock_release>:
  4085ec:	4801      	ldr	r0, [pc, #4]	; (4085f4 <__sfp_lock_release+0x8>)
  4085ee:	f000 bb8d 	b.w	408d0c <__retarget_lock_release_recursive>
  4085f2:	bf00      	nop
  4085f4:	2040c668 	.word	0x2040c668

004085f8 <__libc_fini_array>:
  4085f8:	b538      	push	{r3, r4, r5, lr}
  4085fa:	4c0a      	ldr	r4, [pc, #40]	; (408624 <__libc_fini_array+0x2c>)
  4085fc:	4d0a      	ldr	r5, [pc, #40]	; (408628 <__libc_fini_array+0x30>)
  4085fe:	1b64      	subs	r4, r4, r5
  408600:	10a4      	asrs	r4, r4, #2
  408602:	d00a      	beq.n	40861a <__libc_fini_array+0x22>
  408604:	f104 4380 	add.w	r3, r4, #1073741824	; 0x40000000
  408608:	3b01      	subs	r3, #1
  40860a:	eb05 0583 	add.w	r5, r5, r3, lsl #2
  40860e:	3c01      	subs	r4, #1
  408610:	f855 3904 	ldr.w	r3, [r5], #-4
  408614:	4798      	blx	r3
  408616:	2c00      	cmp	r4, #0
  408618:	d1f9      	bne.n	40860e <__libc_fini_array+0x16>
  40861a:	e8bd 4038 	ldmia.w	sp!, {r3, r4, r5, lr}
  40861e:	f002 b9dd 	b.w	40a9dc <_fini>
  408622:	bf00      	nop
  408624:	0040a9ec 	.word	0x0040a9ec
  408628:	0040a9e8 	.word	0x0040a9e8

0040862c <__fputwc>:
  40862c:	e92d 47f0 	stmdb	sp!, {r4, r5, r6, r7, r8, r9, sl, lr}
  408630:	b082      	sub	sp, #8
  408632:	4680      	mov	r8, r0
  408634:	4689      	mov	r9, r1
  408636:	4614      	mov	r4, r2
  408638:	f000 fb54 	bl	408ce4 <__locale_mb_cur_max>
  40863c:	2801      	cmp	r0, #1
  40863e:	d036      	beq.n	4086ae <__fputwc+0x82>
  408640:	464a      	mov	r2, r9
  408642:	f104 035c 	add.w	r3, r4, #92	; 0x5c
  408646:	a901      	add	r1, sp, #4
  408648:	4640      	mov	r0, r8
  40864a:	f001 f9bd 	bl	4099c8 <_wcrtomb_r>
  40864e:	1c42      	adds	r2, r0, #1
  408650:	4606      	mov	r6, r0
  408652:	d025      	beq.n	4086a0 <__fputwc+0x74>
  408654:	b3a8      	cbz	r0, 4086c2 <__fputwc+0x96>
  408656:	f89d e004 	ldrb.w	lr, [sp, #4]
  40865a:	2500      	movs	r5, #0
  40865c:	f10d 0a04 	add.w	sl, sp, #4
  408660:	e009      	b.n	408676 <__fputwc+0x4a>
  408662:	6823      	ldr	r3, [r4, #0]
  408664:	1c5a      	adds	r2, r3, #1
  408666:	6022      	str	r2, [r4, #0]
  408668:	f883 e000 	strb.w	lr, [r3]
  40866c:	3501      	adds	r5, #1
  40866e:	42b5      	cmp	r5, r6
  408670:	d227      	bcs.n	4086c2 <__fputwc+0x96>
  408672:	f815 e00a 	ldrb.w	lr, [r5, sl]
  408676:	68a3      	ldr	r3, [r4, #8]
  408678:	3b01      	subs	r3, #1
  40867a:	2b00      	cmp	r3, #0
  40867c:	60a3      	str	r3, [r4, #8]
  40867e:	daf0      	bge.n	408662 <__fputwc+0x36>
  408680:	69a7      	ldr	r7, [r4, #24]
  408682:	42bb      	cmp	r3, r7
  408684:	4671      	mov	r1, lr
  408686:	4622      	mov	r2, r4
  408688:	4640      	mov	r0, r8
  40868a:	db02      	blt.n	408692 <__fputwc+0x66>
  40868c:	f1be 0f0a 	cmp.w	lr, #10
  408690:	d1e7      	bne.n	408662 <__fputwc+0x36>
  408692:	f001 f941 	bl	409918 <__swbuf_r>
  408696:	1c43      	adds	r3, r0, #1
  408698:	d1e8      	bne.n	40866c <__fputwc+0x40>
  40869a:	b002      	add	sp, #8
  40869c:	e8bd 87f0 	ldmia.w	sp!, {r4, r5, r6, r7, r8, r9, sl, pc}
  4086a0:	89a3      	ldrh	r3, [r4, #12]
  4086a2:	f043 0340 	orr.w	r3, r3, #64	; 0x40
  4086a6:	81a3      	strh	r3, [r4, #12]
  4086a8:	b002      	add	sp, #8
  4086aa:	e8bd 87f0 	ldmia.w	sp!, {r4, r5, r6, r7, r8, r9, sl, pc}
  4086ae:	f109 33ff 	add.w	r3, r9, #4294967295
  4086b2:	2bfe      	cmp	r3, #254	; 0xfe
  4086b4:	d8c4      	bhi.n	408640 <__fputwc+0x14>
  4086b6:	fa5f fe89 	uxtb.w	lr, r9
  4086ba:	4606      	mov	r6, r0
  4086bc:	f88d e004 	strb.w	lr, [sp, #4]
  4086c0:	e7cb      	b.n	40865a <__fputwc+0x2e>
  4086c2:	4648      	mov	r0, r9
  4086c4:	b002      	add	sp, #8
  4086c6:	e8bd 87f0 	ldmia.w	sp!, {r4, r5, r6, r7, r8, r9, sl, pc}
  4086ca:	bf00      	nop

004086cc <_fputwc_r>:
  4086cc:	b530      	push	{r4, r5, lr}
  4086ce:	6e53      	ldr	r3, [r2, #100]	; 0x64
  4086d0:	f013 0f01 	tst.w	r3, #1
  4086d4:	f9b2 300c 	ldrsh.w	r3, [r2, #12]
  4086d8:	4614      	mov	r4, r2
  4086da:	b083      	sub	sp, #12
  4086dc:	4605      	mov	r5, r0
  4086de:	b29a      	uxth	r2, r3
  4086e0:	d101      	bne.n	4086e6 <_fputwc_r+0x1a>
  4086e2:	0590      	lsls	r0, r2, #22
  4086e4:	d51c      	bpl.n	408720 <_fputwc_r+0x54>
  4086e6:	0490      	lsls	r0, r2, #18
  4086e8:	d406      	bmi.n	4086f8 <_fputwc_r+0x2c>
  4086ea:	6e62      	ldr	r2, [r4, #100]	; 0x64
  4086ec:	f443 5300 	orr.w	r3, r3, #8192	; 0x2000
  4086f0:	f442 5200 	orr.w	r2, r2, #8192	; 0x2000
  4086f4:	81a3      	strh	r3, [r4, #12]
  4086f6:	6662      	str	r2, [r4, #100]	; 0x64
  4086f8:	4628      	mov	r0, r5
  4086fa:	4622      	mov	r2, r4
  4086fc:	f7ff ff96 	bl	40862c <__fputwc>
  408700:	6e63      	ldr	r3, [r4, #100]	; 0x64
  408702:	07da      	lsls	r2, r3, #31
  408704:	4605      	mov	r5, r0
  408706:	d402      	bmi.n	40870e <_fputwc_r+0x42>
  408708:	89a3      	ldrh	r3, [r4, #12]
  40870a:	059b      	lsls	r3, r3, #22
  40870c:	d502      	bpl.n	408714 <_fputwc_r+0x48>
  40870e:	4628      	mov	r0, r5
  408710:	b003      	add	sp, #12
  408712:	bd30      	pop	{r4, r5, pc}
  408714:	6da0      	ldr	r0, [r4, #88]	; 0x58
  408716:	f000 faf9 	bl	408d0c <__retarget_lock_release_recursive>
  40871a:	4628      	mov	r0, r5
  40871c:	b003      	add	sp, #12
  40871e:	bd30      	pop	{r4, r5, pc}
  408720:	6da0      	ldr	r0, [r4, #88]	; 0x58
  408722:	9101      	str	r1, [sp, #4]
  408724:	f000 faf0 	bl	408d08 <__retarget_lock_acquire_recursive>
  408728:	f9b4 300c 	ldrsh.w	r3, [r4, #12]
  40872c:	9901      	ldr	r1, [sp, #4]
  40872e:	b29a      	uxth	r2, r3
  408730:	e7d9      	b.n	4086e6 <_fputwc_r+0x1a>
  408732:	bf00      	nop

00408734 <_malloc_trim_r>:
  408734:	b5f8      	push	{r3, r4, r5, r6, r7, lr}
  408736:	4f24      	ldr	r7, [pc, #144]	; (4087c8 <_malloc_trim_r+0x94>)
  408738:	460c      	mov	r4, r1
  40873a:	4606      	mov	r6, r0
  40873c:	f000 fee4 	bl	409508 <__malloc_lock>
  408740:	68bb      	ldr	r3, [r7, #8]
  408742:	685d      	ldr	r5, [r3, #4]
  408744:	f5c4 617e 	rsb	r1, r4, #4064	; 0xfe0
  408748:	310f      	adds	r1, #15
  40874a:	f025 0503 	bic.w	r5, r5, #3
  40874e:	4429      	add	r1, r5
  408750:	f421 617f 	bic.w	r1, r1, #4080	; 0xff0
  408754:	f021 010f 	bic.w	r1, r1, #15
  408758:	f5a1 5480 	sub.w	r4, r1, #4096	; 0x1000
  40875c:	f5b4 5f80 	cmp.w	r4, #4096	; 0x1000
  408760:	db07      	blt.n	408772 <_malloc_trim_r+0x3e>
  408762:	2100      	movs	r1, #0
  408764:	4630      	mov	r0, r6
  408766:	f001 f881 	bl	40986c <_sbrk_r>
  40876a:	68bb      	ldr	r3, [r7, #8]
  40876c:	442b      	add	r3, r5
  40876e:	4298      	cmp	r0, r3
  408770:	d004      	beq.n	40877c <_malloc_trim_r+0x48>
  408772:	4630      	mov	r0, r6
  408774:	f000 fece 	bl	409514 <__malloc_unlock>
  408778:	2000      	movs	r0, #0
  40877a:	bdf8      	pop	{r3, r4, r5, r6, r7, pc}
  40877c:	4261      	negs	r1, r4
  40877e:	4630      	mov	r0, r6
  408780:	f001 f874 	bl	40986c <_sbrk_r>
  408784:	3001      	adds	r0, #1
  408786:	d00d      	beq.n	4087a4 <_malloc_trim_r+0x70>
  408788:	4b10      	ldr	r3, [pc, #64]	; (4087cc <_malloc_trim_r+0x98>)
  40878a:	68ba      	ldr	r2, [r7, #8]
  40878c:	6819      	ldr	r1, [r3, #0]
  40878e:	1b2d      	subs	r5, r5, r4
  408790:	f045 0501 	orr.w	r5, r5, #1
  408794:	4630      	mov	r0, r6
  408796:	1b09      	subs	r1, r1, r4
  408798:	6055      	str	r5, [r2, #4]
  40879a:	6019      	str	r1, [r3, #0]
  40879c:	f000 feba 	bl	409514 <__malloc_unlock>
  4087a0:	2001      	movs	r0, #1
  4087a2:	bdf8      	pop	{r3, r4, r5, r6, r7, pc}
  4087a4:	2100      	movs	r1, #0
  4087a6:	4630      	mov	r0, r6
  4087a8:	f001 f860 	bl	40986c <_sbrk_r>
  4087ac:	68ba      	ldr	r2, [r7, #8]
  4087ae:	1a83      	subs	r3, r0, r2
  4087b0:	2b0f      	cmp	r3, #15
  4087b2:	ddde      	ble.n	408772 <_malloc_trim_r+0x3e>
  4087b4:	4c06      	ldr	r4, [pc, #24]	; (4087d0 <_malloc_trim_r+0x9c>)
  4087b6:	4905      	ldr	r1, [pc, #20]	; (4087cc <_malloc_trim_r+0x98>)
  4087b8:	6824      	ldr	r4, [r4, #0]
  4087ba:	f043 0301 	orr.w	r3, r3, #1
  4087be:	1b00      	subs	r0, r0, r4
  4087c0:	6053      	str	r3, [r2, #4]
  4087c2:	6008      	str	r0, [r1, #0]
  4087c4:	e7d5      	b.n	408772 <_malloc_trim_r+0x3e>
  4087c6:	bf00      	nop
  4087c8:	204005c8 	.word	0x204005c8
  4087cc:	2040c5c0 	.word	0x2040c5c0
  4087d0:	204009d0 	.word	0x204009d0

004087d4 <_free_r>:
  4087d4:	2900      	cmp	r1, #0
  4087d6:	d044      	beq.n	408862 <_free_r+0x8e>
  4087d8:	e92d 41f0 	stmdb	sp!, {r4, r5, r6, r7, r8, lr}
  4087dc:	460d      	mov	r5, r1
  4087de:	4680      	mov	r8, r0
  4087e0:	f000 fe92 	bl	409508 <__malloc_lock>
  4087e4:	f855 7c04 	ldr.w	r7, [r5, #-4]
  4087e8:	4969      	ldr	r1, [pc, #420]	; (408990 <_free_r+0x1bc>)
  4087ea:	f027 0301 	bic.w	r3, r7, #1
  4087ee:	f1a5 0408 	sub.w	r4, r5, #8
  4087f2:	18e2      	adds	r2, r4, r3
  4087f4:	688e      	ldr	r6, [r1, #8]
  4087f6:	6850      	ldr	r0, [r2, #4]
  4087f8:	42b2      	cmp	r2, r6
  4087fa:	f020 0003 	bic.w	r0, r0, #3
  4087fe:	d05e      	beq.n	4088be <_free_r+0xea>
  408800:	07fe      	lsls	r6, r7, #31
  408802:	6050      	str	r0, [r2, #4]
  408804:	d40b      	bmi.n	40881e <_free_r+0x4a>
  408806:	f855 7c08 	ldr.w	r7, [r5, #-8]
  40880a:	1be4      	subs	r4, r4, r7
  40880c:	f101 0e08 	add.w	lr, r1, #8
  408810:	68a5      	ldr	r5, [r4, #8]
  408812:	4575      	cmp	r5, lr
  408814:	443b      	add	r3, r7
  408816:	d06d      	beq.n	4088f4 <_free_r+0x120>
  408818:	68e7      	ldr	r7, [r4, #12]
  40881a:	60ef      	str	r7, [r5, #12]
  40881c:	60bd      	str	r5, [r7, #8]
  40881e:	1815      	adds	r5, r2, r0
  408820:	686d      	ldr	r5, [r5, #4]
  408822:	07ed      	lsls	r5, r5, #31
  408824:	d53e      	bpl.n	4088a4 <_free_r+0xd0>
  408826:	f043 0201 	orr.w	r2, r3, #1
  40882a:	6062      	str	r2, [r4, #4]
  40882c:	50e3      	str	r3, [r4, r3]
  40882e:	f5b3 7f00 	cmp.w	r3, #512	; 0x200
  408832:	d217      	bcs.n	408864 <_free_r+0x90>
  408834:	08db      	lsrs	r3, r3, #3
  408836:	1c58      	adds	r0, r3, #1
  408838:	109a      	asrs	r2, r3, #2
  40883a:	684d      	ldr	r5, [r1, #4]
  40883c:	f851 7030 	ldr.w	r7, [r1, r0, lsl #3]
  408840:	60a7      	str	r7, [r4, #8]
  408842:	2301      	movs	r3, #1
  408844:	4093      	lsls	r3, r2
  408846:	eb01 02c0 	add.w	r2, r1, r0, lsl #3
  40884a:	432b      	orrs	r3, r5
  40884c:	3a08      	subs	r2, #8
  40884e:	60e2      	str	r2, [r4, #12]
  408850:	604b      	str	r3, [r1, #4]
  408852:	f841 4030 	str.w	r4, [r1, r0, lsl #3]
  408856:	60fc      	str	r4, [r7, #12]
  408858:	4640      	mov	r0, r8
  40885a:	e8bd 41f0 	ldmia.w	sp!, {r4, r5, r6, r7, r8, lr}
  40885e:	f000 be59 	b.w	409514 <__malloc_unlock>
  408862:	4770      	bx	lr
  408864:	0a5a      	lsrs	r2, r3, #9
  408866:	2a04      	cmp	r2, #4
  408868:	d852      	bhi.n	408910 <_free_r+0x13c>
  40886a:	099a      	lsrs	r2, r3, #6
  40886c:	f102 0739 	add.w	r7, r2, #57	; 0x39
  408870:	00ff      	lsls	r7, r7, #3
  408872:	f102 0538 	add.w	r5, r2, #56	; 0x38
  408876:	19c8      	adds	r0, r1, r7
  408878:	59ca      	ldr	r2, [r1, r7]
  40887a:	3808      	subs	r0, #8
  40887c:	4290      	cmp	r0, r2
  40887e:	d04f      	beq.n	408920 <_free_r+0x14c>
  408880:	6851      	ldr	r1, [r2, #4]
  408882:	f021 0103 	bic.w	r1, r1, #3
  408886:	428b      	cmp	r3, r1
  408888:	d232      	bcs.n	4088f0 <_free_r+0x11c>
  40888a:	6892      	ldr	r2, [r2, #8]
  40888c:	4290      	cmp	r0, r2
  40888e:	d1f7      	bne.n	408880 <_free_r+0xac>
  408890:	68c3      	ldr	r3, [r0, #12]
  408892:	60a0      	str	r0, [r4, #8]
  408894:	60e3      	str	r3, [r4, #12]
  408896:	609c      	str	r4, [r3, #8]
  408898:	60c4      	str	r4, [r0, #12]
  40889a:	4640      	mov	r0, r8
  40889c:	e8bd 41f0 	ldmia.w	sp!, {r4, r5, r6, r7, r8, lr}
  4088a0:	f000 be38 	b.w	409514 <__malloc_unlock>
  4088a4:	6895      	ldr	r5, [r2, #8]
  4088a6:	4f3b      	ldr	r7, [pc, #236]	; (408994 <_free_r+0x1c0>)
  4088a8:	42bd      	cmp	r5, r7
  4088aa:	4403      	add	r3, r0
  4088ac:	d040      	beq.n	408930 <_free_r+0x15c>
  4088ae:	68d0      	ldr	r0, [r2, #12]
  4088b0:	60e8      	str	r0, [r5, #12]
  4088b2:	f043 0201 	orr.w	r2, r3, #1
  4088b6:	6085      	str	r5, [r0, #8]
  4088b8:	6062      	str	r2, [r4, #4]
  4088ba:	50e3      	str	r3, [r4, r3]
  4088bc:	e7b7      	b.n	40882e <_free_r+0x5a>
  4088be:	07ff      	lsls	r7, r7, #31
  4088c0:	4403      	add	r3, r0
  4088c2:	d407      	bmi.n	4088d4 <_free_r+0x100>
  4088c4:	f855 2c08 	ldr.w	r2, [r5, #-8]
  4088c8:	1aa4      	subs	r4, r4, r2
  4088ca:	4413      	add	r3, r2
  4088cc:	68a0      	ldr	r0, [r4, #8]
  4088ce:	68e2      	ldr	r2, [r4, #12]
  4088d0:	60c2      	str	r2, [r0, #12]
  4088d2:	6090      	str	r0, [r2, #8]
  4088d4:	4a30      	ldr	r2, [pc, #192]	; (408998 <_free_r+0x1c4>)
  4088d6:	6812      	ldr	r2, [r2, #0]
  4088d8:	f043 0001 	orr.w	r0, r3, #1
  4088dc:	4293      	cmp	r3, r2
  4088de:	6060      	str	r0, [r4, #4]
  4088e0:	608c      	str	r4, [r1, #8]
  4088e2:	d3b9      	bcc.n	408858 <_free_r+0x84>
  4088e4:	4b2d      	ldr	r3, [pc, #180]	; (40899c <_free_r+0x1c8>)
  4088e6:	4640      	mov	r0, r8
  4088e8:	6819      	ldr	r1, [r3, #0]
  4088ea:	f7ff ff23 	bl	408734 <_malloc_trim_r>
  4088ee:	e7b3      	b.n	408858 <_free_r+0x84>
  4088f0:	4610      	mov	r0, r2
  4088f2:	e7cd      	b.n	408890 <_free_r+0xbc>
  4088f4:	1811      	adds	r1, r2, r0
  4088f6:	6849      	ldr	r1, [r1, #4]
  4088f8:	07c9      	lsls	r1, r1, #31
  4088fa:	d444      	bmi.n	408986 <_free_r+0x1b2>
  4088fc:	6891      	ldr	r1, [r2, #8]
  4088fe:	68d2      	ldr	r2, [r2, #12]
  408900:	60ca      	str	r2, [r1, #12]
  408902:	4403      	add	r3, r0
  408904:	f043 0001 	orr.w	r0, r3, #1
  408908:	6091      	str	r1, [r2, #8]
  40890a:	6060      	str	r0, [r4, #4]
  40890c:	50e3      	str	r3, [r4, r3]
  40890e:	e7a3      	b.n	408858 <_free_r+0x84>
  408910:	2a14      	cmp	r2, #20
  408912:	d816      	bhi.n	408942 <_free_r+0x16e>
  408914:	f102 075c 	add.w	r7, r2, #92	; 0x5c
  408918:	00ff      	lsls	r7, r7, #3
  40891a:	f102 055b 	add.w	r5, r2, #91	; 0x5b
  40891e:	e7aa      	b.n	408876 <_free_r+0xa2>
  408920:	10aa      	asrs	r2, r5, #2
  408922:	2301      	movs	r3, #1
  408924:	684d      	ldr	r5, [r1, #4]
  408926:	4093      	lsls	r3, r2
  408928:	432b      	orrs	r3, r5
  40892a:	604b      	str	r3, [r1, #4]
  40892c:	4603      	mov	r3, r0
  40892e:	e7b0      	b.n	408892 <_free_r+0xbe>
  408930:	f043 0201 	orr.w	r2, r3, #1
  408934:	614c      	str	r4, [r1, #20]
  408936:	610c      	str	r4, [r1, #16]
  408938:	60e5      	str	r5, [r4, #12]
  40893a:	60a5      	str	r5, [r4, #8]
  40893c:	6062      	str	r2, [r4, #4]
  40893e:	50e3      	str	r3, [r4, r3]
  408940:	e78a      	b.n	408858 <_free_r+0x84>
  408942:	2a54      	cmp	r2, #84	; 0x54
  408944:	d806      	bhi.n	408954 <_free_r+0x180>
  408946:	0b1a      	lsrs	r2, r3, #12
  408948:	f102 076f 	add.w	r7, r2, #111	; 0x6f
  40894c:	00ff      	lsls	r7, r7, #3
  40894e:	f102 056e 	add.w	r5, r2, #110	; 0x6e
  408952:	e790      	b.n	408876 <_free_r+0xa2>
  408954:	f5b2 7faa 	cmp.w	r2, #340	; 0x154
  408958:	d806      	bhi.n	408968 <_free_r+0x194>
  40895a:	0bda      	lsrs	r2, r3, #15
  40895c:	f102 0778 	add.w	r7, r2, #120	; 0x78
  408960:	00ff      	lsls	r7, r7, #3
  408962:	f102 0577 	add.w	r5, r2, #119	; 0x77
  408966:	e786      	b.n	408876 <_free_r+0xa2>
  408968:	f240 5054 	movw	r0, #1364	; 0x554
  40896c:	4282      	cmp	r2, r0
  40896e:	d806      	bhi.n	40897e <_free_r+0x1aa>
  408970:	0c9a      	lsrs	r2, r3, #18
  408972:	f102 077d 	add.w	r7, r2, #125	; 0x7d
  408976:	00ff      	lsls	r7, r7, #3
  408978:	f102 057c 	add.w	r5, r2, #124	; 0x7c
  40897c:	e77b      	b.n	408876 <_free_r+0xa2>
  40897e:	f44f 777e 	mov.w	r7, #1016	; 0x3f8
  408982:	257e      	movs	r5, #126	; 0x7e
  408984:	e777      	b.n	408876 <_free_r+0xa2>
  408986:	f043 0101 	orr.w	r1, r3, #1
  40898a:	6061      	str	r1, [r4, #4]
  40898c:	6013      	str	r3, [r2, #0]
  40898e:	e763      	b.n	408858 <_free_r+0x84>
  408990:	204005c8 	.word	0x204005c8
  408994:	204005d0 	.word	0x204005d0
  408998:	204009d4 	.word	0x204009d4
  40899c:	2040c5f0 	.word	0x2040c5f0

004089a0 <__sfvwrite_r>:
  4089a0:	6893      	ldr	r3, [r2, #8]
  4089a2:	2b00      	cmp	r3, #0
  4089a4:	d073      	beq.n	408a8e <__sfvwrite_r+0xee>
  4089a6:	e92d 4ff0 	stmdb	sp!, {r4, r5, r6, r7, r8, r9, sl, fp, lr}
  4089aa:	898b      	ldrh	r3, [r1, #12]
  4089ac:	b083      	sub	sp, #12
  4089ae:	460c      	mov	r4, r1
  4089b0:	0719      	lsls	r1, r3, #28
  4089b2:	9000      	str	r0, [sp, #0]
  4089b4:	4616      	mov	r6, r2
  4089b6:	d526      	bpl.n	408a06 <__sfvwrite_r+0x66>
  4089b8:	6922      	ldr	r2, [r4, #16]
  4089ba:	b322      	cbz	r2, 408a06 <__sfvwrite_r+0x66>
  4089bc:	f013 0002 	ands.w	r0, r3, #2
  4089c0:	6835      	ldr	r5, [r6, #0]
  4089c2:	d02c      	beq.n	408a1e <__sfvwrite_r+0x7e>
  4089c4:	f04f 0900 	mov.w	r9, #0
  4089c8:	4fb0      	ldr	r7, [pc, #704]	; (408c8c <__sfvwrite_r+0x2ec>)
  4089ca:	46c8      	mov	r8, r9
  4089cc:	46b2      	mov	sl, r6
  4089ce:	45b8      	cmp	r8, r7
  4089d0:	4643      	mov	r3, r8
  4089d2:	464a      	mov	r2, r9
  4089d4:	bf28      	it	cs
  4089d6:	463b      	movcs	r3, r7
  4089d8:	9800      	ldr	r0, [sp, #0]
  4089da:	f1b8 0f00 	cmp.w	r8, #0
  4089de:	d050      	beq.n	408a82 <__sfvwrite_r+0xe2>
  4089e0:	69e1      	ldr	r1, [r4, #28]
  4089e2:	6a66      	ldr	r6, [r4, #36]	; 0x24
  4089e4:	47b0      	blx	r6
  4089e6:	2800      	cmp	r0, #0
  4089e8:	dd58      	ble.n	408a9c <__sfvwrite_r+0xfc>
  4089ea:	f8da 3008 	ldr.w	r3, [sl, #8]
  4089ee:	1a1b      	subs	r3, r3, r0
  4089f0:	4481      	add	r9, r0
  4089f2:	eba8 0800 	sub.w	r8, r8, r0
  4089f6:	f8ca 3008 	str.w	r3, [sl, #8]
  4089fa:	2b00      	cmp	r3, #0
  4089fc:	d1e7      	bne.n	4089ce <__sfvwrite_r+0x2e>
  4089fe:	2000      	movs	r0, #0
  408a00:	b003      	add	sp, #12
  408a02:	e8bd 8ff0 	ldmia.w	sp!, {r4, r5, r6, r7, r8, r9, sl, fp, pc}
  408a06:	4621      	mov	r1, r4
  408a08:	9800      	ldr	r0, [sp, #0]
  408a0a:	f7ff fc51 	bl	4082b0 <__swsetup_r>
  408a0e:	2800      	cmp	r0, #0
  408a10:	f040 8133 	bne.w	408c7a <__sfvwrite_r+0x2da>
  408a14:	89a3      	ldrh	r3, [r4, #12]
  408a16:	6835      	ldr	r5, [r6, #0]
  408a18:	f013 0002 	ands.w	r0, r3, #2
  408a1c:	d1d2      	bne.n	4089c4 <__sfvwrite_r+0x24>
  408a1e:	f013 0901 	ands.w	r9, r3, #1
  408a22:	d145      	bne.n	408ab0 <__sfvwrite_r+0x110>
  408a24:	464f      	mov	r7, r9
  408a26:	9601      	str	r6, [sp, #4]
  408a28:	b337      	cbz	r7, 408a78 <__sfvwrite_r+0xd8>
  408a2a:	059a      	lsls	r2, r3, #22
  408a2c:	f8d4 8008 	ldr.w	r8, [r4, #8]
  408a30:	f140 8083 	bpl.w	408b3a <__sfvwrite_r+0x19a>
  408a34:	4547      	cmp	r7, r8
  408a36:	46c3      	mov	fp, r8
  408a38:	f0c0 80ab 	bcc.w	408b92 <__sfvwrite_r+0x1f2>
  408a3c:	f413 6f90 	tst.w	r3, #1152	; 0x480
  408a40:	f040 80ac 	bne.w	408b9c <__sfvwrite_r+0x1fc>
  408a44:	6820      	ldr	r0, [r4, #0]
  408a46:	46ba      	mov	sl, r7
  408a48:	465a      	mov	r2, fp
  408a4a:	4649      	mov	r1, r9
  408a4c:	f000 fcf8 	bl	409440 <memmove>
  408a50:	68a2      	ldr	r2, [r4, #8]
  408a52:	6823      	ldr	r3, [r4, #0]
  408a54:	eba2 0208 	sub.w	r2, r2, r8
  408a58:	445b      	add	r3, fp
  408a5a:	60a2      	str	r2, [r4, #8]
  408a5c:	6023      	str	r3, [r4, #0]
  408a5e:	9a01      	ldr	r2, [sp, #4]
  408a60:	6893      	ldr	r3, [r2, #8]
  408a62:	eba3 030a 	sub.w	r3, r3, sl
  408a66:	44d1      	add	r9, sl
  408a68:	eba7 070a 	sub.w	r7, r7, sl
  408a6c:	6093      	str	r3, [r2, #8]
  408a6e:	2b00      	cmp	r3, #0
  408a70:	d0c5      	beq.n	4089fe <__sfvwrite_r+0x5e>
  408a72:	89a3      	ldrh	r3, [r4, #12]
  408a74:	2f00      	cmp	r7, #0
  408a76:	d1d8      	bne.n	408a2a <__sfvwrite_r+0x8a>
  408a78:	f8d5 9000 	ldr.w	r9, [r5]
  408a7c:	686f      	ldr	r7, [r5, #4]
  408a7e:	3508      	adds	r5, #8
  408a80:	e7d2      	b.n	408a28 <__sfvwrite_r+0x88>
  408a82:	f8d5 9000 	ldr.w	r9, [r5]
  408a86:	f8d5 8004 	ldr.w	r8, [r5, #4]
  408a8a:	3508      	adds	r5, #8
  408a8c:	e79f      	b.n	4089ce <__sfvwrite_r+0x2e>
  408a8e:	2000      	movs	r0, #0
  408a90:	4770      	bx	lr
  408a92:	4621      	mov	r1, r4
  408a94:	9800      	ldr	r0, [sp, #0]
  408a96:	f7ff fd1f 	bl	4084d8 <_fflush_r>
  408a9a:	b370      	cbz	r0, 408afa <__sfvwrite_r+0x15a>
  408a9c:	f9b4 300c 	ldrsh.w	r3, [r4, #12]
  408aa0:	f043 0340 	orr.w	r3, r3, #64	; 0x40
  408aa4:	f04f 30ff 	mov.w	r0, #4294967295
  408aa8:	81a3      	strh	r3, [r4, #12]
  408aaa:	b003      	add	sp, #12
  408aac:	e8bd 8ff0 	ldmia.w	sp!, {r4, r5, r6, r7, r8, r9, sl, fp, pc}
  408ab0:	4681      	mov	r9, r0
  408ab2:	4633      	mov	r3, r6
  408ab4:	464e      	mov	r6, r9
  408ab6:	46a8      	mov	r8, r5
  408ab8:	469a      	mov	sl, r3
  408aba:	464d      	mov	r5, r9
  408abc:	b34e      	cbz	r6, 408b12 <__sfvwrite_r+0x172>
  408abe:	b380      	cbz	r0, 408b22 <__sfvwrite_r+0x182>
  408ac0:	6820      	ldr	r0, [r4, #0]
  408ac2:	6923      	ldr	r3, [r4, #16]
  408ac4:	6962      	ldr	r2, [r4, #20]
  408ac6:	45b1      	cmp	r9, r6
  408ac8:	46cb      	mov	fp, r9
  408aca:	bf28      	it	cs
  408acc:	46b3      	movcs	fp, r6
  408ace:	4298      	cmp	r0, r3
  408ad0:	465f      	mov	r7, fp
  408ad2:	d904      	bls.n	408ade <__sfvwrite_r+0x13e>
  408ad4:	68a3      	ldr	r3, [r4, #8]
  408ad6:	4413      	add	r3, r2
  408ad8:	459b      	cmp	fp, r3
  408ada:	f300 80a6 	bgt.w	408c2a <__sfvwrite_r+0x28a>
  408ade:	4593      	cmp	fp, r2
  408ae0:	db4b      	blt.n	408b7a <__sfvwrite_r+0x1da>
  408ae2:	4613      	mov	r3, r2
  408ae4:	6a67      	ldr	r7, [r4, #36]	; 0x24
  408ae6:	69e1      	ldr	r1, [r4, #28]
  408ae8:	9800      	ldr	r0, [sp, #0]
  408aea:	462a      	mov	r2, r5
  408aec:	47b8      	blx	r7
  408aee:	1e07      	subs	r7, r0, #0
  408af0:	ddd4      	ble.n	408a9c <__sfvwrite_r+0xfc>
  408af2:	ebb9 0907 	subs.w	r9, r9, r7
  408af6:	d0cc      	beq.n	408a92 <__sfvwrite_r+0xf2>
  408af8:	2001      	movs	r0, #1
  408afa:	f8da 3008 	ldr.w	r3, [sl, #8]
  408afe:	1bdb      	subs	r3, r3, r7
  408b00:	443d      	add	r5, r7
  408b02:	1bf6      	subs	r6, r6, r7
  408b04:	f8ca 3008 	str.w	r3, [sl, #8]
  408b08:	2b00      	cmp	r3, #0
  408b0a:	f43f af78 	beq.w	4089fe <__sfvwrite_r+0x5e>
  408b0e:	2e00      	cmp	r6, #0
  408b10:	d1d5      	bne.n	408abe <__sfvwrite_r+0x11e>
  408b12:	f108 0308 	add.w	r3, r8, #8
  408b16:	e913 0060 	ldmdb	r3, {r5, r6}
  408b1a:	4698      	mov	r8, r3
  408b1c:	3308      	adds	r3, #8
  408b1e:	2e00      	cmp	r6, #0
  408b20:	d0f9      	beq.n	408b16 <__sfvwrite_r+0x176>
  408b22:	4632      	mov	r2, r6
  408b24:	210a      	movs	r1, #10
  408b26:	4628      	mov	r0, r5
  408b28:	f000 fc3a 	bl	4093a0 <memchr>
  408b2c:	2800      	cmp	r0, #0
  408b2e:	f000 80a1 	beq.w	408c74 <__sfvwrite_r+0x2d4>
  408b32:	3001      	adds	r0, #1
  408b34:	eba0 0905 	sub.w	r9, r0, r5
  408b38:	e7c2      	b.n	408ac0 <__sfvwrite_r+0x120>
  408b3a:	6820      	ldr	r0, [r4, #0]
  408b3c:	6923      	ldr	r3, [r4, #16]
  408b3e:	4298      	cmp	r0, r3
  408b40:	d802      	bhi.n	408b48 <__sfvwrite_r+0x1a8>
  408b42:	6963      	ldr	r3, [r4, #20]
  408b44:	429f      	cmp	r7, r3
  408b46:	d25d      	bcs.n	408c04 <__sfvwrite_r+0x264>
  408b48:	45b8      	cmp	r8, r7
  408b4a:	bf28      	it	cs
  408b4c:	46b8      	movcs	r8, r7
  408b4e:	4642      	mov	r2, r8
  408b50:	4649      	mov	r1, r9
  408b52:	f000 fc75 	bl	409440 <memmove>
  408b56:	68a3      	ldr	r3, [r4, #8]
  408b58:	6822      	ldr	r2, [r4, #0]
  408b5a:	eba3 0308 	sub.w	r3, r3, r8
  408b5e:	4442      	add	r2, r8
  408b60:	60a3      	str	r3, [r4, #8]
  408b62:	6022      	str	r2, [r4, #0]
  408b64:	b10b      	cbz	r3, 408b6a <__sfvwrite_r+0x1ca>
  408b66:	46c2      	mov	sl, r8
  408b68:	e779      	b.n	408a5e <__sfvwrite_r+0xbe>
  408b6a:	4621      	mov	r1, r4
  408b6c:	9800      	ldr	r0, [sp, #0]
  408b6e:	f7ff fcb3 	bl	4084d8 <_fflush_r>
  408b72:	2800      	cmp	r0, #0
  408b74:	d192      	bne.n	408a9c <__sfvwrite_r+0xfc>
  408b76:	46c2      	mov	sl, r8
  408b78:	e771      	b.n	408a5e <__sfvwrite_r+0xbe>
  408b7a:	465a      	mov	r2, fp
  408b7c:	4629      	mov	r1, r5
  408b7e:	f000 fc5f 	bl	409440 <memmove>
  408b82:	68a2      	ldr	r2, [r4, #8]
  408b84:	6823      	ldr	r3, [r4, #0]
  408b86:	eba2 020b 	sub.w	r2, r2, fp
  408b8a:	445b      	add	r3, fp
  408b8c:	60a2      	str	r2, [r4, #8]
  408b8e:	6023      	str	r3, [r4, #0]
  408b90:	e7af      	b.n	408af2 <__sfvwrite_r+0x152>
  408b92:	6820      	ldr	r0, [r4, #0]
  408b94:	46b8      	mov	r8, r7
  408b96:	46ba      	mov	sl, r7
  408b98:	46bb      	mov	fp, r7
  408b9a:	e755      	b.n	408a48 <__sfvwrite_r+0xa8>
  408b9c:	6962      	ldr	r2, [r4, #20]
  408b9e:	6820      	ldr	r0, [r4, #0]
  408ba0:	6921      	ldr	r1, [r4, #16]
  408ba2:	eb02 0842 	add.w	r8, r2, r2, lsl #1
  408ba6:	eba0 0a01 	sub.w	sl, r0, r1
  408baa:	eb08 78d8 	add.w	r8, r8, r8, lsr #31
  408bae:	f10a 0001 	add.w	r0, sl, #1
  408bb2:	ea4f 0868 	mov.w	r8, r8, asr #1
  408bb6:	4438      	add	r0, r7
  408bb8:	4540      	cmp	r0, r8
  408bba:	4642      	mov	r2, r8
  408bbc:	bf84      	itt	hi
  408bbe:	4680      	movhi	r8, r0
  408bc0:	4642      	movhi	r2, r8
  408bc2:	055b      	lsls	r3, r3, #21
  408bc4:	d544      	bpl.n	408c50 <__sfvwrite_r+0x2b0>
  408bc6:	4611      	mov	r1, r2
  408bc8:	9800      	ldr	r0, [sp, #0]
  408bca:	f000 f921 	bl	408e10 <_malloc_r>
  408bce:	4683      	mov	fp, r0
  408bd0:	2800      	cmp	r0, #0
  408bd2:	d055      	beq.n	408c80 <__sfvwrite_r+0x2e0>
  408bd4:	4652      	mov	r2, sl
  408bd6:	6921      	ldr	r1, [r4, #16]
  408bd8:	f7fe fa68 	bl	4070ac <memcpy>
  408bdc:	89a3      	ldrh	r3, [r4, #12]
  408bde:	f423 6390 	bic.w	r3, r3, #1152	; 0x480
  408be2:	f043 0380 	orr.w	r3, r3, #128	; 0x80
  408be6:	81a3      	strh	r3, [r4, #12]
  408be8:	eb0b 000a 	add.w	r0, fp, sl
  408bec:	eba8 030a 	sub.w	r3, r8, sl
  408bf0:	f8c4 b010 	str.w	fp, [r4, #16]
  408bf4:	f8c4 8014 	str.w	r8, [r4, #20]
  408bf8:	6020      	str	r0, [r4, #0]
  408bfa:	60a3      	str	r3, [r4, #8]
  408bfc:	46b8      	mov	r8, r7
  408bfe:	46ba      	mov	sl, r7
  408c00:	46bb      	mov	fp, r7
  408c02:	e721      	b.n	408a48 <__sfvwrite_r+0xa8>
  408c04:	f06f 4100 	mvn.w	r1, #2147483648	; 0x80000000
  408c08:	42b9      	cmp	r1, r7
  408c0a:	bf28      	it	cs
  408c0c:	4639      	movcs	r1, r7
  408c0e:	464a      	mov	r2, r9
  408c10:	fb91 f1f3 	sdiv	r1, r1, r3
  408c14:	9800      	ldr	r0, [sp, #0]
  408c16:	6a66      	ldr	r6, [r4, #36]	; 0x24
  408c18:	fb03 f301 	mul.w	r3, r3, r1
  408c1c:	69e1      	ldr	r1, [r4, #28]
  408c1e:	47b0      	blx	r6
  408c20:	f1b0 0a00 	subs.w	sl, r0, #0
  408c24:	f73f af1b 	bgt.w	408a5e <__sfvwrite_r+0xbe>
  408c28:	e738      	b.n	408a9c <__sfvwrite_r+0xfc>
  408c2a:	461a      	mov	r2, r3
  408c2c:	4629      	mov	r1, r5
  408c2e:	9301      	str	r3, [sp, #4]
  408c30:	f000 fc06 	bl	409440 <memmove>
  408c34:	6822      	ldr	r2, [r4, #0]
  408c36:	9b01      	ldr	r3, [sp, #4]
  408c38:	9800      	ldr	r0, [sp, #0]
  408c3a:	441a      	add	r2, r3
  408c3c:	6022      	str	r2, [r4, #0]
  408c3e:	4621      	mov	r1, r4
  408c40:	f7ff fc4a 	bl	4084d8 <_fflush_r>
  408c44:	9b01      	ldr	r3, [sp, #4]
  408c46:	2800      	cmp	r0, #0
  408c48:	f47f af28 	bne.w	408a9c <__sfvwrite_r+0xfc>
  408c4c:	461f      	mov	r7, r3
  408c4e:	e750      	b.n	408af2 <__sfvwrite_r+0x152>
  408c50:	9800      	ldr	r0, [sp, #0]
  408c52:	f000 fc65 	bl	409520 <_realloc_r>
  408c56:	4683      	mov	fp, r0
  408c58:	2800      	cmp	r0, #0
  408c5a:	d1c5      	bne.n	408be8 <__sfvwrite_r+0x248>
  408c5c:	9d00      	ldr	r5, [sp, #0]
  408c5e:	6921      	ldr	r1, [r4, #16]
  408c60:	4628      	mov	r0, r5
  408c62:	f7ff fdb7 	bl	4087d4 <_free_r>
  408c66:	f9b4 300c 	ldrsh.w	r3, [r4, #12]
  408c6a:	220c      	movs	r2, #12
  408c6c:	f023 0380 	bic.w	r3, r3, #128	; 0x80
  408c70:	602a      	str	r2, [r5, #0]
  408c72:	e715      	b.n	408aa0 <__sfvwrite_r+0x100>
  408c74:	f106 0901 	add.w	r9, r6, #1
  408c78:	e722      	b.n	408ac0 <__sfvwrite_r+0x120>
  408c7a:	f04f 30ff 	mov.w	r0, #4294967295
  408c7e:	e6bf      	b.n	408a00 <__sfvwrite_r+0x60>
  408c80:	9a00      	ldr	r2, [sp, #0]
  408c82:	230c      	movs	r3, #12
  408c84:	6013      	str	r3, [r2, #0]
  408c86:	f9b4 300c 	ldrsh.w	r3, [r4, #12]
  408c8a:	e709      	b.n	408aa0 <__sfvwrite_r+0x100>
  408c8c:	7ffffc00 	.word	0x7ffffc00

00408c90 <_fwalk_reent>:
  408c90:	e92d 43f8 	stmdb	sp!, {r3, r4, r5, r6, r7, r8, r9, lr}
  408c94:	f510 7738 	adds.w	r7, r0, #736	; 0x2e0
  408c98:	d01f      	beq.n	408cda <_fwalk_reent+0x4a>
  408c9a:	4688      	mov	r8, r1
  408c9c:	4606      	mov	r6, r0
  408c9e:	f04f 0900 	mov.w	r9, #0
  408ca2:	687d      	ldr	r5, [r7, #4]
  408ca4:	68bc      	ldr	r4, [r7, #8]
  408ca6:	3d01      	subs	r5, #1
  408ca8:	d411      	bmi.n	408cce <_fwalk_reent+0x3e>
  408caa:	89a3      	ldrh	r3, [r4, #12]
  408cac:	2b01      	cmp	r3, #1
  408cae:	f105 35ff 	add.w	r5, r5, #4294967295
  408cb2:	d908      	bls.n	408cc6 <_fwalk_reent+0x36>
  408cb4:	f9b4 300e 	ldrsh.w	r3, [r4, #14]
  408cb8:	3301      	adds	r3, #1
  408cba:	4621      	mov	r1, r4
  408cbc:	4630      	mov	r0, r6
  408cbe:	d002      	beq.n	408cc6 <_fwalk_reent+0x36>
  408cc0:	47c0      	blx	r8
  408cc2:	ea49 0900 	orr.w	r9, r9, r0
  408cc6:	1c6b      	adds	r3, r5, #1
  408cc8:	f104 0468 	add.w	r4, r4, #104	; 0x68
  408ccc:	d1ed      	bne.n	408caa <_fwalk_reent+0x1a>
  408cce:	683f      	ldr	r7, [r7, #0]
  408cd0:	2f00      	cmp	r7, #0
  408cd2:	d1e6      	bne.n	408ca2 <_fwalk_reent+0x12>
  408cd4:	4648      	mov	r0, r9
  408cd6:	e8bd 83f8 	ldmia.w	sp!, {r3, r4, r5, r6, r7, r8, r9, pc}
  408cda:	46b9      	mov	r9, r7
  408cdc:	4648      	mov	r0, r9
  408cde:	e8bd 83f8 	ldmia.w	sp!, {r3, r4, r5, r6, r7, r8, r9, pc}
  408ce2:	bf00      	nop

00408ce4 <__locale_mb_cur_max>:
  408ce4:	4b04      	ldr	r3, [pc, #16]	; (408cf8 <__locale_mb_cur_max+0x14>)
  408ce6:	4a05      	ldr	r2, [pc, #20]	; (408cfc <__locale_mb_cur_max+0x18>)
  408ce8:	681b      	ldr	r3, [r3, #0]
  408cea:	6b5b      	ldr	r3, [r3, #52]	; 0x34
  408cec:	2b00      	cmp	r3, #0
  408cee:	bf08      	it	eq
  408cf0:	4613      	moveq	r3, r2
  408cf2:	f893 0128 	ldrb.w	r0, [r3, #296]	; 0x128
  408cf6:	4770      	bx	lr
  408cf8:	20400028 	.word	0x20400028
  408cfc:	2040045c 	.word	0x2040045c

00408d00 <__retarget_lock_init_recursive>:
  408d00:	4770      	bx	lr
  408d02:	bf00      	nop

00408d04 <__retarget_lock_close_recursive>:
  408d04:	4770      	bx	lr
  408d06:	bf00      	nop

00408d08 <__retarget_lock_acquire_recursive>:
  408d08:	4770      	bx	lr
  408d0a:	bf00      	nop

00408d0c <__retarget_lock_release_recursive>:
  408d0c:	4770      	bx	lr
  408d0e:	bf00      	nop

00408d10 <__swhatbuf_r>:
  408d10:	b570      	push	{r4, r5, r6, lr}
  408d12:	460c      	mov	r4, r1
  408d14:	f9b1 100e 	ldrsh.w	r1, [r1, #14]
  408d18:	2900      	cmp	r1, #0
  408d1a:	b090      	sub	sp, #64	; 0x40
  408d1c:	4615      	mov	r5, r2
  408d1e:	461e      	mov	r6, r3
  408d20:	db14      	blt.n	408d4c <__swhatbuf_r+0x3c>
  408d22:	aa01      	add	r2, sp, #4
  408d24:	f000 ff74 	bl	409c10 <_fstat_r>
  408d28:	2800      	cmp	r0, #0
  408d2a:	db0f      	blt.n	408d4c <__swhatbuf_r+0x3c>
  408d2c:	9a02      	ldr	r2, [sp, #8]
  408d2e:	f402 4270 	and.w	r2, r2, #61440	; 0xf000
  408d32:	f5a2 5200 	sub.w	r2, r2, #8192	; 0x2000
  408d36:	fab2 f282 	clz	r2, r2
  408d3a:	0952      	lsrs	r2, r2, #5
  408d3c:	f44f 6380 	mov.w	r3, #1024	; 0x400
  408d40:	f44f 6000 	mov.w	r0, #2048	; 0x800
  408d44:	6032      	str	r2, [r6, #0]
  408d46:	602b      	str	r3, [r5, #0]
  408d48:	b010      	add	sp, #64	; 0x40
  408d4a:	bd70      	pop	{r4, r5, r6, pc}
  408d4c:	89a2      	ldrh	r2, [r4, #12]
  408d4e:	2300      	movs	r3, #0
  408d50:	f012 0080 	ands.w	r0, r2, #128	; 0x80
  408d54:	6033      	str	r3, [r6, #0]
  408d56:	d004      	beq.n	408d62 <__swhatbuf_r+0x52>
  408d58:	2240      	movs	r2, #64	; 0x40
  408d5a:	4618      	mov	r0, r3
  408d5c:	602a      	str	r2, [r5, #0]
  408d5e:	b010      	add	sp, #64	; 0x40
  408d60:	bd70      	pop	{r4, r5, r6, pc}
  408d62:	f44f 6380 	mov.w	r3, #1024	; 0x400
  408d66:	602b      	str	r3, [r5, #0]
  408d68:	b010      	add	sp, #64	; 0x40
  408d6a:	bd70      	pop	{r4, r5, r6, pc}

00408d6c <__smakebuf_r>:
  408d6c:	898a      	ldrh	r2, [r1, #12]
  408d6e:	0792      	lsls	r2, r2, #30
  408d70:	460b      	mov	r3, r1
  408d72:	d506      	bpl.n	408d82 <__smakebuf_r+0x16>
  408d74:	f101 0243 	add.w	r2, r1, #67	; 0x43
  408d78:	2101      	movs	r1, #1
  408d7a:	601a      	str	r2, [r3, #0]
  408d7c:	611a      	str	r2, [r3, #16]
  408d7e:	6159      	str	r1, [r3, #20]
  408d80:	4770      	bx	lr
  408d82:	b5f0      	push	{r4, r5, r6, r7, lr}
  408d84:	b083      	sub	sp, #12
  408d86:	ab01      	add	r3, sp, #4
  408d88:	466a      	mov	r2, sp
  408d8a:	460c      	mov	r4, r1
  408d8c:	4606      	mov	r6, r0
  408d8e:	f7ff ffbf 	bl	408d10 <__swhatbuf_r>
  408d92:	9900      	ldr	r1, [sp, #0]
  408d94:	4605      	mov	r5, r0
  408d96:	4630      	mov	r0, r6
  408d98:	f000 f83a 	bl	408e10 <_malloc_r>
  408d9c:	f9b4 300c 	ldrsh.w	r3, [r4, #12]
  408da0:	b1d8      	cbz	r0, 408dda <__smakebuf_r+0x6e>
  408da2:	9a01      	ldr	r2, [sp, #4]
  408da4:	4f15      	ldr	r7, [pc, #84]	; (408dfc <__smakebuf_r+0x90>)
  408da6:	9900      	ldr	r1, [sp, #0]
  408da8:	63f7      	str	r7, [r6, #60]	; 0x3c
  408daa:	f043 0380 	orr.w	r3, r3, #128	; 0x80
  408dae:	81a3      	strh	r3, [r4, #12]
  408db0:	6020      	str	r0, [r4, #0]
  408db2:	6120      	str	r0, [r4, #16]
  408db4:	6161      	str	r1, [r4, #20]
  408db6:	b91a      	cbnz	r2, 408dc0 <__smakebuf_r+0x54>
  408db8:	432b      	orrs	r3, r5
  408dba:	81a3      	strh	r3, [r4, #12]
  408dbc:	b003      	add	sp, #12
  408dbe:	bdf0      	pop	{r4, r5, r6, r7, pc}
  408dc0:	4630      	mov	r0, r6
  408dc2:	f9b4 100e 	ldrsh.w	r1, [r4, #14]
  408dc6:	f000 ff37 	bl	409c38 <_isatty_r>
  408dca:	b1a0      	cbz	r0, 408df6 <__smakebuf_r+0x8a>
  408dcc:	89a3      	ldrh	r3, [r4, #12]
  408dce:	f023 0303 	bic.w	r3, r3, #3
  408dd2:	f043 0301 	orr.w	r3, r3, #1
  408dd6:	b21b      	sxth	r3, r3
  408dd8:	e7ee      	b.n	408db8 <__smakebuf_r+0x4c>
  408dda:	059a      	lsls	r2, r3, #22
  408ddc:	d4ee      	bmi.n	408dbc <__smakebuf_r+0x50>
  408dde:	f023 0303 	bic.w	r3, r3, #3
  408de2:	f104 0243 	add.w	r2, r4, #67	; 0x43
  408de6:	f043 0302 	orr.w	r3, r3, #2
  408dea:	2101      	movs	r1, #1
  408dec:	81a3      	strh	r3, [r4, #12]
  408dee:	6022      	str	r2, [r4, #0]
  408df0:	6122      	str	r2, [r4, #16]
  408df2:	6161      	str	r1, [r4, #20]
  408df4:	e7e2      	b.n	408dbc <__smakebuf_r+0x50>
  408df6:	f9b4 300c 	ldrsh.w	r3, [r4, #12]
  408dfa:	e7dd      	b.n	408db8 <__smakebuf_r+0x4c>
  408dfc:	0040852d 	.word	0x0040852d

00408e00 <malloc>:
  408e00:	4b02      	ldr	r3, [pc, #8]	; (408e0c <malloc+0xc>)
  408e02:	4601      	mov	r1, r0
  408e04:	6818      	ldr	r0, [r3, #0]
  408e06:	f000 b803 	b.w	408e10 <_malloc_r>
  408e0a:	bf00      	nop
  408e0c:	20400028 	.word	0x20400028

00408e10 <_malloc_r>:
  408e10:	e92d 4ff0 	stmdb	sp!, {r4, r5, r6, r7, r8, r9, sl, fp, lr}
  408e14:	f101 060b 	add.w	r6, r1, #11
  408e18:	2e16      	cmp	r6, #22
  408e1a:	b083      	sub	sp, #12
  408e1c:	4605      	mov	r5, r0
  408e1e:	f240 809e 	bls.w	408f5e <_malloc_r+0x14e>
  408e22:	f036 0607 	bics.w	r6, r6, #7
  408e26:	f100 80bd 	bmi.w	408fa4 <_malloc_r+0x194>
  408e2a:	42b1      	cmp	r1, r6
  408e2c:	f200 80ba 	bhi.w	408fa4 <_malloc_r+0x194>
  408e30:	f000 fb6a 	bl	409508 <__malloc_lock>
  408e34:	f5b6 7ffc 	cmp.w	r6, #504	; 0x1f8
  408e38:	f0c0 8293 	bcc.w	409362 <_malloc_r+0x552>
  408e3c:	0a73      	lsrs	r3, r6, #9
  408e3e:	f000 80b8 	beq.w	408fb2 <_malloc_r+0x1a2>
  408e42:	2b04      	cmp	r3, #4
  408e44:	f200 8179 	bhi.w	40913a <_malloc_r+0x32a>
  408e48:	09b3      	lsrs	r3, r6, #6
  408e4a:	f103 0039 	add.w	r0, r3, #57	; 0x39
  408e4e:	f103 0e38 	add.w	lr, r3, #56	; 0x38
  408e52:	00c3      	lsls	r3, r0, #3
  408e54:	4fbf      	ldr	r7, [pc, #764]	; (409154 <_malloc_r+0x344>)
  408e56:	443b      	add	r3, r7
  408e58:	f1a3 0108 	sub.w	r1, r3, #8
  408e5c:	685c      	ldr	r4, [r3, #4]
  408e5e:	42a1      	cmp	r1, r4
  408e60:	d106      	bne.n	408e70 <_malloc_r+0x60>
  408e62:	e00c      	b.n	408e7e <_malloc_r+0x6e>
  408e64:	2a00      	cmp	r2, #0
  408e66:	f280 80aa 	bge.w	408fbe <_malloc_r+0x1ae>
  408e6a:	68e4      	ldr	r4, [r4, #12]
  408e6c:	42a1      	cmp	r1, r4
  408e6e:	d006      	beq.n	408e7e <_malloc_r+0x6e>
  408e70:	6863      	ldr	r3, [r4, #4]
  408e72:	f023 0303 	bic.w	r3, r3, #3
  408e76:	1b9a      	subs	r2, r3, r6
  408e78:	2a0f      	cmp	r2, #15
  408e7a:	ddf3      	ble.n	408e64 <_malloc_r+0x54>
  408e7c:	4670      	mov	r0, lr
  408e7e:	693c      	ldr	r4, [r7, #16]
  408e80:	f8df e2e4 	ldr.w	lr, [pc, #740]	; 409168 <_malloc_r+0x358>
  408e84:	4574      	cmp	r4, lr
  408e86:	f000 81ab 	beq.w	4091e0 <_malloc_r+0x3d0>
  408e8a:	6863      	ldr	r3, [r4, #4]
  408e8c:	f023 0303 	bic.w	r3, r3, #3
  408e90:	1b9a      	subs	r2, r3, r6
  408e92:	2a0f      	cmp	r2, #15
  408e94:	f300 8190 	bgt.w	4091b8 <_malloc_r+0x3a8>
  408e98:	2a00      	cmp	r2, #0
  408e9a:	f8c7 e014 	str.w	lr, [r7, #20]
  408e9e:	f8c7 e010 	str.w	lr, [r7, #16]
  408ea2:	f280 809d 	bge.w	408fe0 <_malloc_r+0x1d0>
  408ea6:	f5b3 7f00 	cmp.w	r3, #512	; 0x200
  408eaa:	f080 8161 	bcs.w	409170 <_malloc_r+0x360>
  408eae:	08db      	lsrs	r3, r3, #3
  408eb0:	f103 0c01 	add.w	ip, r3, #1
  408eb4:	1099      	asrs	r1, r3, #2
  408eb6:	687a      	ldr	r2, [r7, #4]
  408eb8:	f857 803c 	ldr.w	r8, [r7, ip, lsl #3]
  408ebc:	f8c4 8008 	str.w	r8, [r4, #8]
  408ec0:	2301      	movs	r3, #1
  408ec2:	408b      	lsls	r3, r1
  408ec4:	eb07 01cc 	add.w	r1, r7, ip, lsl #3
  408ec8:	4313      	orrs	r3, r2
  408eca:	3908      	subs	r1, #8
  408ecc:	60e1      	str	r1, [r4, #12]
  408ece:	607b      	str	r3, [r7, #4]
  408ed0:	f847 403c 	str.w	r4, [r7, ip, lsl #3]
  408ed4:	f8c8 400c 	str.w	r4, [r8, #12]
  408ed8:	1082      	asrs	r2, r0, #2
  408eda:	2401      	movs	r4, #1
  408edc:	4094      	lsls	r4, r2
  408ede:	429c      	cmp	r4, r3
  408ee0:	f200 808b 	bhi.w	408ffa <_malloc_r+0x1ea>
  408ee4:	421c      	tst	r4, r3
  408ee6:	d106      	bne.n	408ef6 <_malloc_r+0xe6>
  408ee8:	f020 0003 	bic.w	r0, r0, #3
  408eec:	0064      	lsls	r4, r4, #1
  408eee:	421c      	tst	r4, r3
  408ef0:	f100 0004 	add.w	r0, r0, #4
  408ef4:	d0fa      	beq.n	408eec <_malloc_r+0xdc>
  408ef6:	eb07 09c0 	add.w	r9, r7, r0, lsl #3
  408efa:	46cc      	mov	ip, r9
  408efc:	4680      	mov	r8, r0
  408efe:	f8dc 300c 	ldr.w	r3, [ip, #12]
  408f02:	459c      	cmp	ip, r3
  408f04:	d107      	bne.n	408f16 <_malloc_r+0x106>
  408f06:	e16d      	b.n	4091e4 <_malloc_r+0x3d4>
  408f08:	2a00      	cmp	r2, #0
  408f0a:	f280 817b 	bge.w	409204 <_malloc_r+0x3f4>
  408f0e:	68db      	ldr	r3, [r3, #12]
  408f10:	459c      	cmp	ip, r3
  408f12:	f000 8167 	beq.w	4091e4 <_malloc_r+0x3d4>
  408f16:	6859      	ldr	r1, [r3, #4]
  408f18:	f021 0103 	bic.w	r1, r1, #3
  408f1c:	1b8a      	subs	r2, r1, r6
  408f1e:	2a0f      	cmp	r2, #15
  408f20:	ddf2      	ble.n	408f08 <_malloc_r+0xf8>
  408f22:	f8d3 c00c 	ldr.w	ip, [r3, #12]
  408f26:	f8d3 8008 	ldr.w	r8, [r3, #8]
  408f2a:	9300      	str	r3, [sp, #0]
  408f2c:	199c      	adds	r4, r3, r6
  408f2e:	4628      	mov	r0, r5
  408f30:	f046 0601 	orr.w	r6, r6, #1
  408f34:	f042 0501 	orr.w	r5, r2, #1
  408f38:	605e      	str	r6, [r3, #4]
  408f3a:	f8c8 c00c 	str.w	ip, [r8, #12]
  408f3e:	f8cc 8008 	str.w	r8, [ip, #8]
  408f42:	617c      	str	r4, [r7, #20]
  408f44:	613c      	str	r4, [r7, #16]
  408f46:	f8c4 e00c 	str.w	lr, [r4, #12]
  408f4a:	f8c4 e008 	str.w	lr, [r4, #8]
  408f4e:	6065      	str	r5, [r4, #4]
  408f50:	505a      	str	r2, [r3, r1]
  408f52:	f000 fadf 	bl	409514 <__malloc_unlock>
  408f56:	9b00      	ldr	r3, [sp, #0]
  408f58:	f103 0408 	add.w	r4, r3, #8
  408f5c:	e01e      	b.n	408f9c <_malloc_r+0x18c>
  408f5e:	2910      	cmp	r1, #16
  408f60:	d820      	bhi.n	408fa4 <_malloc_r+0x194>
  408f62:	f000 fad1 	bl	409508 <__malloc_lock>
  408f66:	2610      	movs	r6, #16
  408f68:	2318      	movs	r3, #24
  408f6a:	2002      	movs	r0, #2
  408f6c:	4f79      	ldr	r7, [pc, #484]	; (409154 <_malloc_r+0x344>)
  408f6e:	443b      	add	r3, r7
  408f70:	f1a3 0208 	sub.w	r2, r3, #8
  408f74:	685c      	ldr	r4, [r3, #4]
  408f76:	4294      	cmp	r4, r2
  408f78:	f000 813d 	beq.w	4091f6 <_malloc_r+0x3e6>
  408f7c:	6863      	ldr	r3, [r4, #4]
  408f7e:	68e1      	ldr	r1, [r4, #12]
  408f80:	68a6      	ldr	r6, [r4, #8]
  408f82:	f023 0303 	bic.w	r3, r3, #3
  408f86:	4423      	add	r3, r4
  408f88:	4628      	mov	r0, r5
  408f8a:	685a      	ldr	r2, [r3, #4]
  408f8c:	60f1      	str	r1, [r6, #12]
  408f8e:	f042 0201 	orr.w	r2, r2, #1
  408f92:	608e      	str	r6, [r1, #8]
  408f94:	605a      	str	r2, [r3, #4]
  408f96:	f000 fabd 	bl	409514 <__malloc_unlock>
  408f9a:	3408      	adds	r4, #8
  408f9c:	4620      	mov	r0, r4
  408f9e:	b003      	add	sp, #12
  408fa0:	e8bd 8ff0 	ldmia.w	sp!, {r4, r5, r6, r7, r8, r9, sl, fp, pc}
  408fa4:	2400      	movs	r4, #0
  408fa6:	230c      	movs	r3, #12
  408fa8:	4620      	mov	r0, r4
  408faa:	602b      	str	r3, [r5, #0]
  408fac:	b003      	add	sp, #12
  408fae:	e8bd 8ff0 	ldmia.w	sp!, {r4, r5, r6, r7, r8, r9, sl, fp, pc}
  408fb2:	2040      	movs	r0, #64	; 0x40
  408fb4:	f44f 7300 	mov.w	r3, #512	; 0x200
  408fb8:	f04f 0e3f 	mov.w	lr, #63	; 0x3f
  408fbc:	e74a      	b.n	408e54 <_malloc_r+0x44>
  408fbe:	4423      	add	r3, r4
  408fc0:	68e1      	ldr	r1, [r4, #12]
  408fc2:	685a      	ldr	r2, [r3, #4]
  408fc4:	68a6      	ldr	r6, [r4, #8]
  408fc6:	f042 0201 	orr.w	r2, r2, #1
  408fca:	60f1      	str	r1, [r6, #12]
  408fcc:	4628      	mov	r0, r5
  408fce:	608e      	str	r6, [r1, #8]
  408fd0:	605a      	str	r2, [r3, #4]
  408fd2:	f000 fa9f 	bl	409514 <__malloc_unlock>
  408fd6:	3408      	adds	r4, #8
  408fd8:	4620      	mov	r0, r4
  408fda:	b003      	add	sp, #12
  408fdc:	e8bd 8ff0 	ldmia.w	sp!, {r4, r5, r6, r7, r8, r9, sl, fp, pc}
  408fe0:	4423      	add	r3, r4
  408fe2:	4628      	mov	r0, r5
  408fe4:	685a      	ldr	r2, [r3, #4]
  408fe6:	f042 0201 	orr.w	r2, r2, #1
  408fea:	605a      	str	r2, [r3, #4]
  408fec:	f000 fa92 	bl	409514 <__malloc_unlock>
  408ff0:	3408      	adds	r4, #8
  408ff2:	4620      	mov	r0, r4
  408ff4:	b003      	add	sp, #12
  408ff6:	e8bd 8ff0 	ldmia.w	sp!, {r4, r5, r6, r7, r8, r9, sl, fp, pc}
  408ffa:	68bc      	ldr	r4, [r7, #8]
  408ffc:	6863      	ldr	r3, [r4, #4]
  408ffe:	f023 0803 	bic.w	r8, r3, #3
  409002:	45b0      	cmp	r8, r6
  409004:	d304      	bcc.n	409010 <_malloc_r+0x200>
  409006:	eba8 0306 	sub.w	r3, r8, r6
  40900a:	2b0f      	cmp	r3, #15
  40900c:	f300 8085 	bgt.w	40911a <_malloc_r+0x30a>
  409010:	f8df 9158 	ldr.w	r9, [pc, #344]	; 40916c <_malloc_r+0x35c>
  409014:	4b50      	ldr	r3, [pc, #320]	; (409158 <_malloc_r+0x348>)
  409016:	f8d9 2000 	ldr.w	r2, [r9]
  40901a:	681b      	ldr	r3, [r3, #0]
  40901c:	3201      	adds	r2, #1
  40901e:	4433      	add	r3, r6
  409020:	eb04 0a08 	add.w	sl, r4, r8
  409024:	f000 8155 	beq.w	4092d2 <_malloc_r+0x4c2>
  409028:	f503 5380 	add.w	r3, r3, #4096	; 0x1000
  40902c:	330f      	adds	r3, #15
  40902e:	f423 6b7f 	bic.w	fp, r3, #4080	; 0xff0
  409032:	f02b 0b0f 	bic.w	fp, fp, #15
  409036:	4659      	mov	r1, fp
  409038:	4628      	mov	r0, r5
  40903a:	f000 fc17 	bl	40986c <_sbrk_r>
  40903e:	1c41      	adds	r1, r0, #1
  409040:	4602      	mov	r2, r0
  409042:	f000 80fc 	beq.w	40923e <_malloc_r+0x42e>
  409046:	4582      	cmp	sl, r0
  409048:	f200 80f7 	bhi.w	40923a <_malloc_r+0x42a>
  40904c:	4b43      	ldr	r3, [pc, #268]	; (40915c <_malloc_r+0x34c>)
  40904e:	6819      	ldr	r1, [r3, #0]
  409050:	4459      	add	r1, fp
  409052:	6019      	str	r1, [r3, #0]
  409054:	f000 814d 	beq.w	4092f2 <_malloc_r+0x4e2>
  409058:	f8d9 0000 	ldr.w	r0, [r9]
  40905c:	3001      	adds	r0, #1
  40905e:	bf1b      	ittet	ne
  409060:	eba2 0a0a 	subne.w	sl, r2, sl
  409064:	4451      	addne	r1, sl
  409066:	f8c9 2000 	streq.w	r2, [r9]
  40906a:	6019      	strne	r1, [r3, #0]
  40906c:	f012 0107 	ands.w	r1, r2, #7
  409070:	f000 8115 	beq.w	40929e <_malloc_r+0x48e>
  409074:	f1c1 0008 	rsb	r0, r1, #8
  409078:	f5c1 5180 	rsb	r1, r1, #4096	; 0x1000
  40907c:	4402      	add	r2, r0
  40907e:	3108      	adds	r1, #8
  409080:	eb02 090b 	add.w	r9, r2, fp
  409084:	f3c9 090b 	ubfx	r9, r9, #0, #12
  409088:	eba1 0909 	sub.w	r9, r1, r9
  40908c:	4649      	mov	r1, r9
  40908e:	4628      	mov	r0, r5
  409090:	9301      	str	r3, [sp, #4]
  409092:	9200      	str	r2, [sp, #0]
  409094:	f000 fbea 	bl	40986c <_sbrk_r>
  409098:	1c43      	adds	r3, r0, #1
  40909a:	e89d 000c 	ldmia.w	sp, {r2, r3}
  40909e:	f000 8143 	beq.w	409328 <_malloc_r+0x518>
  4090a2:	1a80      	subs	r0, r0, r2
  4090a4:	4448      	add	r0, r9
  4090a6:	f040 0001 	orr.w	r0, r0, #1
  4090aa:	6819      	ldr	r1, [r3, #0]
  4090ac:	60ba      	str	r2, [r7, #8]
  4090ae:	4449      	add	r1, r9
  4090b0:	42bc      	cmp	r4, r7
  4090b2:	6050      	str	r0, [r2, #4]
  4090b4:	6019      	str	r1, [r3, #0]
  4090b6:	d017      	beq.n	4090e8 <_malloc_r+0x2d8>
  4090b8:	f1b8 0f0f 	cmp.w	r8, #15
  4090bc:	f240 80fb 	bls.w	4092b6 <_malloc_r+0x4a6>
  4090c0:	6860      	ldr	r0, [r4, #4]
  4090c2:	f1a8 020c 	sub.w	r2, r8, #12
  4090c6:	f022 0207 	bic.w	r2, r2, #7
  4090ca:	eb04 0e02 	add.w	lr, r4, r2
  4090ce:	f000 0001 	and.w	r0, r0, #1
  4090d2:	f04f 0c05 	mov.w	ip, #5
  4090d6:	4310      	orrs	r0, r2
  4090d8:	2a0f      	cmp	r2, #15
  4090da:	6060      	str	r0, [r4, #4]
  4090dc:	f8ce c004 	str.w	ip, [lr, #4]
  4090e0:	f8ce c008 	str.w	ip, [lr, #8]
  4090e4:	f200 8117 	bhi.w	409316 <_malloc_r+0x506>
  4090e8:	4b1d      	ldr	r3, [pc, #116]	; (409160 <_malloc_r+0x350>)
  4090ea:	68bc      	ldr	r4, [r7, #8]
  4090ec:	681a      	ldr	r2, [r3, #0]
  4090ee:	4291      	cmp	r1, r2
  4090f0:	bf88      	it	hi
  4090f2:	6019      	strhi	r1, [r3, #0]
  4090f4:	4b1b      	ldr	r3, [pc, #108]	; (409164 <_malloc_r+0x354>)
  4090f6:	681a      	ldr	r2, [r3, #0]
  4090f8:	4291      	cmp	r1, r2
  4090fa:	6862      	ldr	r2, [r4, #4]
  4090fc:	bf88      	it	hi
  4090fe:	6019      	strhi	r1, [r3, #0]
  409100:	f022 0203 	bic.w	r2, r2, #3
  409104:	4296      	cmp	r6, r2
  409106:	eba2 0306 	sub.w	r3, r2, r6
  40910a:	d801      	bhi.n	409110 <_malloc_r+0x300>
  40910c:	2b0f      	cmp	r3, #15
  40910e:	dc04      	bgt.n	40911a <_malloc_r+0x30a>
  409110:	4628      	mov	r0, r5
  409112:	f000 f9ff 	bl	409514 <__malloc_unlock>
  409116:	2400      	movs	r4, #0
  409118:	e740      	b.n	408f9c <_malloc_r+0x18c>
  40911a:	19a2      	adds	r2, r4, r6
  40911c:	f043 0301 	orr.w	r3, r3, #1
  409120:	f046 0601 	orr.w	r6, r6, #1
  409124:	6066      	str	r6, [r4, #4]
  409126:	4628      	mov	r0, r5
  409128:	60ba      	str	r2, [r7, #8]
  40912a:	6053      	str	r3, [r2, #4]
  40912c:	f000 f9f2 	bl	409514 <__malloc_unlock>
  409130:	3408      	adds	r4, #8
  409132:	4620      	mov	r0, r4
  409134:	b003      	add	sp, #12
  409136:	e8bd 8ff0 	ldmia.w	sp!, {r4, r5, r6, r7, r8, r9, sl, fp, pc}
  40913a:	2b14      	cmp	r3, #20
  40913c:	d971      	bls.n	409222 <_malloc_r+0x412>
  40913e:	2b54      	cmp	r3, #84	; 0x54
  409140:	f200 80a3 	bhi.w	40928a <_malloc_r+0x47a>
  409144:	0b33      	lsrs	r3, r6, #12
  409146:	f103 006f 	add.w	r0, r3, #111	; 0x6f
  40914a:	f103 0e6e 	add.w	lr, r3, #110	; 0x6e
  40914e:	00c3      	lsls	r3, r0, #3
  409150:	e680      	b.n	408e54 <_malloc_r+0x44>
  409152:	bf00      	nop
  409154:	204005c8 	.word	0x204005c8
  409158:	2040c5f0 	.word	0x2040c5f0
  40915c:	2040c5c0 	.word	0x2040c5c0
  409160:	2040c5e8 	.word	0x2040c5e8
  409164:	2040c5ec 	.word	0x2040c5ec
  409168:	204005d0 	.word	0x204005d0
  40916c:	204009d0 	.word	0x204009d0
  409170:	0a5a      	lsrs	r2, r3, #9
  409172:	2a04      	cmp	r2, #4
  409174:	d95b      	bls.n	40922e <_malloc_r+0x41e>
  409176:	2a14      	cmp	r2, #20
  409178:	f200 80ae 	bhi.w	4092d8 <_malloc_r+0x4c8>
  40917c:	f102 015c 	add.w	r1, r2, #92	; 0x5c
  409180:	00c9      	lsls	r1, r1, #3
  409182:	325b      	adds	r2, #91	; 0x5b
  409184:	eb07 0c01 	add.w	ip, r7, r1
  409188:	5879      	ldr	r1, [r7, r1]
  40918a:	f1ac 0c08 	sub.w	ip, ip, #8
  40918e:	458c      	cmp	ip, r1
  409190:	f000 8088 	beq.w	4092a4 <_malloc_r+0x494>
  409194:	684a      	ldr	r2, [r1, #4]
  409196:	f022 0203 	bic.w	r2, r2, #3
  40919a:	4293      	cmp	r3, r2
  40919c:	d273      	bcs.n	409286 <_malloc_r+0x476>
  40919e:	6889      	ldr	r1, [r1, #8]
  4091a0:	458c      	cmp	ip, r1
  4091a2:	d1f7      	bne.n	409194 <_malloc_r+0x384>
  4091a4:	f8dc 200c 	ldr.w	r2, [ip, #12]
  4091a8:	687b      	ldr	r3, [r7, #4]
  4091aa:	60e2      	str	r2, [r4, #12]
  4091ac:	f8c4 c008 	str.w	ip, [r4, #8]
  4091b0:	6094      	str	r4, [r2, #8]
  4091b2:	f8cc 400c 	str.w	r4, [ip, #12]
  4091b6:	e68f      	b.n	408ed8 <_malloc_r+0xc8>
  4091b8:	19a1      	adds	r1, r4, r6
  4091ba:	f046 0c01 	orr.w	ip, r6, #1
  4091be:	f042 0601 	orr.w	r6, r2, #1
  4091c2:	f8c4 c004 	str.w	ip, [r4, #4]
  4091c6:	4628      	mov	r0, r5
  4091c8:	6179      	str	r1, [r7, #20]
  4091ca:	6139      	str	r1, [r7, #16]
  4091cc:	f8c1 e00c 	str.w	lr, [r1, #12]
  4091d0:	f8c1 e008 	str.w	lr, [r1, #8]
  4091d4:	604e      	str	r6, [r1, #4]
  4091d6:	50e2      	str	r2, [r4, r3]
  4091d8:	f000 f99c 	bl	409514 <__malloc_unlock>
  4091dc:	3408      	adds	r4, #8
  4091de:	e6dd      	b.n	408f9c <_malloc_r+0x18c>
  4091e0:	687b      	ldr	r3, [r7, #4]
  4091e2:	e679      	b.n	408ed8 <_malloc_r+0xc8>
  4091e4:	f108 0801 	add.w	r8, r8, #1
  4091e8:	f018 0f03 	tst.w	r8, #3
  4091ec:	f10c 0c08 	add.w	ip, ip, #8
  4091f0:	f47f ae85 	bne.w	408efe <_malloc_r+0xee>
  4091f4:	e02d      	b.n	409252 <_malloc_r+0x442>
  4091f6:	68dc      	ldr	r4, [r3, #12]
  4091f8:	42a3      	cmp	r3, r4
  4091fa:	bf08      	it	eq
  4091fc:	3002      	addeq	r0, #2
  4091fe:	f43f ae3e 	beq.w	408e7e <_malloc_r+0x6e>
  409202:	e6bb      	b.n	408f7c <_malloc_r+0x16c>
  409204:	4419      	add	r1, r3
  409206:	461c      	mov	r4, r3
  409208:	684a      	ldr	r2, [r1, #4]
  40920a:	68db      	ldr	r3, [r3, #12]
  40920c:	f854 6f08 	ldr.w	r6, [r4, #8]!
  409210:	f042 0201 	orr.w	r2, r2, #1
  409214:	604a      	str	r2, [r1, #4]
  409216:	4628      	mov	r0, r5
  409218:	60f3      	str	r3, [r6, #12]
  40921a:	609e      	str	r6, [r3, #8]
  40921c:	f000 f97a 	bl	409514 <__malloc_unlock>
  409220:	e6bc      	b.n	408f9c <_malloc_r+0x18c>
  409222:	f103 005c 	add.w	r0, r3, #92	; 0x5c
  409226:	f103 0e5b 	add.w	lr, r3, #91	; 0x5b
  40922a:	00c3      	lsls	r3, r0, #3
  40922c:	e612      	b.n	408e54 <_malloc_r+0x44>
  40922e:	099a      	lsrs	r2, r3, #6
  409230:	f102 0139 	add.w	r1, r2, #57	; 0x39
  409234:	00c9      	lsls	r1, r1, #3
  409236:	3238      	adds	r2, #56	; 0x38
  409238:	e7a4      	b.n	409184 <_malloc_r+0x374>
  40923a:	42bc      	cmp	r4, r7
  40923c:	d054      	beq.n	4092e8 <_malloc_r+0x4d8>
  40923e:	68bc      	ldr	r4, [r7, #8]
  409240:	6862      	ldr	r2, [r4, #4]
  409242:	f022 0203 	bic.w	r2, r2, #3
  409246:	e75d      	b.n	409104 <_malloc_r+0x2f4>
  409248:	f859 3908 	ldr.w	r3, [r9], #-8
  40924c:	4599      	cmp	r9, r3
  40924e:	f040 8086 	bne.w	40935e <_malloc_r+0x54e>
  409252:	f010 0f03 	tst.w	r0, #3
  409256:	f100 30ff 	add.w	r0, r0, #4294967295
  40925a:	d1f5      	bne.n	409248 <_malloc_r+0x438>
  40925c:	687b      	ldr	r3, [r7, #4]
  40925e:	ea23 0304 	bic.w	r3, r3, r4
  409262:	607b      	str	r3, [r7, #4]
  409264:	0064      	lsls	r4, r4, #1
  409266:	429c      	cmp	r4, r3
  409268:	f63f aec7 	bhi.w	408ffa <_malloc_r+0x1ea>
  40926c:	2c00      	cmp	r4, #0
  40926e:	f43f aec4 	beq.w	408ffa <_malloc_r+0x1ea>
  409272:	421c      	tst	r4, r3
  409274:	4640      	mov	r0, r8
  409276:	f47f ae3e 	bne.w	408ef6 <_malloc_r+0xe6>
  40927a:	0064      	lsls	r4, r4, #1
  40927c:	421c      	tst	r4, r3
  40927e:	f100 0004 	add.w	r0, r0, #4
  409282:	d0fa      	beq.n	40927a <_malloc_r+0x46a>
  409284:	e637      	b.n	408ef6 <_malloc_r+0xe6>
  409286:	468c      	mov	ip, r1
  409288:	e78c      	b.n	4091a4 <_malloc_r+0x394>
  40928a:	f5b3 7faa 	cmp.w	r3, #340	; 0x154
  40928e:	d815      	bhi.n	4092bc <_malloc_r+0x4ac>
  409290:	0bf3      	lsrs	r3, r6, #15
  409292:	f103 0078 	add.w	r0, r3, #120	; 0x78
  409296:	f103 0e77 	add.w	lr, r3, #119	; 0x77
  40929a:	00c3      	lsls	r3, r0, #3
  40929c:	e5da      	b.n	408e54 <_malloc_r+0x44>
  40929e:	f44f 5180 	mov.w	r1, #4096	; 0x1000
  4092a2:	e6ed      	b.n	409080 <_malloc_r+0x270>
  4092a4:	687b      	ldr	r3, [r7, #4]
  4092a6:	1092      	asrs	r2, r2, #2
  4092a8:	2101      	movs	r1, #1
  4092aa:	fa01 f202 	lsl.w	r2, r1, r2
  4092ae:	4313      	orrs	r3, r2
  4092b0:	607b      	str	r3, [r7, #4]
  4092b2:	4662      	mov	r2, ip
  4092b4:	e779      	b.n	4091aa <_malloc_r+0x39a>
  4092b6:	2301      	movs	r3, #1
  4092b8:	6053      	str	r3, [r2, #4]
  4092ba:	e729      	b.n	409110 <_malloc_r+0x300>
  4092bc:	f240 5254 	movw	r2, #1364	; 0x554
  4092c0:	4293      	cmp	r3, r2
  4092c2:	d822      	bhi.n	40930a <_malloc_r+0x4fa>
  4092c4:	0cb3      	lsrs	r3, r6, #18
  4092c6:	f103 007d 	add.w	r0, r3, #125	; 0x7d
  4092ca:	f103 0e7c 	add.w	lr, r3, #124	; 0x7c
  4092ce:	00c3      	lsls	r3, r0, #3
  4092d0:	e5c0      	b.n	408e54 <_malloc_r+0x44>
  4092d2:	f103 0b10 	add.w	fp, r3, #16
  4092d6:	e6ae      	b.n	409036 <_malloc_r+0x226>
  4092d8:	2a54      	cmp	r2, #84	; 0x54
  4092da:	d829      	bhi.n	409330 <_malloc_r+0x520>
  4092dc:	0b1a      	lsrs	r2, r3, #12
  4092de:	f102 016f 	add.w	r1, r2, #111	; 0x6f
  4092e2:	00c9      	lsls	r1, r1, #3
  4092e4:	326e      	adds	r2, #110	; 0x6e
  4092e6:	e74d      	b.n	409184 <_malloc_r+0x374>
  4092e8:	4b20      	ldr	r3, [pc, #128]	; (40936c <_malloc_r+0x55c>)
  4092ea:	6819      	ldr	r1, [r3, #0]
  4092ec:	4459      	add	r1, fp
  4092ee:	6019      	str	r1, [r3, #0]
  4092f0:	e6b2      	b.n	409058 <_malloc_r+0x248>
  4092f2:	f3ca 000b 	ubfx	r0, sl, #0, #12
  4092f6:	2800      	cmp	r0, #0
  4092f8:	f47f aeae 	bne.w	409058 <_malloc_r+0x248>
  4092fc:	eb08 030b 	add.w	r3, r8, fp
  409300:	68ba      	ldr	r2, [r7, #8]
  409302:	f043 0301 	orr.w	r3, r3, #1
  409306:	6053      	str	r3, [r2, #4]
  409308:	e6ee      	b.n	4090e8 <_malloc_r+0x2d8>
  40930a:	207f      	movs	r0, #127	; 0x7f
  40930c:	f44f 737e 	mov.w	r3, #1016	; 0x3f8
  409310:	f04f 0e7e 	mov.w	lr, #126	; 0x7e
  409314:	e59e      	b.n	408e54 <_malloc_r+0x44>
  409316:	f104 0108 	add.w	r1, r4, #8
  40931a:	4628      	mov	r0, r5
  40931c:	9300      	str	r3, [sp, #0]
  40931e:	f7ff fa59 	bl	4087d4 <_free_r>
  409322:	9b00      	ldr	r3, [sp, #0]
  409324:	6819      	ldr	r1, [r3, #0]
  409326:	e6df      	b.n	4090e8 <_malloc_r+0x2d8>
  409328:	2001      	movs	r0, #1
  40932a:	f04f 0900 	mov.w	r9, #0
  40932e:	e6bc      	b.n	4090aa <_malloc_r+0x29a>
  409330:	f5b2 7faa 	cmp.w	r2, #340	; 0x154
  409334:	d805      	bhi.n	409342 <_malloc_r+0x532>
  409336:	0bda      	lsrs	r2, r3, #15
  409338:	f102 0178 	add.w	r1, r2, #120	; 0x78
  40933c:	00c9      	lsls	r1, r1, #3
  40933e:	3277      	adds	r2, #119	; 0x77
  409340:	e720      	b.n	409184 <_malloc_r+0x374>
  409342:	f240 5154 	movw	r1, #1364	; 0x554
  409346:	428a      	cmp	r2, r1
  409348:	d805      	bhi.n	409356 <_malloc_r+0x546>
  40934a:	0c9a      	lsrs	r2, r3, #18
  40934c:	f102 017d 	add.w	r1, r2, #125	; 0x7d
  409350:	00c9      	lsls	r1, r1, #3
  409352:	327c      	adds	r2, #124	; 0x7c
  409354:	e716      	b.n	409184 <_malloc_r+0x374>
  409356:	f44f 717e 	mov.w	r1, #1016	; 0x3f8
  40935a:	227e      	movs	r2, #126	; 0x7e
  40935c:	e712      	b.n	409184 <_malloc_r+0x374>
  40935e:	687b      	ldr	r3, [r7, #4]
  409360:	e780      	b.n	409264 <_malloc_r+0x454>
  409362:	08f0      	lsrs	r0, r6, #3
  409364:	f106 0308 	add.w	r3, r6, #8
  409368:	e600      	b.n	408f6c <_malloc_r+0x15c>
  40936a:	bf00      	nop
  40936c:	2040c5c0 	.word	0x2040c5c0

00409370 <__ascii_mbtowc>:
  409370:	b082      	sub	sp, #8
  409372:	b149      	cbz	r1, 409388 <__ascii_mbtowc+0x18>
  409374:	b15a      	cbz	r2, 40938e <__ascii_mbtowc+0x1e>
  409376:	b16b      	cbz	r3, 409394 <__ascii_mbtowc+0x24>
  409378:	7813      	ldrb	r3, [r2, #0]
  40937a:	600b      	str	r3, [r1, #0]
  40937c:	7812      	ldrb	r2, [r2, #0]
  40937e:	1c10      	adds	r0, r2, #0
  409380:	bf18      	it	ne
  409382:	2001      	movne	r0, #1
  409384:	b002      	add	sp, #8
  409386:	4770      	bx	lr
  409388:	a901      	add	r1, sp, #4
  40938a:	2a00      	cmp	r2, #0
  40938c:	d1f3      	bne.n	409376 <__ascii_mbtowc+0x6>
  40938e:	4610      	mov	r0, r2
  409390:	b002      	add	sp, #8
  409392:	4770      	bx	lr
  409394:	f06f 0001 	mvn.w	r0, #1
  409398:	e7f4      	b.n	409384 <__ascii_mbtowc+0x14>
  40939a:	bf00      	nop
  40939c:	0000      	movs	r0, r0
	...

004093a0 <memchr>:
  4093a0:	f001 01ff 	and.w	r1, r1, #255	; 0xff
  4093a4:	2a10      	cmp	r2, #16
  4093a6:	db2b      	blt.n	409400 <memchr+0x60>
  4093a8:	f010 0f07 	tst.w	r0, #7
  4093ac:	d008      	beq.n	4093c0 <memchr+0x20>
  4093ae:	f810 3b01 	ldrb.w	r3, [r0], #1
  4093b2:	3a01      	subs	r2, #1
  4093b4:	428b      	cmp	r3, r1
  4093b6:	d02d      	beq.n	409414 <memchr+0x74>
  4093b8:	f010 0f07 	tst.w	r0, #7
  4093bc:	b342      	cbz	r2, 409410 <memchr+0x70>
  4093be:	d1f6      	bne.n	4093ae <memchr+0xe>
  4093c0:	b4f0      	push	{r4, r5, r6, r7}
  4093c2:	ea41 2101 	orr.w	r1, r1, r1, lsl #8
  4093c6:	ea41 4101 	orr.w	r1, r1, r1, lsl #16
  4093ca:	f022 0407 	bic.w	r4, r2, #7
  4093ce:	f07f 0700 	mvns.w	r7, #0
  4093d2:	2300      	movs	r3, #0
  4093d4:	e8f0 5602 	ldrd	r5, r6, [r0], #8
  4093d8:	3c08      	subs	r4, #8
  4093da:	ea85 0501 	eor.w	r5, r5, r1
  4093de:	ea86 0601 	eor.w	r6, r6, r1
  4093e2:	fa85 f547 	uadd8	r5, r5, r7
  4093e6:	faa3 f587 	sel	r5, r3, r7
  4093ea:	fa86 f647 	uadd8	r6, r6, r7
  4093ee:	faa5 f687 	sel	r6, r5, r7
  4093f2:	b98e      	cbnz	r6, 409418 <memchr+0x78>
  4093f4:	d1ee      	bne.n	4093d4 <memchr+0x34>
  4093f6:	bcf0      	pop	{r4, r5, r6, r7}
  4093f8:	f001 01ff 	and.w	r1, r1, #255	; 0xff
  4093fc:	f002 0207 	and.w	r2, r2, #7
  409400:	b132      	cbz	r2, 409410 <memchr+0x70>
  409402:	f810 3b01 	ldrb.w	r3, [r0], #1
  409406:	3a01      	subs	r2, #1
  409408:	ea83 0301 	eor.w	r3, r3, r1
  40940c:	b113      	cbz	r3, 409414 <memchr+0x74>
  40940e:	d1f8      	bne.n	409402 <memchr+0x62>
  409410:	2000      	movs	r0, #0
  409412:	4770      	bx	lr
  409414:	3801      	subs	r0, #1
  409416:	4770      	bx	lr
  409418:	2d00      	cmp	r5, #0
  40941a:	bf06      	itte	eq
  40941c:	4635      	moveq	r5, r6
  40941e:	3803      	subeq	r0, #3
  409420:	3807      	subne	r0, #7
  409422:	f015 0f01 	tst.w	r5, #1
  409426:	d107      	bne.n	409438 <memchr+0x98>
  409428:	3001      	adds	r0, #1
  40942a:	f415 7f80 	tst.w	r5, #256	; 0x100
  40942e:	bf02      	ittt	eq
  409430:	3001      	addeq	r0, #1
  409432:	f415 3fc0 	tsteq.w	r5, #98304	; 0x18000
  409436:	3001      	addeq	r0, #1
  409438:	bcf0      	pop	{r4, r5, r6, r7}
  40943a:	3801      	subs	r0, #1
  40943c:	4770      	bx	lr
  40943e:	bf00      	nop

00409440 <memmove>:
  409440:	4288      	cmp	r0, r1
  409442:	b5f0      	push	{r4, r5, r6, r7, lr}
  409444:	d90d      	bls.n	409462 <memmove+0x22>
  409446:	188b      	adds	r3, r1, r2
  409448:	4298      	cmp	r0, r3
  40944a:	d20a      	bcs.n	409462 <memmove+0x22>
  40944c:	1884      	adds	r4, r0, r2
  40944e:	2a00      	cmp	r2, #0
  409450:	d051      	beq.n	4094f6 <memmove+0xb6>
  409452:	4622      	mov	r2, r4
  409454:	f813 4d01 	ldrb.w	r4, [r3, #-1]!
  409458:	f802 4d01 	strb.w	r4, [r2, #-1]!
  40945c:	4299      	cmp	r1, r3
  40945e:	d1f9      	bne.n	409454 <memmove+0x14>
  409460:	bdf0      	pop	{r4, r5, r6, r7, pc}
  409462:	2a0f      	cmp	r2, #15
  409464:	d948      	bls.n	4094f8 <memmove+0xb8>
  409466:	ea41 0300 	orr.w	r3, r1, r0
  40946a:	079b      	lsls	r3, r3, #30
  40946c:	d146      	bne.n	4094fc <memmove+0xbc>
  40946e:	f100 0410 	add.w	r4, r0, #16
  409472:	f101 0310 	add.w	r3, r1, #16
  409476:	4615      	mov	r5, r2
  409478:	f853 6c10 	ldr.w	r6, [r3, #-16]
  40947c:	f844 6c10 	str.w	r6, [r4, #-16]
  409480:	f853 6c0c 	ldr.w	r6, [r3, #-12]
  409484:	f844 6c0c 	str.w	r6, [r4, #-12]
  409488:	f853 6c08 	ldr.w	r6, [r3, #-8]
  40948c:	f844 6c08 	str.w	r6, [r4, #-8]
  409490:	3d10      	subs	r5, #16
  409492:	f853 6c04 	ldr.w	r6, [r3, #-4]
  409496:	f844 6c04 	str.w	r6, [r4, #-4]
  40949a:	2d0f      	cmp	r5, #15
  40949c:	f103 0310 	add.w	r3, r3, #16
  4094a0:	f104 0410 	add.w	r4, r4, #16
  4094a4:	d8e8      	bhi.n	409478 <memmove+0x38>
  4094a6:	f1a2 0310 	sub.w	r3, r2, #16
  4094aa:	f023 030f 	bic.w	r3, r3, #15
  4094ae:	f002 0e0f 	and.w	lr, r2, #15
  4094b2:	3310      	adds	r3, #16
  4094b4:	f1be 0f03 	cmp.w	lr, #3
  4094b8:	4419      	add	r1, r3
  4094ba:	4403      	add	r3, r0
  4094bc:	d921      	bls.n	409502 <memmove+0xc2>
  4094be:	1f1e      	subs	r6, r3, #4
  4094c0:	460d      	mov	r5, r1
  4094c2:	4674      	mov	r4, lr
  4094c4:	3c04      	subs	r4, #4
  4094c6:	f855 7b04 	ldr.w	r7, [r5], #4
  4094ca:	f846 7f04 	str.w	r7, [r6, #4]!
  4094ce:	2c03      	cmp	r4, #3
  4094d0:	d8f8      	bhi.n	4094c4 <memmove+0x84>
  4094d2:	f1ae 0404 	sub.w	r4, lr, #4
  4094d6:	f024 0403 	bic.w	r4, r4, #3
  4094da:	3404      	adds	r4, #4
  4094dc:	4421      	add	r1, r4
  4094de:	4423      	add	r3, r4
  4094e0:	f002 0203 	and.w	r2, r2, #3
  4094e4:	b162      	cbz	r2, 409500 <memmove+0xc0>
  4094e6:	3b01      	subs	r3, #1
  4094e8:	440a      	add	r2, r1
  4094ea:	f811 4b01 	ldrb.w	r4, [r1], #1
  4094ee:	f803 4f01 	strb.w	r4, [r3, #1]!
  4094f2:	428a      	cmp	r2, r1
  4094f4:	d1f9      	bne.n	4094ea <memmove+0xaa>
  4094f6:	bdf0      	pop	{r4, r5, r6, r7, pc}
  4094f8:	4603      	mov	r3, r0
  4094fa:	e7f3      	b.n	4094e4 <memmove+0xa4>
  4094fc:	4603      	mov	r3, r0
  4094fe:	e7f2      	b.n	4094e6 <memmove+0xa6>
  409500:	bdf0      	pop	{r4, r5, r6, r7, pc}
  409502:	4672      	mov	r2, lr
  409504:	e7ee      	b.n	4094e4 <memmove+0xa4>
  409506:	bf00      	nop

00409508 <__malloc_lock>:
  409508:	4801      	ldr	r0, [pc, #4]	; (409510 <__malloc_lock+0x8>)
  40950a:	f7ff bbfd 	b.w	408d08 <__retarget_lock_acquire_recursive>
  40950e:	bf00      	nop
  409510:	2040c658 	.word	0x2040c658

00409514 <__malloc_unlock>:
  409514:	4801      	ldr	r0, [pc, #4]	; (40951c <__malloc_unlock+0x8>)
  409516:	f7ff bbf9 	b.w	408d0c <__retarget_lock_release_recursive>
  40951a:	bf00      	nop
  40951c:	2040c658 	.word	0x2040c658

00409520 <_realloc_r>:
  409520:	2900      	cmp	r1, #0
  409522:	f000 8095 	beq.w	409650 <_realloc_r+0x130>
  409526:	e92d 4ff0 	stmdb	sp!, {r4, r5, r6, r7, r8, r9, sl, fp, lr}
  40952a:	460d      	mov	r5, r1
  40952c:	4616      	mov	r6, r2
  40952e:	b083      	sub	sp, #12
  409530:	4680      	mov	r8, r0
  409532:	f106 070b 	add.w	r7, r6, #11
  409536:	f7ff ffe7 	bl	409508 <__malloc_lock>
  40953a:	f855 ec04 	ldr.w	lr, [r5, #-4]
  40953e:	2f16      	cmp	r7, #22
  409540:	f02e 0403 	bic.w	r4, lr, #3
  409544:	f1a5 0908 	sub.w	r9, r5, #8
  409548:	d83c      	bhi.n	4095c4 <_realloc_r+0xa4>
  40954a:	2210      	movs	r2, #16
  40954c:	4617      	mov	r7, r2
  40954e:	42be      	cmp	r6, r7
  409550:	d83d      	bhi.n	4095ce <_realloc_r+0xae>
  409552:	4294      	cmp	r4, r2
  409554:	da43      	bge.n	4095de <_realloc_r+0xbe>
  409556:	4bc4      	ldr	r3, [pc, #784]	; (409868 <_realloc_r+0x348>)
  409558:	6899      	ldr	r1, [r3, #8]
  40955a:	eb09 0004 	add.w	r0, r9, r4
  40955e:	4288      	cmp	r0, r1
  409560:	f000 80b4 	beq.w	4096cc <_realloc_r+0x1ac>
  409564:	6843      	ldr	r3, [r0, #4]
  409566:	f023 0101 	bic.w	r1, r3, #1
  40956a:	4401      	add	r1, r0
  40956c:	6849      	ldr	r1, [r1, #4]
  40956e:	07c9      	lsls	r1, r1, #31
  409570:	d54c      	bpl.n	40960c <_realloc_r+0xec>
  409572:	f01e 0f01 	tst.w	lr, #1
  409576:	f000 809b 	beq.w	4096b0 <_realloc_r+0x190>
  40957a:	4631      	mov	r1, r6
  40957c:	4640      	mov	r0, r8
  40957e:	f7ff fc47 	bl	408e10 <_malloc_r>
  409582:	4606      	mov	r6, r0
  409584:	2800      	cmp	r0, #0
  409586:	d03a      	beq.n	4095fe <_realloc_r+0xde>
  409588:	f855 3c04 	ldr.w	r3, [r5, #-4]
  40958c:	f023 0301 	bic.w	r3, r3, #1
  409590:	444b      	add	r3, r9
  409592:	f1a0 0208 	sub.w	r2, r0, #8
  409596:	429a      	cmp	r2, r3
  409598:	f000 8121 	beq.w	4097de <_realloc_r+0x2be>
  40959c:	1f22      	subs	r2, r4, #4
  40959e:	2a24      	cmp	r2, #36	; 0x24
  4095a0:	f200 8107 	bhi.w	4097b2 <_realloc_r+0x292>
  4095a4:	2a13      	cmp	r2, #19
  4095a6:	f200 80db 	bhi.w	409760 <_realloc_r+0x240>
  4095aa:	4603      	mov	r3, r0
  4095ac:	462a      	mov	r2, r5
  4095ae:	6811      	ldr	r1, [r2, #0]
  4095b0:	6019      	str	r1, [r3, #0]
  4095b2:	6851      	ldr	r1, [r2, #4]
  4095b4:	6059      	str	r1, [r3, #4]
  4095b6:	6892      	ldr	r2, [r2, #8]
  4095b8:	609a      	str	r2, [r3, #8]
  4095ba:	4629      	mov	r1, r5
  4095bc:	4640      	mov	r0, r8
  4095be:	f7ff f909 	bl	4087d4 <_free_r>
  4095c2:	e01c      	b.n	4095fe <_realloc_r+0xde>
  4095c4:	f027 0707 	bic.w	r7, r7, #7
  4095c8:	2f00      	cmp	r7, #0
  4095ca:	463a      	mov	r2, r7
  4095cc:	dabf      	bge.n	40954e <_realloc_r+0x2e>
  4095ce:	2600      	movs	r6, #0
  4095d0:	230c      	movs	r3, #12
  4095d2:	4630      	mov	r0, r6
  4095d4:	f8c8 3000 	str.w	r3, [r8]
  4095d8:	b003      	add	sp, #12
  4095da:	e8bd 8ff0 	ldmia.w	sp!, {r4, r5, r6, r7, r8, r9, sl, fp, pc}
  4095de:	462e      	mov	r6, r5
  4095e0:	1be3      	subs	r3, r4, r7
  4095e2:	2b0f      	cmp	r3, #15
  4095e4:	d81e      	bhi.n	409624 <_realloc_r+0x104>
  4095e6:	f8d9 3004 	ldr.w	r3, [r9, #4]
  4095ea:	f003 0301 	and.w	r3, r3, #1
  4095ee:	4323      	orrs	r3, r4
  4095f0:	444c      	add	r4, r9
  4095f2:	f8c9 3004 	str.w	r3, [r9, #4]
  4095f6:	6863      	ldr	r3, [r4, #4]
  4095f8:	f043 0301 	orr.w	r3, r3, #1
  4095fc:	6063      	str	r3, [r4, #4]
  4095fe:	4640      	mov	r0, r8
  409600:	f7ff ff88 	bl	409514 <__malloc_unlock>
  409604:	4630      	mov	r0, r6
  409606:	b003      	add	sp, #12
  409608:	e8bd 8ff0 	ldmia.w	sp!, {r4, r5, r6, r7, r8, r9, sl, fp, pc}
  40960c:	f023 0303 	bic.w	r3, r3, #3
  409610:	18e1      	adds	r1, r4, r3
  409612:	4291      	cmp	r1, r2
  409614:	db1f      	blt.n	409656 <_realloc_r+0x136>
  409616:	68c3      	ldr	r3, [r0, #12]
  409618:	6882      	ldr	r2, [r0, #8]
  40961a:	462e      	mov	r6, r5
  40961c:	60d3      	str	r3, [r2, #12]
  40961e:	460c      	mov	r4, r1
  409620:	609a      	str	r2, [r3, #8]
  409622:	e7dd      	b.n	4095e0 <_realloc_r+0xc0>
  409624:	f8d9 2004 	ldr.w	r2, [r9, #4]
  409628:	eb09 0107 	add.w	r1, r9, r7
  40962c:	f002 0201 	and.w	r2, r2, #1
  409630:	444c      	add	r4, r9
  409632:	f043 0301 	orr.w	r3, r3, #1
  409636:	4317      	orrs	r7, r2
  409638:	f8c9 7004 	str.w	r7, [r9, #4]
  40963c:	604b      	str	r3, [r1, #4]
  40963e:	6863      	ldr	r3, [r4, #4]
  409640:	f043 0301 	orr.w	r3, r3, #1
  409644:	3108      	adds	r1, #8
  409646:	6063      	str	r3, [r4, #4]
  409648:	4640      	mov	r0, r8
  40964a:	f7ff f8c3 	bl	4087d4 <_free_r>
  40964e:	e7d6      	b.n	4095fe <_realloc_r+0xde>
  409650:	4611      	mov	r1, r2
  409652:	f7ff bbdd 	b.w	408e10 <_malloc_r>
  409656:	f01e 0f01 	tst.w	lr, #1
  40965a:	d18e      	bne.n	40957a <_realloc_r+0x5a>
  40965c:	f855 1c08 	ldr.w	r1, [r5, #-8]
  409660:	eba9 0a01 	sub.w	sl, r9, r1
  409664:	f8da 1004 	ldr.w	r1, [sl, #4]
  409668:	f021 0103 	bic.w	r1, r1, #3
  40966c:	440b      	add	r3, r1
  40966e:	4423      	add	r3, r4
  409670:	4293      	cmp	r3, r2
  409672:	db25      	blt.n	4096c0 <_realloc_r+0x1a0>
  409674:	68c2      	ldr	r2, [r0, #12]
  409676:	6881      	ldr	r1, [r0, #8]
  409678:	4656      	mov	r6, sl
  40967a:	60ca      	str	r2, [r1, #12]
  40967c:	6091      	str	r1, [r2, #8]
  40967e:	f8da 100c 	ldr.w	r1, [sl, #12]
  409682:	f856 0f08 	ldr.w	r0, [r6, #8]!
  409686:	1f22      	subs	r2, r4, #4
  409688:	2a24      	cmp	r2, #36	; 0x24
  40968a:	60c1      	str	r1, [r0, #12]
  40968c:	6088      	str	r0, [r1, #8]
  40968e:	f200 8094 	bhi.w	4097ba <_realloc_r+0x29a>
  409692:	2a13      	cmp	r2, #19
  409694:	d96f      	bls.n	409776 <_realloc_r+0x256>
  409696:	6829      	ldr	r1, [r5, #0]
  409698:	f8ca 1008 	str.w	r1, [sl, #8]
  40969c:	6869      	ldr	r1, [r5, #4]
  40969e:	f8ca 100c 	str.w	r1, [sl, #12]
  4096a2:	2a1b      	cmp	r2, #27
  4096a4:	f200 80a2 	bhi.w	4097ec <_realloc_r+0x2cc>
  4096a8:	3508      	adds	r5, #8
  4096aa:	f10a 0210 	add.w	r2, sl, #16
  4096ae:	e063      	b.n	409778 <_realloc_r+0x258>
  4096b0:	f855 3c08 	ldr.w	r3, [r5, #-8]
  4096b4:	eba9 0a03 	sub.w	sl, r9, r3
  4096b8:	f8da 1004 	ldr.w	r1, [sl, #4]
  4096bc:	f021 0103 	bic.w	r1, r1, #3
  4096c0:	1863      	adds	r3, r4, r1
  4096c2:	4293      	cmp	r3, r2
  4096c4:	f6ff af59 	blt.w	40957a <_realloc_r+0x5a>
  4096c8:	4656      	mov	r6, sl
  4096ca:	e7d8      	b.n	40967e <_realloc_r+0x15e>
  4096cc:	6841      	ldr	r1, [r0, #4]
  4096ce:	f021 0b03 	bic.w	fp, r1, #3
  4096d2:	44a3      	add	fp, r4
  4096d4:	f107 0010 	add.w	r0, r7, #16
  4096d8:	4583      	cmp	fp, r0
  4096da:	da56      	bge.n	40978a <_realloc_r+0x26a>
  4096dc:	f01e 0f01 	tst.w	lr, #1
  4096e0:	f47f af4b 	bne.w	40957a <_realloc_r+0x5a>
  4096e4:	f855 1c08 	ldr.w	r1, [r5, #-8]
  4096e8:	eba9 0a01 	sub.w	sl, r9, r1
  4096ec:	f8da 1004 	ldr.w	r1, [sl, #4]
  4096f0:	f021 0103 	bic.w	r1, r1, #3
  4096f4:	448b      	add	fp, r1
  4096f6:	4558      	cmp	r0, fp
  4096f8:	dce2      	bgt.n	4096c0 <_realloc_r+0x1a0>
  4096fa:	4656      	mov	r6, sl
  4096fc:	f8da 100c 	ldr.w	r1, [sl, #12]
  409700:	f856 0f08 	ldr.w	r0, [r6, #8]!
  409704:	1f22      	subs	r2, r4, #4
  409706:	2a24      	cmp	r2, #36	; 0x24
  409708:	60c1      	str	r1, [r0, #12]
  40970a:	6088      	str	r0, [r1, #8]
  40970c:	f200 808f 	bhi.w	40982e <_realloc_r+0x30e>
  409710:	2a13      	cmp	r2, #19
  409712:	f240 808a 	bls.w	40982a <_realloc_r+0x30a>
  409716:	6829      	ldr	r1, [r5, #0]
  409718:	f8ca 1008 	str.w	r1, [sl, #8]
  40971c:	6869      	ldr	r1, [r5, #4]
  40971e:	f8ca 100c 	str.w	r1, [sl, #12]
  409722:	2a1b      	cmp	r2, #27
  409724:	f200 808a 	bhi.w	40983c <_realloc_r+0x31c>
  409728:	3508      	adds	r5, #8
  40972a:	f10a 0210 	add.w	r2, sl, #16
  40972e:	6829      	ldr	r1, [r5, #0]
  409730:	6011      	str	r1, [r2, #0]
  409732:	6869      	ldr	r1, [r5, #4]
  409734:	6051      	str	r1, [r2, #4]
  409736:	68a9      	ldr	r1, [r5, #8]
  409738:	6091      	str	r1, [r2, #8]
  40973a:	eb0a 0107 	add.w	r1, sl, r7
  40973e:	ebab 0207 	sub.w	r2, fp, r7
  409742:	f042 0201 	orr.w	r2, r2, #1
  409746:	6099      	str	r1, [r3, #8]
  409748:	604a      	str	r2, [r1, #4]
  40974a:	f8da 3004 	ldr.w	r3, [sl, #4]
  40974e:	f003 0301 	and.w	r3, r3, #1
  409752:	431f      	orrs	r7, r3
  409754:	4640      	mov	r0, r8
  409756:	f8ca 7004 	str.w	r7, [sl, #4]
  40975a:	f7ff fedb 	bl	409514 <__malloc_unlock>
  40975e:	e751      	b.n	409604 <_realloc_r+0xe4>
  409760:	682b      	ldr	r3, [r5, #0]
  409762:	6003      	str	r3, [r0, #0]
  409764:	686b      	ldr	r3, [r5, #4]
  409766:	6043      	str	r3, [r0, #4]
  409768:	2a1b      	cmp	r2, #27
  40976a:	d82d      	bhi.n	4097c8 <_realloc_r+0x2a8>
  40976c:	f100 0308 	add.w	r3, r0, #8
  409770:	f105 0208 	add.w	r2, r5, #8
  409774:	e71b      	b.n	4095ae <_realloc_r+0x8e>
  409776:	4632      	mov	r2, r6
  409778:	6829      	ldr	r1, [r5, #0]
  40977a:	6011      	str	r1, [r2, #0]
  40977c:	6869      	ldr	r1, [r5, #4]
  40977e:	6051      	str	r1, [r2, #4]
  409780:	68a9      	ldr	r1, [r5, #8]
  409782:	6091      	str	r1, [r2, #8]
  409784:	461c      	mov	r4, r3
  409786:	46d1      	mov	r9, sl
  409788:	e72a      	b.n	4095e0 <_realloc_r+0xc0>
  40978a:	eb09 0107 	add.w	r1, r9, r7
  40978e:	ebab 0b07 	sub.w	fp, fp, r7
  409792:	f04b 0201 	orr.w	r2, fp, #1
  409796:	6099      	str	r1, [r3, #8]
  409798:	604a      	str	r2, [r1, #4]
  40979a:	f855 3c04 	ldr.w	r3, [r5, #-4]
  40979e:	f003 0301 	and.w	r3, r3, #1
  4097a2:	431f      	orrs	r7, r3
  4097a4:	4640      	mov	r0, r8
  4097a6:	f845 7c04 	str.w	r7, [r5, #-4]
  4097aa:	f7ff feb3 	bl	409514 <__malloc_unlock>
  4097ae:	462e      	mov	r6, r5
  4097b0:	e728      	b.n	409604 <_realloc_r+0xe4>
  4097b2:	4629      	mov	r1, r5
  4097b4:	f7ff fe44 	bl	409440 <memmove>
  4097b8:	e6ff      	b.n	4095ba <_realloc_r+0x9a>
  4097ba:	4629      	mov	r1, r5
  4097bc:	4630      	mov	r0, r6
  4097be:	461c      	mov	r4, r3
  4097c0:	46d1      	mov	r9, sl
  4097c2:	f7ff fe3d 	bl	409440 <memmove>
  4097c6:	e70b      	b.n	4095e0 <_realloc_r+0xc0>
  4097c8:	68ab      	ldr	r3, [r5, #8]
  4097ca:	6083      	str	r3, [r0, #8]
  4097cc:	68eb      	ldr	r3, [r5, #12]
  4097ce:	60c3      	str	r3, [r0, #12]
  4097d0:	2a24      	cmp	r2, #36	; 0x24
  4097d2:	d017      	beq.n	409804 <_realloc_r+0x2e4>
  4097d4:	f100 0310 	add.w	r3, r0, #16
  4097d8:	f105 0210 	add.w	r2, r5, #16
  4097dc:	e6e7      	b.n	4095ae <_realloc_r+0x8e>
  4097de:	f850 3c04 	ldr.w	r3, [r0, #-4]
  4097e2:	f023 0303 	bic.w	r3, r3, #3
  4097e6:	441c      	add	r4, r3
  4097e8:	462e      	mov	r6, r5
  4097ea:	e6f9      	b.n	4095e0 <_realloc_r+0xc0>
  4097ec:	68a9      	ldr	r1, [r5, #8]
  4097ee:	f8ca 1010 	str.w	r1, [sl, #16]
  4097f2:	68e9      	ldr	r1, [r5, #12]
  4097f4:	f8ca 1014 	str.w	r1, [sl, #20]
  4097f8:	2a24      	cmp	r2, #36	; 0x24
  4097fa:	d00c      	beq.n	409816 <_realloc_r+0x2f6>
  4097fc:	3510      	adds	r5, #16
  4097fe:	f10a 0218 	add.w	r2, sl, #24
  409802:	e7b9      	b.n	409778 <_realloc_r+0x258>
  409804:	692b      	ldr	r3, [r5, #16]
  409806:	6103      	str	r3, [r0, #16]
  409808:	696b      	ldr	r3, [r5, #20]
  40980a:	6143      	str	r3, [r0, #20]
  40980c:	f105 0218 	add.w	r2, r5, #24
  409810:	f100 0318 	add.w	r3, r0, #24
  409814:	e6cb      	b.n	4095ae <_realloc_r+0x8e>
  409816:	692a      	ldr	r2, [r5, #16]
  409818:	f8ca 2018 	str.w	r2, [sl, #24]
  40981c:	696a      	ldr	r2, [r5, #20]
  40981e:	f8ca 201c 	str.w	r2, [sl, #28]
  409822:	3518      	adds	r5, #24
  409824:	f10a 0220 	add.w	r2, sl, #32
  409828:	e7a6      	b.n	409778 <_realloc_r+0x258>
  40982a:	4632      	mov	r2, r6
  40982c:	e77f      	b.n	40972e <_realloc_r+0x20e>
  40982e:	4629      	mov	r1, r5
  409830:	4630      	mov	r0, r6
  409832:	9301      	str	r3, [sp, #4]
  409834:	f7ff fe04 	bl	409440 <memmove>
  409838:	9b01      	ldr	r3, [sp, #4]
  40983a:	e77e      	b.n	40973a <_realloc_r+0x21a>
  40983c:	68a9      	ldr	r1, [r5, #8]
  40983e:	f8ca 1010 	str.w	r1, [sl, #16]
  409842:	68e9      	ldr	r1, [r5, #12]
  409844:	f8ca 1014 	str.w	r1, [sl, #20]
  409848:	2a24      	cmp	r2, #36	; 0x24
  40984a:	d003      	beq.n	409854 <_realloc_r+0x334>
  40984c:	3510      	adds	r5, #16
  40984e:	f10a 0218 	add.w	r2, sl, #24
  409852:	e76c      	b.n	40972e <_realloc_r+0x20e>
  409854:	692a      	ldr	r2, [r5, #16]
  409856:	f8ca 2018 	str.w	r2, [sl, #24]
  40985a:	696a      	ldr	r2, [r5, #20]
  40985c:	f8ca 201c 	str.w	r2, [sl, #28]
  409860:	3518      	adds	r5, #24
  409862:	f10a 0220 	add.w	r2, sl, #32
  409866:	e762      	b.n	40972e <_realloc_r+0x20e>
  409868:	204005c8 	.word	0x204005c8

0040986c <_sbrk_r>:
  40986c:	b538      	push	{r3, r4, r5, lr}
  40986e:	4c07      	ldr	r4, [pc, #28]	; (40988c <_sbrk_r+0x20>)
  409870:	2300      	movs	r3, #0
  409872:	4605      	mov	r5, r0
  409874:	4608      	mov	r0, r1
  409876:	6023      	str	r3, [r4, #0]
  409878:	f7fa f984 	bl	403b84 <_sbrk>
  40987c:	1c43      	adds	r3, r0, #1
  40987e:	d000      	beq.n	409882 <_sbrk_r+0x16>
  409880:	bd38      	pop	{r3, r4, r5, pc}
  409882:	6823      	ldr	r3, [r4, #0]
  409884:	2b00      	cmp	r3, #0
  409886:	d0fb      	beq.n	409880 <_sbrk_r+0x14>
  409888:	602b      	str	r3, [r5, #0]
  40988a:	bd38      	pop	{r3, r4, r5, pc}
  40988c:	2040c66c 	.word	0x2040c66c

00409890 <__sread>:
  409890:	b510      	push	{r4, lr}
  409892:	460c      	mov	r4, r1
  409894:	f9b1 100e 	ldrsh.w	r1, [r1, #14]
  409898:	f000 f9f6 	bl	409c88 <_read_r>
  40989c:	2800      	cmp	r0, #0
  40989e:	db03      	blt.n	4098a8 <__sread+0x18>
  4098a0:	6d23      	ldr	r3, [r4, #80]	; 0x50
  4098a2:	4403      	add	r3, r0
  4098a4:	6523      	str	r3, [r4, #80]	; 0x50
  4098a6:	bd10      	pop	{r4, pc}
  4098a8:	89a3      	ldrh	r3, [r4, #12]
  4098aa:	f423 5380 	bic.w	r3, r3, #4096	; 0x1000
  4098ae:	81a3      	strh	r3, [r4, #12]
  4098b0:	bd10      	pop	{r4, pc}
  4098b2:	bf00      	nop

004098b4 <__swrite>:
  4098b4:	e92d 41f0 	stmdb	sp!, {r4, r5, r6, r7, r8, lr}
  4098b8:	4616      	mov	r6, r2
  4098ba:	f9b1 200c 	ldrsh.w	r2, [r1, #12]
  4098be:	461f      	mov	r7, r3
  4098c0:	05d3      	lsls	r3, r2, #23
  4098c2:	460c      	mov	r4, r1
  4098c4:	4605      	mov	r5, r0
  4098c6:	d507      	bpl.n	4098d8 <__swrite+0x24>
  4098c8:	2200      	movs	r2, #0
  4098ca:	2302      	movs	r3, #2
  4098cc:	f9b1 100e 	ldrsh.w	r1, [r1, #14]
  4098d0:	f000 f9c4 	bl	409c5c <_lseek_r>
  4098d4:	f9b4 200c 	ldrsh.w	r2, [r4, #12]
  4098d8:	f9b4 100e 	ldrsh.w	r1, [r4, #14]
  4098dc:	f422 5280 	bic.w	r2, r2, #4096	; 0x1000
  4098e0:	81a2      	strh	r2, [r4, #12]
  4098e2:	463b      	mov	r3, r7
  4098e4:	4632      	mov	r2, r6
  4098e6:	4628      	mov	r0, r5
  4098e8:	e8bd 41f0 	ldmia.w	sp!, {r4, r5, r6, r7, r8, lr}
  4098ec:	f000 b8a4 	b.w	409a38 <_write_r>

004098f0 <__sseek>:
  4098f0:	b510      	push	{r4, lr}
  4098f2:	460c      	mov	r4, r1
  4098f4:	f9b1 100e 	ldrsh.w	r1, [r1, #14]
  4098f8:	f000 f9b0 	bl	409c5c <_lseek_r>
  4098fc:	89a3      	ldrh	r3, [r4, #12]
  4098fe:	1c42      	adds	r2, r0, #1
  409900:	bf0e      	itee	eq
  409902:	f423 5380 	biceq.w	r3, r3, #4096	; 0x1000
  409906:	f443 5380 	orrne.w	r3, r3, #4096	; 0x1000
  40990a:	6520      	strne	r0, [r4, #80]	; 0x50
  40990c:	81a3      	strh	r3, [r4, #12]
  40990e:	bd10      	pop	{r4, pc}

00409910 <__sclose>:
  409910:	f9b1 100e 	ldrsh.w	r1, [r1, #14]
  409914:	f000 b908 	b.w	409b28 <_close_r>

00409918 <__swbuf_r>:
  409918:	b5f8      	push	{r3, r4, r5, r6, r7, lr}
  40991a:	460d      	mov	r5, r1
  40991c:	4614      	mov	r4, r2
  40991e:	4606      	mov	r6, r0
  409920:	b110      	cbz	r0, 409928 <__swbuf_r+0x10>
  409922:	6b83      	ldr	r3, [r0, #56]	; 0x38
  409924:	2b00      	cmp	r3, #0
  409926:	d04b      	beq.n	4099c0 <__swbuf_r+0xa8>
  409928:	f9b4 200c 	ldrsh.w	r2, [r4, #12]
  40992c:	69a3      	ldr	r3, [r4, #24]
  40992e:	60a3      	str	r3, [r4, #8]
  409930:	b291      	uxth	r1, r2
  409932:	0708      	lsls	r0, r1, #28
  409934:	d539      	bpl.n	4099aa <__swbuf_r+0x92>
  409936:	6923      	ldr	r3, [r4, #16]
  409938:	2b00      	cmp	r3, #0
  40993a:	d036      	beq.n	4099aa <__swbuf_r+0x92>
  40993c:	b2ed      	uxtb	r5, r5
  40993e:	0489      	lsls	r1, r1, #18
  409940:	462f      	mov	r7, r5
  409942:	d515      	bpl.n	409970 <__swbuf_r+0x58>
  409944:	6822      	ldr	r2, [r4, #0]
  409946:	6961      	ldr	r1, [r4, #20]
  409948:	1ad3      	subs	r3, r2, r3
  40994a:	428b      	cmp	r3, r1
  40994c:	da1c      	bge.n	409988 <__swbuf_r+0x70>
  40994e:	3301      	adds	r3, #1
  409950:	68a1      	ldr	r1, [r4, #8]
  409952:	1c50      	adds	r0, r2, #1
  409954:	3901      	subs	r1, #1
  409956:	60a1      	str	r1, [r4, #8]
  409958:	6020      	str	r0, [r4, #0]
  40995a:	7015      	strb	r5, [r2, #0]
  40995c:	6962      	ldr	r2, [r4, #20]
  40995e:	429a      	cmp	r2, r3
  409960:	d01a      	beq.n	409998 <__swbuf_r+0x80>
  409962:	89a3      	ldrh	r3, [r4, #12]
  409964:	07db      	lsls	r3, r3, #31
  409966:	d501      	bpl.n	40996c <__swbuf_r+0x54>
  409968:	2d0a      	cmp	r5, #10
  40996a:	d015      	beq.n	409998 <__swbuf_r+0x80>
  40996c:	4638      	mov	r0, r7
  40996e:	bdf8      	pop	{r3, r4, r5, r6, r7, pc}
  409970:	6e61      	ldr	r1, [r4, #100]	; 0x64
  409972:	f442 5200 	orr.w	r2, r2, #8192	; 0x2000
  409976:	f421 5100 	bic.w	r1, r1, #8192	; 0x2000
  40997a:	81a2      	strh	r2, [r4, #12]
  40997c:	6822      	ldr	r2, [r4, #0]
  40997e:	6661      	str	r1, [r4, #100]	; 0x64
  409980:	6961      	ldr	r1, [r4, #20]
  409982:	1ad3      	subs	r3, r2, r3
  409984:	428b      	cmp	r3, r1
  409986:	dbe2      	blt.n	40994e <__swbuf_r+0x36>
  409988:	4621      	mov	r1, r4
  40998a:	4630      	mov	r0, r6
  40998c:	f7fe fda4 	bl	4084d8 <_fflush_r>
  409990:	b940      	cbnz	r0, 4099a4 <__swbuf_r+0x8c>
  409992:	6822      	ldr	r2, [r4, #0]
  409994:	2301      	movs	r3, #1
  409996:	e7db      	b.n	409950 <__swbuf_r+0x38>
  409998:	4621      	mov	r1, r4
  40999a:	4630      	mov	r0, r6
  40999c:	f7fe fd9c 	bl	4084d8 <_fflush_r>
  4099a0:	2800      	cmp	r0, #0
  4099a2:	d0e3      	beq.n	40996c <__swbuf_r+0x54>
  4099a4:	f04f 37ff 	mov.w	r7, #4294967295
  4099a8:	e7e0      	b.n	40996c <__swbuf_r+0x54>
  4099aa:	4621      	mov	r1, r4
  4099ac:	4630      	mov	r0, r6
  4099ae:	f7fe fc7f 	bl	4082b0 <__swsetup_r>
  4099b2:	2800      	cmp	r0, #0
  4099b4:	d1f6      	bne.n	4099a4 <__swbuf_r+0x8c>
  4099b6:	f9b4 200c 	ldrsh.w	r2, [r4, #12]
  4099ba:	6923      	ldr	r3, [r4, #16]
  4099bc:	b291      	uxth	r1, r2
  4099be:	e7bd      	b.n	40993c <__swbuf_r+0x24>
  4099c0:	f7fe fde2 	bl	408588 <__sinit>
  4099c4:	e7b0      	b.n	409928 <__swbuf_r+0x10>
  4099c6:	bf00      	nop

004099c8 <_wcrtomb_r>:
  4099c8:	b5f0      	push	{r4, r5, r6, r7, lr}
  4099ca:	4606      	mov	r6, r0
  4099cc:	b085      	sub	sp, #20
  4099ce:	461f      	mov	r7, r3
  4099d0:	b189      	cbz	r1, 4099f6 <_wcrtomb_r+0x2e>
  4099d2:	4c10      	ldr	r4, [pc, #64]	; (409a14 <_wcrtomb_r+0x4c>)
  4099d4:	4d10      	ldr	r5, [pc, #64]	; (409a18 <_wcrtomb_r+0x50>)
  4099d6:	6824      	ldr	r4, [r4, #0]
  4099d8:	6b64      	ldr	r4, [r4, #52]	; 0x34
  4099da:	2c00      	cmp	r4, #0
  4099dc:	bf08      	it	eq
  4099de:	462c      	moveq	r4, r5
  4099e0:	f8d4 40e0 	ldr.w	r4, [r4, #224]	; 0xe0
  4099e4:	47a0      	blx	r4
  4099e6:	1c43      	adds	r3, r0, #1
  4099e8:	d103      	bne.n	4099f2 <_wcrtomb_r+0x2a>
  4099ea:	2200      	movs	r2, #0
  4099ec:	238a      	movs	r3, #138	; 0x8a
  4099ee:	603a      	str	r2, [r7, #0]
  4099f0:	6033      	str	r3, [r6, #0]
  4099f2:	b005      	add	sp, #20
  4099f4:	bdf0      	pop	{r4, r5, r6, r7, pc}
  4099f6:	460c      	mov	r4, r1
  4099f8:	4906      	ldr	r1, [pc, #24]	; (409a14 <_wcrtomb_r+0x4c>)
  4099fa:	4a07      	ldr	r2, [pc, #28]	; (409a18 <_wcrtomb_r+0x50>)
  4099fc:	6809      	ldr	r1, [r1, #0]
  4099fe:	6b49      	ldr	r1, [r1, #52]	; 0x34
  409a00:	2900      	cmp	r1, #0
  409a02:	bf08      	it	eq
  409a04:	4611      	moveq	r1, r2
  409a06:	4622      	mov	r2, r4
  409a08:	f8d1 40e0 	ldr.w	r4, [r1, #224]	; 0xe0
  409a0c:	a901      	add	r1, sp, #4
  409a0e:	47a0      	blx	r4
  409a10:	e7e9      	b.n	4099e6 <_wcrtomb_r+0x1e>
  409a12:	bf00      	nop
  409a14:	20400028 	.word	0x20400028
  409a18:	2040045c 	.word	0x2040045c

00409a1c <__ascii_wctomb>:
  409a1c:	b121      	cbz	r1, 409a28 <__ascii_wctomb+0xc>
  409a1e:	2aff      	cmp	r2, #255	; 0xff
  409a20:	d804      	bhi.n	409a2c <__ascii_wctomb+0x10>
  409a22:	700a      	strb	r2, [r1, #0]
  409a24:	2001      	movs	r0, #1
  409a26:	4770      	bx	lr
  409a28:	4608      	mov	r0, r1
  409a2a:	4770      	bx	lr
  409a2c:	238a      	movs	r3, #138	; 0x8a
  409a2e:	6003      	str	r3, [r0, #0]
  409a30:	f04f 30ff 	mov.w	r0, #4294967295
  409a34:	4770      	bx	lr
  409a36:	bf00      	nop

00409a38 <_write_r>:
  409a38:	b570      	push	{r4, r5, r6, lr}
  409a3a:	460d      	mov	r5, r1
  409a3c:	4c08      	ldr	r4, [pc, #32]	; (409a60 <_write_r+0x28>)
  409a3e:	4611      	mov	r1, r2
  409a40:	4606      	mov	r6, r0
  409a42:	461a      	mov	r2, r3
  409a44:	4628      	mov	r0, r5
  409a46:	2300      	movs	r3, #0
  409a48:	6023      	str	r3, [r4, #0]
  409a4a:	f7f9 fbff 	bl	40324c <_write>
  409a4e:	1c43      	adds	r3, r0, #1
  409a50:	d000      	beq.n	409a54 <_write_r+0x1c>
  409a52:	bd70      	pop	{r4, r5, r6, pc}
  409a54:	6823      	ldr	r3, [r4, #0]
  409a56:	2b00      	cmp	r3, #0
  409a58:	d0fb      	beq.n	409a52 <_write_r+0x1a>
  409a5a:	6033      	str	r3, [r6, #0]
  409a5c:	bd70      	pop	{r4, r5, r6, pc}
  409a5e:	bf00      	nop
  409a60:	2040c66c 	.word	0x2040c66c

00409a64 <__register_exitproc>:
  409a64:	e92d 43f8 	stmdb	sp!, {r3, r4, r5, r6, r7, r8, r9, lr}
  409a68:	4d2c      	ldr	r5, [pc, #176]	; (409b1c <__register_exitproc+0xb8>)
  409a6a:	4606      	mov	r6, r0
  409a6c:	6828      	ldr	r0, [r5, #0]
  409a6e:	4698      	mov	r8, r3
  409a70:	460f      	mov	r7, r1
  409a72:	4691      	mov	r9, r2
  409a74:	f7ff f948 	bl	408d08 <__retarget_lock_acquire_recursive>
  409a78:	4b29      	ldr	r3, [pc, #164]	; (409b20 <__register_exitproc+0xbc>)
  409a7a:	681c      	ldr	r4, [r3, #0]
  409a7c:	f8d4 3148 	ldr.w	r3, [r4, #328]	; 0x148
  409a80:	2b00      	cmp	r3, #0
  409a82:	d03e      	beq.n	409b02 <__register_exitproc+0x9e>
  409a84:	685a      	ldr	r2, [r3, #4]
  409a86:	2a1f      	cmp	r2, #31
  409a88:	dc1c      	bgt.n	409ac4 <__register_exitproc+0x60>
  409a8a:	f102 0e01 	add.w	lr, r2, #1
  409a8e:	b176      	cbz	r6, 409aae <__register_exitproc+0x4a>
  409a90:	eb03 0182 	add.w	r1, r3, r2, lsl #2
  409a94:	2401      	movs	r4, #1
  409a96:	f8c1 9088 	str.w	r9, [r1, #136]	; 0x88
  409a9a:	f8d3 0188 	ldr.w	r0, [r3, #392]	; 0x188
  409a9e:	4094      	lsls	r4, r2
  409aa0:	4320      	orrs	r0, r4
  409aa2:	2e02      	cmp	r6, #2
  409aa4:	f8c3 0188 	str.w	r0, [r3, #392]	; 0x188
  409aa8:	f8c1 8108 	str.w	r8, [r1, #264]	; 0x108
  409aac:	d023      	beq.n	409af6 <__register_exitproc+0x92>
  409aae:	3202      	adds	r2, #2
  409ab0:	f8c3 e004 	str.w	lr, [r3, #4]
  409ab4:	6828      	ldr	r0, [r5, #0]
  409ab6:	f843 7022 	str.w	r7, [r3, r2, lsl #2]
  409aba:	f7ff f927 	bl	408d0c <__retarget_lock_release_recursive>
  409abe:	2000      	movs	r0, #0
  409ac0:	e8bd 83f8 	ldmia.w	sp!, {r3, r4, r5, r6, r7, r8, r9, pc}
  409ac4:	4b17      	ldr	r3, [pc, #92]	; (409b24 <__register_exitproc+0xc0>)
  409ac6:	b30b      	cbz	r3, 409b0c <__register_exitproc+0xa8>
  409ac8:	f44f 70c8 	mov.w	r0, #400	; 0x190
  409acc:	f7ff f998 	bl	408e00 <malloc>
  409ad0:	4603      	mov	r3, r0
  409ad2:	b1d8      	cbz	r0, 409b0c <__register_exitproc+0xa8>
  409ad4:	f8d4 2148 	ldr.w	r2, [r4, #328]	; 0x148
  409ad8:	6002      	str	r2, [r0, #0]
  409ada:	2100      	movs	r1, #0
  409adc:	6041      	str	r1, [r0, #4]
  409ade:	460a      	mov	r2, r1
  409ae0:	f8c4 0148 	str.w	r0, [r4, #328]	; 0x148
  409ae4:	f04f 0e01 	mov.w	lr, #1
  409ae8:	f8c0 1188 	str.w	r1, [r0, #392]	; 0x188
  409aec:	f8c0 118c 	str.w	r1, [r0, #396]	; 0x18c
  409af0:	2e00      	cmp	r6, #0
  409af2:	d0dc      	beq.n	409aae <__register_exitproc+0x4a>
  409af4:	e7cc      	b.n	409a90 <__register_exitproc+0x2c>
  409af6:	f8d3 118c 	ldr.w	r1, [r3, #396]	; 0x18c
  409afa:	430c      	orrs	r4, r1
  409afc:	f8c3 418c 	str.w	r4, [r3, #396]	; 0x18c
  409b00:	e7d5      	b.n	409aae <__register_exitproc+0x4a>
  409b02:	f504 73a6 	add.w	r3, r4, #332	; 0x14c
  409b06:	f8c4 3148 	str.w	r3, [r4, #328]	; 0x148
  409b0a:	e7bb      	b.n	409a84 <__register_exitproc+0x20>
  409b0c:	6828      	ldr	r0, [r5, #0]
  409b0e:	f7ff f8fd 	bl	408d0c <__retarget_lock_release_recursive>
  409b12:	f04f 30ff 	mov.w	r0, #4294967295
  409b16:	e8bd 83f8 	ldmia.w	sp!, {r3, r4, r5, r6, r7, r8, r9, pc}
  409b1a:	bf00      	nop
  409b1c:	20400458 	.word	0x20400458
  409b20:	0040a860 	.word	0x0040a860
  409b24:	00408e01 	.word	0x00408e01

00409b28 <_close_r>:
  409b28:	b538      	push	{r3, r4, r5, lr}
  409b2a:	4c07      	ldr	r4, [pc, #28]	; (409b48 <_close_r+0x20>)
  409b2c:	2300      	movs	r3, #0
  409b2e:	4605      	mov	r5, r0
  409b30:	4608      	mov	r0, r1
  409b32:	6023      	str	r3, [r4, #0]
  409b34:	f7fa f842 	bl	403bbc <_close>
  409b38:	1c43      	adds	r3, r0, #1
  409b3a:	d000      	beq.n	409b3e <_close_r+0x16>
  409b3c:	bd38      	pop	{r3, r4, r5, pc}
  409b3e:	6823      	ldr	r3, [r4, #0]
  409b40:	2b00      	cmp	r3, #0
  409b42:	d0fb      	beq.n	409b3c <_close_r+0x14>
  409b44:	602b      	str	r3, [r5, #0]
  409b46:	bd38      	pop	{r3, r4, r5, pc}
  409b48:	2040c66c 	.word	0x2040c66c

00409b4c <_fclose_r>:
  409b4c:	b570      	push	{r4, r5, r6, lr}
  409b4e:	b159      	cbz	r1, 409b68 <_fclose_r+0x1c>
  409b50:	4605      	mov	r5, r0
  409b52:	460c      	mov	r4, r1
  409b54:	b110      	cbz	r0, 409b5c <_fclose_r+0x10>
  409b56:	6b83      	ldr	r3, [r0, #56]	; 0x38
  409b58:	2b00      	cmp	r3, #0
  409b5a:	d03c      	beq.n	409bd6 <_fclose_r+0x8a>
  409b5c:	6e63      	ldr	r3, [r4, #100]	; 0x64
  409b5e:	07d8      	lsls	r0, r3, #31
  409b60:	d505      	bpl.n	409b6e <_fclose_r+0x22>
  409b62:	f9b4 300c 	ldrsh.w	r3, [r4, #12]
  409b66:	b92b      	cbnz	r3, 409b74 <_fclose_r+0x28>
  409b68:	2600      	movs	r6, #0
  409b6a:	4630      	mov	r0, r6
  409b6c:	bd70      	pop	{r4, r5, r6, pc}
  409b6e:	89a3      	ldrh	r3, [r4, #12]
  409b70:	0599      	lsls	r1, r3, #22
  409b72:	d53c      	bpl.n	409bee <_fclose_r+0xa2>
  409b74:	4621      	mov	r1, r4
  409b76:	4628      	mov	r0, r5
  409b78:	f7fe fc0e 	bl	408398 <__sflush_r>
  409b7c:	6ae3      	ldr	r3, [r4, #44]	; 0x2c
  409b7e:	4606      	mov	r6, r0
  409b80:	b133      	cbz	r3, 409b90 <_fclose_r+0x44>
  409b82:	69e1      	ldr	r1, [r4, #28]
  409b84:	4628      	mov	r0, r5
  409b86:	4798      	blx	r3
  409b88:	2800      	cmp	r0, #0
  409b8a:	bfb8      	it	lt
  409b8c:	f04f 36ff 	movlt.w	r6, #4294967295
  409b90:	89a3      	ldrh	r3, [r4, #12]
  409b92:	061a      	lsls	r2, r3, #24
  409b94:	d422      	bmi.n	409bdc <_fclose_r+0x90>
  409b96:	6b21      	ldr	r1, [r4, #48]	; 0x30
  409b98:	b141      	cbz	r1, 409bac <_fclose_r+0x60>
  409b9a:	f104 0340 	add.w	r3, r4, #64	; 0x40
  409b9e:	4299      	cmp	r1, r3
  409ba0:	d002      	beq.n	409ba8 <_fclose_r+0x5c>
  409ba2:	4628      	mov	r0, r5
  409ba4:	f7fe fe16 	bl	4087d4 <_free_r>
  409ba8:	2300      	movs	r3, #0
  409baa:	6323      	str	r3, [r4, #48]	; 0x30
  409bac:	6c61      	ldr	r1, [r4, #68]	; 0x44
  409bae:	b121      	cbz	r1, 409bba <_fclose_r+0x6e>
  409bb0:	4628      	mov	r0, r5
  409bb2:	f7fe fe0f 	bl	4087d4 <_free_r>
  409bb6:	2300      	movs	r3, #0
  409bb8:	6463      	str	r3, [r4, #68]	; 0x44
  409bba:	f7fe fd11 	bl	4085e0 <__sfp_lock_acquire>
  409bbe:	6e63      	ldr	r3, [r4, #100]	; 0x64
  409bc0:	2200      	movs	r2, #0
  409bc2:	07db      	lsls	r3, r3, #31
  409bc4:	81a2      	strh	r2, [r4, #12]
  409bc6:	d50e      	bpl.n	409be6 <_fclose_r+0x9a>
  409bc8:	6da0      	ldr	r0, [r4, #88]	; 0x58
  409bca:	f7ff f89b 	bl	408d04 <__retarget_lock_close_recursive>
  409bce:	f7fe fd0d 	bl	4085ec <__sfp_lock_release>
  409bd2:	4630      	mov	r0, r6
  409bd4:	bd70      	pop	{r4, r5, r6, pc}
  409bd6:	f7fe fcd7 	bl	408588 <__sinit>
  409bda:	e7bf      	b.n	409b5c <_fclose_r+0x10>
  409bdc:	6921      	ldr	r1, [r4, #16]
  409bde:	4628      	mov	r0, r5
  409be0:	f7fe fdf8 	bl	4087d4 <_free_r>
  409be4:	e7d7      	b.n	409b96 <_fclose_r+0x4a>
  409be6:	6da0      	ldr	r0, [r4, #88]	; 0x58
  409be8:	f7ff f890 	bl	408d0c <__retarget_lock_release_recursive>
  409bec:	e7ec      	b.n	409bc8 <_fclose_r+0x7c>
  409bee:	6da0      	ldr	r0, [r4, #88]	; 0x58
  409bf0:	f7ff f88a 	bl	408d08 <__retarget_lock_acquire_recursive>
  409bf4:	f9b4 300c 	ldrsh.w	r3, [r4, #12]
  409bf8:	2b00      	cmp	r3, #0
  409bfa:	d1bb      	bne.n	409b74 <_fclose_r+0x28>
  409bfc:	6e66      	ldr	r6, [r4, #100]	; 0x64
  409bfe:	f016 0601 	ands.w	r6, r6, #1
  409c02:	d1b1      	bne.n	409b68 <_fclose_r+0x1c>
  409c04:	6da0      	ldr	r0, [r4, #88]	; 0x58
  409c06:	f7ff f881 	bl	408d0c <__retarget_lock_release_recursive>
  409c0a:	4630      	mov	r0, r6
  409c0c:	bd70      	pop	{r4, r5, r6, pc}
  409c0e:	bf00      	nop

00409c10 <_fstat_r>:
  409c10:	b538      	push	{r3, r4, r5, lr}
  409c12:	460b      	mov	r3, r1
  409c14:	4c07      	ldr	r4, [pc, #28]	; (409c34 <_fstat_r+0x24>)
  409c16:	4605      	mov	r5, r0
  409c18:	4611      	mov	r1, r2
  409c1a:	4618      	mov	r0, r3
  409c1c:	2300      	movs	r3, #0
  409c1e:	6023      	str	r3, [r4, #0]
  409c20:	f7f9 ffcf 	bl	403bc2 <_fstat>
  409c24:	1c43      	adds	r3, r0, #1
  409c26:	d000      	beq.n	409c2a <_fstat_r+0x1a>
  409c28:	bd38      	pop	{r3, r4, r5, pc}
  409c2a:	6823      	ldr	r3, [r4, #0]
  409c2c:	2b00      	cmp	r3, #0
  409c2e:	d0fb      	beq.n	409c28 <_fstat_r+0x18>
  409c30:	602b      	str	r3, [r5, #0]
  409c32:	bd38      	pop	{r3, r4, r5, pc}
  409c34:	2040c66c 	.word	0x2040c66c

00409c38 <_isatty_r>:
  409c38:	b538      	push	{r3, r4, r5, lr}
  409c3a:	4c07      	ldr	r4, [pc, #28]	; (409c58 <_isatty_r+0x20>)
  409c3c:	2300      	movs	r3, #0
  409c3e:	4605      	mov	r5, r0
  409c40:	4608      	mov	r0, r1
  409c42:	6023      	str	r3, [r4, #0]
  409c44:	f7f9 ffc2 	bl	403bcc <_isatty>
  409c48:	1c43      	adds	r3, r0, #1
  409c4a:	d000      	beq.n	409c4e <_isatty_r+0x16>
  409c4c:	bd38      	pop	{r3, r4, r5, pc}
  409c4e:	6823      	ldr	r3, [r4, #0]
  409c50:	2b00      	cmp	r3, #0
  409c52:	d0fb      	beq.n	409c4c <_isatty_r+0x14>
  409c54:	602b      	str	r3, [r5, #0]
  409c56:	bd38      	pop	{r3, r4, r5, pc}
  409c58:	2040c66c 	.word	0x2040c66c

00409c5c <_lseek_r>:
  409c5c:	b570      	push	{r4, r5, r6, lr}
  409c5e:	460d      	mov	r5, r1
  409c60:	4c08      	ldr	r4, [pc, #32]	; (409c84 <_lseek_r+0x28>)
  409c62:	4611      	mov	r1, r2
  409c64:	4606      	mov	r6, r0
  409c66:	461a      	mov	r2, r3
  409c68:	4628      	mov	r0, r5
  409c6a:	2300      	movs	r3, #0
  409c6c:	6023      	str	r3, [r4, #0]
  409c6e:	f7f9 ffaf 	bl	403bd0 <_lseek>
  409c72:	1c43      	adds	r3, r0, #1
  409c74:	d000      	beq.n	409c78 <_lseek_r+0x1c>
  409c76:	bd70      	pop	{r4, r5, r6, pc}
  409c78:	6823      	ldr	r3, [r4, #0]
  409c7a:	2b00      	cmp	r3, #0
  409c7c:	d0fb      	beq.n	409c76 <_lseek_r+0x1a>
  409c7e:	6033      	str	r3, [r6, #0]
  409c80:	bd70      	pop	{r4, r5, r6, pc}
  409c82:	bf00      	nop
  409c84:	2040c66c 	.word	0x2040c66c

00409c88 <_read_r>:
  409c88:	b570      	push	{r4, r5, r6, lr}
  409c8a:	460d      	mov	r5, r1
  409c8c:	4c08      	ldr	r4, [pc, #32]	; (409cb0 <_read_r+0x28>)
  409c8e:	4611      	mov	r1, r2
  409c90:	4606      	mov	r6, r0
  409c92:	461a      	mov	r2, r3
  409c94:	4628      	mov	r0, r5
  409c96:	2300      	movs	r3, #0
  409c98:	6023      	str	r3, [r4, #0]
  409c9a:	f7f9 fab9 	bl	403210 <_read>
  409c9e:	1c43      	adds	r3, r0, #1
  409ca0:	d000      	beq.n	409ca4 <_read_r+0x1c>
  409ca2:	bd70      	pop	{r4, r5, r6, pc}
  409ca4:	6823      	ldr	r3, [r4, #0]
  409ca6:	2b00      	cmp	r3, #0
  409ca8:	d0fb      	beq.n	409ca2 <_read_r+0x1a>
  409caa:	6033      	str	r3, [r6, #0]
  409cac:	bd70      	pop	{r4, r5, r6, pc}
  409cae:	bf00      	nop
  409cb0:	2040c66c 	.word	0x2040c66c

00409cb4 <__aeabi_uldivmod>:
  409cb4:	b953      	cbnz	r3, 409ccc <__aeabi_uldivmod+0x18>
  409cb6:	b94a      	cbnz	r2, 409ccc <__aeabi_uldivmod+0x18>
  409cb8:	2900      	cmp	r1, #0
  409cba:	bf08      	it	eq
  409cbc:	2800      	cmpeq	r0, #0
  409cbe:	bf1c      	itt	ne
  409cc0:	f04f 31ff 	movne.w	r1, #4294967295
  409cc4:	f04f 30ff 	movne.w	r0, #4294967295
  409cc8:	f000 b97a 	b.w	409fc0 <__aeabi_idiv0>
  409ccc:	f1ad 0c08 	sub.w	ip, sp, #8
  409cd0:	e96d ce04 	strd	ip, lr, [sp, #-16]!
  409cd4:	f000 f806 	bl	409ce4 <__udivmoddi4>
  409cd8:	f8dd e004 	ldr.w	lr, [sp, #4]
  409cdc:	e9dd 2302 	ldrd	r2, r3, [sp, #8]
  409ce0:	b004      	add	sp, #16
  409ce2:	4770      	bx	lr

00409ce4 <__udivmoddi4>:
  409ce4:	e92d 47f0 	stmdb	sp!, {r4, r5, r6, r7, r8, r9, sl, lr}
  409ce8:	468c      	mov	ip, r1
  409cea:	460d      	mov	r5, r1
  409cec:	4604      	mov	r4, r0
  409cee:	9e08      	ldr	r6, [sp, #32]
  409cf0:	2b00      	cmp	r3, #0
  409cf2:	d151      	bne.n	409d98 <__udivmoddi4+0xb4>
  409cf4:	428a      	cmp	r2, r1
  409cf6:	4617      	mov	r7, r2
  409cf8:	d96d      	bls.n	409dd6 <__udivmoddi4+0xf2>
  409cfa:	fab2 fe82 	clz	lr, r2
  409cfe:	f1be 0f00 	cmp.w	lr, #0
  409d02:	d00b      	beq.n	409d1c <__udivmoddi4+0x38>
  409d04:	f1ce 0c20 	rsb	ip, lr, #32
  409d08:	fa01 f50e 	lsl.w	r5, r1, lr
  409d0c:	fa20 fc0c 	lsr.w	ip, r0, ip
  409d10:	fa02 f70e 	lsl.w	r7, r2, lr
  409d14:	ea4c 0c05 	orr.w	ip, ip, r5
  409d18:	fa00 f40e 	lsl.w	r4, r0, lr
  409d1c:	ea4f 4a17 	mov.w	sl, r7, lsr #16
  409d20:	0c25      	lsrs	r5, r4, #16
  409d22:	fbbc f8fa 	udiv	r8, ip, sl
  409d26:	fa1f f987 	uxth.w	r9, r7
  409d2a:	fb0a cc18 	mls	ip, sl, r8, ip
  409d2e:	ea45 450c 	orr.w	r5, r5, ip, lsl #16
  409d32:	fb08 f309 	mul.w	r3, r8, r9
  409d36:	42ab      	cmp	r3, r5
  409d38:	d90a      	bls.n	409d50 <__udivmoddi4+0x6c>
  409d3a:	19ed      	adds	r5, r5, r7
  409d3c:	f108 32ff 	add.w	r2, r8, #4294967295
  409d40:	f080 8123 	bcs.w	409f8a <__udivmoddi4+0x2a6>
  409d44:	42ab      	cmp	r3, r5
  409d46:	f240 8120 	bls.w	409f8a <__udivmoddi4+0x2a6>
  409d4a:	f1a8 0802 	sub.w	r8, r8, #2
  409d4e:	443d      	add	r5, r7
  409d50:	1aed      	subs	r5, r5, r3
  409d52:	b2a4      	uxth	r4, r4
  409d54:	fbb5 f0fa 	udiv	r0, r5, sl
  409d58:	fb0a 5510 	mls	r5, sl, r0, r5
  409d5c:	ea44 4405 	orr.w	r4, r4, r5, lsl #16
  409d60:	fb00 f909 	mul.w	r9, r0, r9
  409d64:	45a1      	cmp	r9, r4
  409d66:	d909      	bls.n	409d7c <__udivmoddi4+0x98>
  409d68:	19e4      	adds	r4, r4, r7
  409d6a:	f100 33ff 	add.w	r3, r0, #4294967295
  409d6e:	f080 810a 	bcs.w	409f86 <__udivmoddi4+0x2a2>
  409d72:	45a1      	cmp	r9, r4
  409d74:	f240 8107 	bls.w	409f86 <__udivmoddi4+0x2a2>
  409d78:	3802      	subs	r0, #2
  409d7a:	443c      	add	r4, r7
  409d7c:	eba4 0409 	sub.w	r4, r4, r9
  409d80:	ea40 4008 	orr.w	r0, r0, r8, lsl #16
  409d84:	2100      	movs	r1, #0
  409d86:	2e00      	cmp	r6, #0
  409d88:	d061      	beq.n	409e4e <__udivmoddi4+0x16a>
  409d8a:	fa24 f40e 	lsr.w	r4, r4, lr
  409d8e:	2300      	movs	r3, #0
  409d90:	6034      	str	r4, [r6, #0]
  409d92:	6073      	str	r3, [r6, #4]
  409d94:	e8bd 87f0 	ldmia.w	sp!, {r4, r5, r6, r7, r8, r9, sl, pc}
  409d98:	428b      	cmp	r3, r1
  409d9a:	d907      	bls.n	409dac <__udivmoddi4+0xc8>
  409d9c:	2e00      	cmp	r6, #0
  409d9e:	d054      	beq.n	409e4a <__udivmoddi4+0x166>
  409da0:	2100      	movs	r1, #0
  409da2:	e886 0021 	stmia.w	r6, {r0, r5}
  409da6:	4608      	mov	r0, r1
  409da8:	e8bd 87f0 	ldmia.w	sp!, {r4, r5, r6, r7, r8, r9, sl, pc}
  409dac:	fab3 f183 	clz	r1, r3
  409db0:	2900      	cmp	r1, #0
  409db2:	f040 808e 	bne.w	409ed2 <__udivmoddi4+0x1ee>
  409db6:	42ab      	cmp	r3, r5
  409db8:	d302      	bcc.n	409dc0 <__udivmoddi4+0xdc>
  409dba:	4282      	cmp	r2, r0
  409dbc:	f200 80fa 	bhi.w	409fb4 <__udivmoddi4+0x2d0>
  409dc0:	1a84      	subs	r4, r0, r2
  409dc2:	eb65 0503 	sbc.w	r5, r5, r3
  409dc6:	2001      	movs	r0, #1
  409dc8:	46ac      	mov	ip, r5
  409dca:	2e00      	cmp	r6, #0
  409dcc:	d03f      	beq.n	409e4e <__udivmoddi4+0x16a>
  409dce:	e886 1010 	stmia.w	r6, {r4, ip}
  409dd2:	e8bd 87f0 	ldmia.w	sp!, {r4, r5, r6, r7, r8, r9, sl, pc}
  409dd6:	b912      	cbnz	r2, 409dde <__udivmoddi4+0xfa>
  409dd8:	2701      	movs	r7, #1
  409dda:	fbb7 f7f2 	udiv	r7, r7, r2
  409dde:	fab7 fe87 	clz	lr, r7
  409de2:	f1be 0f00 	cmp.w	lr, #0
  409de6:	d134      	bne.n	409e52 <__udivmoddi4+0x16e>
  409de8:	1beb      	subs	r3, r5, r7
  409dea:	0c3a      	lsrs	r2, r7, #16
  409dec:	fa1f fc87 	uxth.w	ip, r7
  409df0:	2101      	movs	r1, #1
  409df2:	fbb3 f8f2 	udiv	r8, r3, r2
  409df6:	0c25      	lsrs	r5, r4, #16
  409df8:	fb02 3318 	mls	r3, r2, r8, r3
  409dfc:	ea45 4503 	orr.w	r5, r5, r3, lsl #16
  409e00:	fb0c f308 	mul.w	r3, ip, r8
  409e04:	42ab      	cmp	r3, r5
  409e06:	d907      	bls.n	409e18 <__udivmoddi4+0x134>
  409e08:	19ed      	adds	r5, r5, r7
  409e0a:	f108 30ff 	add.w	r0, r8, #4294967295
  409e0e:	d202      	bcs.n	409e16 <__udivmoddi4+0x132>
  409e10:	42ab      	cmp	r3, r5
  409e12:	f200 80d1 	bhi.w	409fb8 <__udivmoddi4+0x2d4>
  409e16:	4680      	mov	r8, r0
  409e18:	1aed      	subs	r5, r5, r3
  409e1a:	b2a3      	uxth	r3, r4
  409e1c:	fbb5 f0f2 	udiv	r0, r5, r2
  409e20:	fb02 5510 	mls	r5, r2, r0, r5
  409e24:	ea43 4405 	orr.w	r4, r3, r5, lsl #16
  409e28:	fb0c fc00 	mul.w	ip, ip, r0
  409e2c:	45a4      	cmp	ip, r4
  409e2e:	d907      	bls.n	409e40 <__udivmoddi4+0x15c>
  409e30:	19e4      	adds	r4, r4, r7
  409e32:	f100 33ff 	add.w	r3, r0, #4294967295
  409e36:	d202      	bcs.n	409e3e <__udivmoddi4+0x15a>
  409e38:	45a4      	cmp	ip, r4
  409e3a:	f200 80b8 	bhi.w	409fae <__udivmoddi4+0x2ca>
  409e3e:	4618      	mov	r0, r3
  409e40:	eba4 040c 	sub.w	r4, r4, ip
  409e44:	ea40 4008 	orr.w	r0, r0, r8, lsl #16
  409e48:	e79d      	b.n	409d86 <__udivmoddi4+0xa2>
  409e4a:	4631      	mov	r1, r6
  409e4c:	4630      	mov	r0, r6
  409e4e:	e8bd 87f0 	ldmia.w	sp!, {r4, r5, r6, r7, r8, r9, sl, pc}
  409e52:	f1ce 0420 	rsb	r4, lr, #32
  409e56:	fa05 f30e 	lsl.w	r3, r5, lr
  409e5a:	fa07 f70e 	lsl.w	r7, r7, lr
  409e5e:	fa20 f804 	lsr.w	r8, r0, r4
  409e62:	0c3a      	lsrs	r2, r7, #16
  409e64:	fa25 f404 	lsr.w	r4, r5, r4
  409e68:	ea48 0803 	orr.w	r8, r8, r3
  409e6c:	fbb4 f1f2 	udiv	r1, r4, r2
  409e70:	ea4f 4518 	mov.w	r5, r8, lsr #16
  409e74:	fb02 4411 	mls	r4, r2, r1, r4
  409e78:	fa1f fc87 	uxth.w	ip, r7
  409e7c:	ea45 4504 	orr.w	r5, r5, r4, lsl #16
  409e80:	fb01 f30c 	mul.w	r3, r1, ip
  409e84:	42ab      	cmp	r3, r5
  409e86:	fa00 f40e 	lsl.w	r4, r0, lr
  409e8a:	d909      	bls.n	409ea0 <__udivmoddi4+0x1bc>
  409e8c:	19ed      	adds	r5, r5, r7
  409e8e:	f101 30ff 	add.w	r0, r1, #4294967295
  409e92:	f080 808a 	bcs.w	409faa <__udivmoddi4+0x2c6>
  409e96:	42ab      	cmp	r3, r5
  409e98:	f240 8087 	bls.w	409faa <__udivmoddi4+0x2c6>
  409e9c:	3902      	subs	r1, #2
  409e9e:	443d      	add	r5, r7
  409ea0:	1aeb      	subs	r3, r5, r3
  409ea2:	fa1f f588 	uxth.w	r5, r8
  409ea6:	fbb3 f0f2 	udiv	r0, r3, r2
  409eaa:	fb02 3310 	mls	r3, r2, r0, r3
  409eae:	ea45 4503 	orr.w	r5, r5, r3, lsl #16
  409eb2:	fb00 f30c 	mul.w	r3, r0, ip
  409eb6:	42ab      	cmp	r3, r5
  409eb8:	d907      	bls.n	409eca <__udivmoddi4+0x1e6>
  409eba:	19ed      	adds	r5, r5, r7
  409ebc:	f100 38ff 	add.w	r8, r0, #4294967295
  409ec0:	d26f      	bcs.n	409fa2 <__udivmoddi4+0x2be>
  409ec2:	42ab      	cmp	r3, r5
  409ec4:	d96d      	bls.n	409fa2 <__udivmoddi4+0x2be>
  409ec6:	3802      	subs	r0, #2
  409ec8:	443d      	add	r5, r7
  409eca:	1aeb      	subs	r3, r5, r3
  409ecc:	ea40 4101 	orr.w	r1, r0, r1, lsl #16
  409ed0:	e78f      	b.n	409df2 <__udivmoddi4+0x10e>
  409ed2:	f1c1 0720 	rsb	r7, r1, #32
  409ed6:	fa22 f807 	lsr.w	r8, r2, r7
  409eda:	408b      	lsls	r3, r1
  409edc:	fa05 f401 	lsl.w	r4, r5, r1
  409ee0:	ea48 0303 	orr.w	r3, r8, r3
  409ee4:	fa20 fe07 	lsr.w	lr, r0, r7
  409ee8:	ea4f 4c13 	mov.w	ip, r3, lsr #16
  409eec:	40fd      	lsrs	r5, r7
  409eee:	ea4e 0e04 	orr.w	lr, lr, r4
  409ef2:	fbb5 f9fc 	udiv	r9, r5, ip
  409ef6:	ea4f 441e 	mov.w	r4, lr, lsr #16
  409efa:	fb0c 5519 	mls	r5, ip, r9, r5
  409efe:	fa1f f883 	uxth.w	r8, r3
  409f02:	ea44 4505 	orr.w	r5, r4, r5, lsl #16
  409f06:	fb09 f408 	mul.w	r4, r9, r8
  409f0a:	42ac      	cmp	r4, r5
  409f0c:	fa02 f201 	lsl.w	r2, r2, r1
  409f10:	fa00 fa01 	lsl.w	sl, r0, r1
  409f14:	d908      	bls.n	409f28 <__udivmoddi4+0x244>
  409f16:	18ed      	adds	r5, r5, r3
  409f18:	f109 30ff 	add.w	r0, r9, #4294967295
  409f1c:	d243      	bcs.n	409fa6 <__udivmoddi4+0x2c2>
  409f1e:	42ac      	cmp	r4, r5
  409f20:	d941      	bls.n	409fa6 <__udivmoddi4+0x2c2>
  409f22:	f1a9 0902 	sub.w	r9, r9, #2
  409f26:	441d      	add	r5, r3
  409f28:	1b2d      	subs	r5, r5, r4
  409f2a:	fa1f fe8e 	uxth.w	lr, lr
  409f2e:	fbb5 f0fc 	udiv	r0, r5, ip
  409f32:	fb0c 5510 	mls	r5, ip, r0, r5
  409f36:	ea4e 4405 	orr.w	r4, lr, r5, lsl #16
  409f3a:	fb00 f808 	mul.w	r8, r0, r8
  409f3e:	45a0      	cmp	r8, r4
  409f40:	d907      	bls.n	409f52 <__udivmoddi4+0x26e>
  409f42:	18e4      	adds	r4, r4, r3
  409f44:	f100 35ff 	add.w	r5, r0, #4294967295
  409f48:	d229      	bcs.n	409f9e <__udivmoddi4+0x2ba>
  409f4a:	45a0      	cmp	r8, r4
  409f4c:	d927      	bls.n	409f9e <__udivmoddi4+0x2ba>
  409f4e:	3802      	subs	r0, #2
  409f50:	441c      	add	r4, r3
  409f52:	ea40 4009 	orr.w	r0, r0, r9, lsl #16
  409f56:	eba4 0408 	sub.w	r4, r4, r8
  409f5a:	fba0 8902 	umull	r8, r9, r0, r2
  409f5e:	454c      	cmp	r4, r9
  409f60:	46c6      	mov	lr, r8
  409f62:	464d      	mov	r5, r9
  409f64:	d315      	bcc.n	409f92 <__udivmoddi4+0x2ae>
  409f66:	d012      	beq.n	409f8e <__udivmoddi4+0x2aa>
  409f68:	b156      	cbz	r6, 409f80 <__udivmoddi4+0x29c>
  409f6a:	ebba 030e 	subs.w	r3, sl, lr
  409f6e:	eb64 0405 	sbc.w	r4, r4, r5
  409f72:	fa04 f707 	lsl.w	r7, r4, r7
  409f76:	40cb      	lsrs	r3, r1
  409f78:	431f      	orrs	r7, r3
  409f7a:	40cc      	lsrs	r4, r1
  409f7c:	6037      	str	r7, [r6, #0]
  409f7e:	6074      	str	r4, [r6, #4]
  409f80:	2100      	movs	r1, #0
  409f82:	e8bd 87f0 	ldmia.w	sp!, {r4, r5, r6, r7, r8, r9, sl, pc}
  409f86:	4618      	mov	r0, r3
  409f88:	e6f8      	b.n	409d7c <__udivmoddi4+0x98>
  409f8a:	4690      	mov	r8, r2
  409f8c:	e6e0      	b.n	409d50 <__udivmoddi4+0x6c>
  409f8e:	45c2      	cmp	sl, r8
  409f90:	d2ea      	bcs.n	409f68 <__udivmoddi4+0x284>
  409f92:	ebb8 0e02 	subs.w	lr, r8, r2
  409f96:	eb69 0503 	sbc.w	r5, r9, r3
  409f9a:	3801      	subs	r0, #1
  409f9c:	e7e4      	b.n	409f68 <__udivmoddi4+0x284>
  409f9e:	4628      	mov	r0, r5
  409fa0:	e7d7      	b.n	409f52 <__udivmoddi4+0x26e>
  409fa2:	4640      	mov	r0, r8
  409fa4:	e791      	b.n	409eca <__udivmoddi4+0x1e6>
  409fa6:	4681      	mov	r9, r0
  409fa8:	e7be      	b.n	409f28 <__udivmoddi4+0x244>
  409faa:	4601      	mov	r1, r0
  409fac:	e778      	b.n	409ea0 <__udivmoddi4+0x1bc>
  409fae:	3802      	subs	r0, #2
  409fb0:	443c      	add	r4, r7
  409fb2:	e745      	b.n	409e40 <__udivmoddi4+0x15c>
  409fb4:	4608      	mov	r0, r1
  409fb6:	e708      	b.n	409dca <__udivmoddi4+0xe6>
  409fb8:	f1a8 0802 	sub.w	r8, r8, #2
  409fbc:	443d      	add	r5, r7
  409fbe:	e72b      	b.n	409e18 <__udivmoddi4+0x134>

00409fc0 <__aeabi_idiv0>:
  409fc0:	4770      	bx	lr
  409fc2:	bf00      	nop
  409fc4:	454c4449 	.word	0x454c4449
  409fc8:	00000000 	.word	0x00000000
  409fcc:	51726d54 	.word	0x51726d54
  409fd0:	00000000 	.word	0x00000000
  409fd4:	20726d54 	.word	0x20726d54
  409fd8:	00637653 	.word	0x00637653
  409fdc:	3f000000 	.word	0x3f000000
  409fe0:	42b40000 	.word	0x42b40000
  409fe4:	42b40000 	.word	0x42b40000
  409fe8:	00000000 	.word	0x00000000

00409fec <sysfont_glyphs>:
  409fec:	00000000 20000000 20202020 50502000     .......     . PP
  409ffc:	00000050 f8505000 5050f850 70a07820     P....PP.P.PP x.p
  40a00c:	c020f028 402010c8 90601898 90a840a0     (. ... @..`..@..
  40a01c:	40206068 00000000 40402010 40102040     h` @..... @@@ .@
  40a02c:	10101020 50004020 5020f820 20200000      ... @.P . P..  
  40a03c:	002020f8 00000000 00402060 00f80000     .  .....` @.....
  40a04c:	00000000 60000000 10080060 00804020     .......``... @..
  40a05c:	a8988870 207088c8 20202060 88707020     p.....p `    pp.
  40a06c:	40201008 2010f8f8 70880810 90503010     .. @... ...p.0P.
  40a07c:	f81010f8 0808f080 40307088 8888f080     .........p0@....
  40a08c:	1008f870 40404020 70888870 70708888     p... @@@p..p..pp
  40a09c:	08788888 60006010 60600060 60600000     ..x..`.``.``..``
  40a0ac:	40206000 40201008 00081020 f800f800     .` @.. @ .......
  40a0bc:	40800000 40201020 08887080 20002010     ...@ . @.p... . 
  40a0cc:	68088870 7070a8a8 f8888888 88f08888     p..h..pp........
  40a0dc:	8888f088 808870f0 70888080 888890e0     .....p.....p....
  40a0ec:	f8e09088 80f08080 80f8f880 8080e080     ................
  40a0fc:	80887080 70889880 f8888888 70888888     .p.....p.......p
  40a10c:	20202020 10387020 90101010 a0908860          p8.....`...
  40a11c:	8890a0c0 80808080 88f88080 8888a8d8     ................
  40a12c:	88888888 8898a8c8 88887088 70888888     .........p.....p
  40a13c:	f08888f0 70808080 a8888888 88f06890     .......p.....h..
  40a14c:	90a0f088 80807888 f0080870 202020f8     .....x..p....   
  40a15c:	88202020 88888888 88887088 50888888        ......p.....P
  40a16c:	88888820 88d8a8a8 20508888 88888850      .........P P...
  40a17c:	20205088 08f82020 80402010 202038f8     .P    ... @..8  
  40a18c:	38202020 20408000 e0000810 20202020        8..@ ....    
  40a19c:	5020e020 00000088 00000000 f8000000      . P............
  40a1ac:	00102040 00000000 78087000 80807888     @ .......p.x.x..
  40a1bc:	8888c8b0 700000f0 70888080 98680808     .......p...p..h.
  40a1cc:	00788888 f8887000 48307080 4040e040     ..x..p...p0H@.@@
  40a1dc:	78000040 30087888 c8b08080 20888888     @..x.x.0....... 
  40a1ec:	20206000 00107020 90101030 48404060     .`   p..0...`@@H
  40a1fc:	48506050 20202060 00702020 a8a8d000     P`PH`     p.....
  40a20c:	00008888 8888c8b0 70000088 70888888     ...........p...p
  40a21c:	88f00000 008080f0 78986800 00000808     .........h.x....
  40a22c:	8080c8b0 70000080 f0087080 40e04040     .......p.p..@@.@
  40a23c:	00304840 88888800 00006898 50888888     @H0......h.....P
  40a24c:	88000020 50a8a888 50880000 00885020      ......P...P P..
  40a25c:	78888800 00007008 402010f8 202010f8     ...x.p.... @..  
  40a26c:	10202040 20202020 40202020 20102020     @  .       @  . 
  40a27c:	00004020 64656c6f 00000000 6c696146      @..oled....Fail
  40a28c:	74206465 7263206f 65746165 656c6f20     ed to create ole
  40a29c:	61742064 0a0d6b73 00000000 00756d69     d task......imu.
  40a2ac:	6c696146 74206465 7263206f 65746165     Failed to create
  40a2bc:	656c6f20 6d692064 000a0d75 73756f68      oled imu...hous
  40a2cc:	6f645f65 00006e77 6c696146 74206465     e_down..Failed t
  40a2dc:	7263206f 65746165 4f486020 20455355     o create `HOUSE 
  40a2ec:	4e574f44 00000a0d 6569726f 6361746e     DOWN....orientac
  40a2fc:	00006f61 6c696146 74206465 7263206f     ao..Failed to cr
  40a30c:	65746165 49524f20 41544e45 4e4f4954     eate ORIENTATION
  40a31c:	00000a0d 686c6166 6d652061 69726320     ....falha em cri
  40a32c:	6f207261 6d657320 726f6661 000a206f     ar o semaforo ..
  40a33c:	5252455b 5b205d4f 5d633269 72705b20     [ERRO] [i2c] [pr
  40a34c:	5d65626f 00000a20 4441445b 5b205d4f     obe] ...[DADO] [
  40a35c:	5d633269 6f727020 4f206562 00000a4b     i2c] probe OK...
  40a36c:	5252455b 5b205d4f 5d633269 65725b20     [ERRO] [i2c] [re
  40a37c:	205d6461 0000000a 4441445b 5b205d4f     ad] ....[DADO] [
  40a38c:	5d633269 3a782520 00007825 45435553     i2c] %x:%x..SUCE
  40a39c:	214f5353 00000000 6f636e49 74657272     SSO!....Incorret
  40a3ac:	283a206f 00000000 5252455b 5b205d4f     o :(....[ERRO] [
  40a3bc:	5d633269 72775b20 5d657469 00000a20     i2c] [write] ...
  40a3cc:	51206d45 61646575 00002121 6c6c6f52     Em Queda!!..Roll
  40a3dc:	2e302520 202c6631 63746950 30252068      %0.1f, Pitch %0
  40a3ec:	2c66312e 77615920 2e302520 000a6631     .1f, Yaw %0.1f..
  40a3fc:	6d657845 206f6c70 534f5452 00000000     Exemplo RTOS....
  40a40c:	0069696f 61616161 61616161 00006161     oii.aaaaaaaaaa..
  40a41c:	64687361 75756173 61687568 00000000     ashdsauuhuha....
  40a42c:	75717365 61647265 00000000 6e657266     esquerda....fren
  40a43c:	00006574 65726964 00617469 63617473     te..direita.stac
  40a44c:	766f206b 6c667265 2520776f 73252078     k overflow %x %s
  40a45c:	00000a0d 74727173 00000000 6e697361     ....sqrt....asin
  40a46c:	00000066                                f...

0040a470 <npio2_hw>:
  40a470:	3fc90f00 40490f00 4096cb00 40c90f00     ...?..I@...@...@
  40a480:	40fb5300 4116cb00 412fed00 41490f00     .S.@...A../A..IA
  40a490:	41623100 417b5300 418a3a00 4196cb00     .1bA.S{A.:.A...A
  40a4a0:	41a35c00 41afed00 41bc7e00 41c90f00     .\.A...A.~.A...A
  40a4b0:	41d5a000 41e23100 41eec200 41fb5300     ...A.1.A...A.S.A
  40a4c0:	4203f200 420a3a00 42108300 4216cb00     ...B.:.B...B...B
  40a4d0:	421d1400 42235c00 4229a500 422fed00     ...B.\#B..)B../B
  40a4e0:	42363600 423c7e00 4242c700 42490f00     .66B.~<B..BB..IB

0040a4f0 <two_over_pi>:
  40a4f0:	000000a2 000000f9 00000083 0000006e     ............n...
  40a500:	0000004e 00000044 00000015 00000029     N...D.......)...
  40a510:	000000fc 00000027 00000057 000000d1     ....'...W.......
  40a520:	000000f5 00000034 000000dd 000000c0     ....4...........
  40a530:	000000db 00000062 00000095 00000099     ....b...........
  40a540:	0000003c 00000043 00000090 00000041     <...C.......A...
  40a550:	000000fe 00000051 00000063 000000ab     ....Q...c.......
  40a560:	000000de 000000bb 000000c5 00000061     ............a...
  40a570:	000000b7 00000024 0000006e 0000003a     ....$...n...:...
  40a580:	00000042 0000004d 000000d2 000000e0     B...M...........
  40a590:	00000006 00000049 0000002e 000000ea     ....I...........
  40a5a0:	00000009 000000d1 00000092 0000001c     ................
  40a5b0:	000000fe 0000001d 000000eb 0000001c     ................
  40a5c0:	000000b1 00000029 000000a7 0000003e     ....).......>...
  40a5d0:	000000e8 00000082 00000035 000000f5     ........5.......
  40a5e0:	0000002e 000000bb 00000044 00000084     ........D.......
  40a5f0:	000000e9 0000009c 00000070 00000026     ........p...&...
  40a600:	000000b4 0000005f 0000007e 00000041     ...._...~...A...
  40a610:	00000039 00000091 000000d6 00000039     9...........9...
  40a620:	00000083 00000053 00000039 000000f4     ....S...9.......
  40a630:	0000009c 00000084 0000005f 0000008b     ........_.......
  40a640:	000000bd 000000f9 00000028 0000003b     ........(...;...
  40a650:	0000001f 000000f8 00000097 000000ff     ................
  40a660:	000000de 00000005 00000098 0000000f     ................
  40a670:	000000ef 0000002f 00000011 0000008b     ..../...........
  40a680:	0000005a 0000000a 0000006d 0000001f     Z.......m.......
  40a690:	0000006d 00000036 0000007e 000000cf     m...6...~.......
  40a6a0:	00000027 000000cb 00000009 000000b7     '...............
  40a6b0:	0000004f 00000046 0000003f 00000066     O...F...?...f...
  40a6c0:	0000009e 0000005f 000000ea 0000002d     ...._.......-...
  40a6d0:	00000075 00000027 000000ba 000000c7     u...'...........
  40a6e0:	000000eb 000000e5 000000f1 0000007b     ............{...
  40a6f0:	0000003d 00000007 00000039 000000f7     =.......9.......
  40a700:	0000008a 00000052 00000092 000000ea     ....R...........
  40a710:	0000006b 000000fb 0000005f 000000b1     k......._.......
  40a720:	0000001f 0000008d 0000005d 00000008     ........].......
  40a730:	00000056 00000003 00000030 00000046     V.......0...F...
  40a740:	000000fc 0000007b 0000006b 000000ab     ....{...k.......
  40a750:	000000f0 000000cf 000000bc 00000020     ............ ...
  40a760:	0000009a 000000f4 00000036 0000001d     ........6.......
  40a770:	000000a9 000000e3 00000091 00000061     ............a...
  40a780:	0000005e 000000e6 0000001b 00000008     ^...............
  40a790:	00000065 00000099 00000085 0000005f     e..........._...
  40a7a0:	00000014 000000a0 00000068 00000040     ........h...@...
  40a7b0:	0000008d 000000ff 000000d8 00000080     ................
  40a7c0:	0000004d 00000073 00000027 00000031     M...s...'...1...
  40a7d0:	00000006 00000006 00000015 00000056     ............V...
  40a7e0:	000000ca 00000073 000000a8 000000c9     ....s...........
  40a7f0:	00000060 000000e2 0000007b 000000c0     `.......{.......
  40a800:	0000008c 0000006b                       ....k...

0040a808 <PIo2>:
  40a808:	3fc90000 39f00000 37da0000 33a20000     ...?...9...7...3
  40a818:	2e840000 2b500000 27c20000 22d00000     ......P+...'..."
  40a828:	1fc40000 1bc60000 17440000              ..........D.

0040a834 <init_jk>:
  40a834:	00000004 00000007 00000009              ............

0040a840 <atanhi>:
  40a840:	3eed6338 3f490fda 3f7b985e 3fc90fda     8c.>..I?^.{?...?

0040a850 <atanlo>:
  40a850:	31ac3769 33222168 33140fb4 33a22168     i7.1h!"3...3h!.3

0040a860 <_global_impure_ptr>:
  40a860:	20400030 33323130 37363534 42413938     0.@ 0123456789AB
  40a870:	46454443 00000000 33323130 37363534     CDEF....01234567
  40a880:	62613938 66656463 00000000 6c756e28     89abcdef....(nul
  40a890:	0000296c                                l)..

0040a894 <blanks.7217>:
  40a894:	20202020 20202020 20202020 20202020                     

0040a8a4 <zeroes.7218>:
  40a8a4:	30303030 30303030 30303030 30303030     0000000000000000
  40a8b4:	00000043 49534f50 00000058 0000002e     C...POSIX.......

0040a8c4 <_ctype_>:
  40a8c4:	20202000 20202020 28282020 20282828     .         ((((( 
  40a8d4:	20202020 20202020 20202020 20202020                     
  40a8e4:	10108820 10101010 10101010 10101010      ...............
  40a8f4:	04040410 04040404 10040404 10101010     ................
  40a904:	41411010 41414141 01010101 01010101     ..AAAAAA........
  40a914:	01010101 01010101 01010101 10101010     ................
  40a924:	42421010 42424242 02020202 02020202     ..BBBBBB........
  40a934:	02020202 02020202 02020202 10101010     ................
  40a944:	00000020 00000000 00000000 00000000      ...............
	...

0040a9c8 <_init>:
  40a9c8:	b5f8      	push	{r3, r4, r5, r6, r7, lr}
  40a9ca:	bf00      	nop
  40a9cc:	bcf8      	pop	{r3, r4, r5, r6, r7}
  40a9ce:	bc08      	pop	{r3}
  40a9d0:	469e      	mov	lr, r3
  40a9d2:	4770      	bx	lr

0040a9d4 <__init_array_start>:
  40a9d4:	00408379 	.word	0x00408379

0040a9d8 <__frame_dummy_init_array_entry>:
  40a9d8:	00400165                                e.@.

0040a9dc <_fini>:
  40a9dc:	b5f8      	push	{r3, r4, r5, r6, r7, lr}
  40a9de:	bf00      	nop
  40a9e0:	bcf8      	pop	{r3, r4, r5, r6, r7}
  40a9e2:	bc08      	pop	{r3}
  40a9e4:	469e      	mov	lr, r3
  40a9e6:	4770      	bx	lr

0040a9e8 <__fini_array_start>:
  40a9e8:	00400141 	.word	0x00400141

Disassembly of section .relocate:

20400000 <portable_delay_cycles>:
20400000:	f3bf 8f5f 	dmb	sy
20400004:	3801      	subs	r0, #1
20400006:	d1fb      	bne.n	20400000 <portable_delay_cycles>
20400008:	4770      	bx	lr
	...

2040000c <uxCriticalNesting>:
2040000c:	aaaa aaaa                                   ....

20400010 <sysfont>:
20400010:	0000 0000 9fec 0040 0706 7d20               ......@... }

2040001c <g_interrupt_enabled>:
2040001c:	0001 0000                                   ....

20400020 <SystemCoreClock>:
20400020:	0900 003d                                   ..=.

20400024 <__fdlib_version>:
20400024:	0001 0000                                   ....

20400028 <_impure_ptr>:
20400028:	0030 2040 0000 0000                         0.@ ....

20400030 <impure_data>:
20400030:	0000 0000 031c 2040 0384 2040 03ec 2040     ......@ ..@ ..@ 
	...
204000d8:	0001 0000 0000 0000 330e abcd 1234 e66d     .........3..4.m.
204000e8:	deec 0005 000b 0000 0000 0000 0000 0000     ................
	...

20400458 <__atexit_recursive_mutex>:
20400458:	c648 2040                                   H.@ 

2040045c <__global_locale>:
2040045c:	0043 0000 0000 0000 0000 0000 0000 0000     C...............
	...
2040047c:	0043 0000 0000 0000 0000 0000 0000 0000     C...............
	...
2040049c:	0043 0000 0000 0000 0000 0000 0000 0000     C...............
	...
204004bc:	0043 0000 0000 0000 0000 0000 0000 0000     C...............
	...
204004dc:	0043 0000 0000 0000 0000 0000 0000 0000     C...............
	...
204004fc:	0043 0000 0000 0000 0000 0000 0000 0000     C...............
	...
2040051c:	0043 0000 0000 0000 0000 0000 0000 0000     C...............
	...
2040053c:	9a1d 0040 9371 0040 0000 0000 a8c4 0040     ..@.q.@.......@.
2040054c:	a8c0 0040 a2a4 0040 a2a4 0040 a2a4 0040     ..@...@...@...@.
2040055c:	a2a4 0040 a2a4 0040 a2a4 0040 a2a4 0040     ..@...@...@...@.
2040056c:	a2a4 0040 a2a4 0040 ffff ffff ffff ffff     ..@...@.........
2040057c:	ffff ffff ffff 0000 0001 5341 4943 0049     ..........ASCII.
	...
204005a4:	0000 5341 4943 0049 0000 0000 0000 0000     ..ASCII.........
	...

204005c8 <__malloc_av_>:
	...
204005d0:	05c8 2040 05c8 2040 05d0 2040 05d0 2040     ..@ ..@ ..@ ..@ 
204005e0:	05d8 2040 05d8 2040 05e0 2040 05e0 2040     ..@ ..@ ..@ ..@ 
204005f0:	05e8 2040 05e8 2040 05f0 2040 05f0 2040     ..@ ..@ ..@ ..@ 
20400600:	05f8 2040 05f8 2040 0600 2040 0600 2040     ..@ ..@ ..@ ..@ 
20400610:	0608 2040 0608 2040 0610 2040 0610 2040     ..@ ..@ ..@ ..@ 
20400620:	0618 2040 0618 2040 0620 2040 0620 2040     ..@ ..@  .@  .@ 
20400630:	0628 2040 0628 2040 0630 2040 0630 2040     (.@ (.@ 0.@ 0.@ 
20400640:	0638 2040 0638 2040 0640 2040 0640 2040     8.@ 8.@ @.@ @.@ 
20400650:	0648 2040 0648 2040 0650 2040 0650 2040     H.@ H.@ P.@ P.@ 
20400660:	0658 2040 0658 2040 0660 2040 0660 2040     X.@ X.@ `.@ `.@ 
20400670:	0668 2040 0668 2040 0670 2040 0670 2040     h.@ h.@ p.@ p.@ 
20400680:	0678 2040 0678 2040 0680 2040 0680 2040     x.@ x.@ ..@ ..@ 
20400690:	0688 2040 0688 2040 0690 2040 0690 2040     ..@ ..@ ..@ ..@ 
204006a0:	0698 2040 0698 2040 06a0 2040 06a0 2040     ..@ ..@ ..@ ..@ 
204006b0:	06a8 2040 06a8 2040 06b0 2040 06b0 2040     ..@ ..@ ..@ ..@ 
204006c0:	06b8 2040 06b8 2040 06c0 2040 06c0 2040     ..@ ..@ ..@ ..@ 
204006d0:	06c8 2040 06c8 2040 06d0 2040 06d0 2040     ..@ ..@ ..@ ..@ 
204006e0:	06d8 2040 06d8 2040 06e0 2040 06e0 2040     ..@ ..@ ..@ ..@ 
204006f0:	06e8 2040 06e8 2040 06f0 2040 06f0 2040     ..@ ..@ ..@ ..@ 
20400700:	06f8 2040 06f8 2040 0700 2040 0700 2040     ..@ ..@ ..@ ..@ 
20400710:	0708 2040 0708 2040 0710 2040 0710 2040     ..@ ..@ ..@ ..@ 
20400720:	0718 2040 0718 2040 0720 2040 0720 2040     ..@ ..@  .@  .@ 
20400730:	0728 2040 0728 2040 0730 2040 0730 2040     (.@ (.@ 0.@ 0.@ 
20400740:	0738 2040 0738 2040 0740 2040 0740 2040     8.@ 8.@ @.@ @.@ 
20400750:	0748 2040 0748 2040 0750 2040 0750 2040     H.@ H.@ P.@ P.@ 
20400760:	0758 2040 0758 2040 0760 2040 0760 2040     X.@ X.@ `.@ `.@ 
20400770:	0768 2040 0768 2040 0770 2040 0770 2040     h.@ h.@ p.@ p.@ 
20400780:	0778 2040 0778 2040 0780 2040 0780 2040     x.@ x.@ ..@ ..@ 
20400790:	0788 2040 0788 2040 0790 2040 0790 2040     ..@ ..@ ..@ ..@ 
204007a0:	0798 2040 0798 2040 07a0 2040 07a0 2040     ..@ ..@ ..@ ..@ 
204007b0:	07a8 2040 07a8 2040 07b0 2040 07b0 2040     ..@ ..@ ..@ ..@ 
204007c0:	07b8 2040 07b8 2040 07c0 2040 07c0 2040     ..@ ..@ ..@ ..@ 
204007d0:	07c8 2040 07c8 2040 07d0 2040 07d0 2040     ..@ ..@ ..@ ..@ 
204007e0:	07d8 2040 07d8 2040 07e0 2040 07e0 2040     ..@ ..@ ..@ ..@ 
204007f0:	07e8 2040 07e8 2040 07f0 2040 07f0 2040     ..@ ..@ ..@ ..@ 
20400800:	07f8 2040 07f8 2040 0800 2040 0800 2040     ..@ ..@ ..@ ..@ 
20400810:	0808 2040 0808 2040 0810 2040 0810 2040     ..@ ..@ ..@ ..@ 
20400820:	0818 2040 0818 2040 0820 2040 0820 2040     ..@ ..@  .@  .@ 
20400830:	0828 2040 0828 2040 0830 2040 0830 2040     (.@ (.@ 0.@ 0.@ 
20400840:	0838 2040 0838 2040 0840 2040 0840 2040     8.@ 8.@ @.@ @.@ 
20400850:	0848 2040 0848 2040 0850 2040 0850 2040     H.@ H.@ P.@ P.@ 
20400860:	0858 2040 0858 2040 0860 2040 0860 2040     X.@ X.@ `.@ `.@ 
20400870:	0868 2040 0868 2040 0870 2040 0870 2040     h.@ h.@ p.@ p.@ 
20400880:	0878 2040 0878 2040 0880 2040 0880 2040     x.@ x.@ ..@ ..@ 
20400890:	0888 2040 0888 2040 0890 2040 0890 2040     ..@ ..@ ..@ ..@ 
204008a0:	0898 2040 0898 2040 08a0 2040 08a0 2040     ..@ ..@ ..@ ..@ 
204008b0:	08a8 2040 08a8 2040 08b0 2040 08b0 2040     ..@ ..@ ..@ ..@ 
204008c0:	08b8 2040 08b8 2040 08c0 2040 08c0 2040     ..@ ..@ ..@ ..@ 
204008d0:	08c8 2040 08c8 2040 08d0 2040 08d0 2040     ..@ ..@ ..@ ..@ 
204008e0:	08d8 2040 08d8 2040 08e0 2040 08e0 2040     ..@ ..@ ..@ ..@ 
204008f0:	08e8 2040 08e8 2040 08f0 2040 08f0 2040     ..@ ..@ ..@ ..@ 
20400900:	08f8 2040 08f8 2040 0900 2040 0900 2040     ..@ ..@ ..@ ..@ 
20400910:	0908 2040 0908 2040 0910 2040 0910 2040     ..@ ..@ ..@ ..@ 
20400920:	0918 2040 0918 2040 0920 2040 0920 2040     ..@ ..@  .@  .@ 
20400930:	0928 2040 0928 2040 0930 2040 0930 2040     (.@ (.@ 0.@ 0.@ 
20400940:	0938 2040 0938 2040 0940 2040 0940 2040     8.@ 8.@ @.@ @.@ 
20400950:	0948 2040 0948 2040 0950 2040 0950 2040     H.@ H.@ P.@ P.@ 
20400960:	0958 2040 0958 2040 0960 2040 0960 2040     X.@ X.@ `.@ `.@ 
20400970:	0968 2040 0968 2040 0970 2040 0970 2040     h.@ h.@ p.@ p.@ 
20400980:	0978 2040 0978 2040 0980 2040 0980 2040     x.@ x.@ ..@ ..@ 
20400990:	0988 2040 0988 2040 0990 2040 0990 2040     ..@ ..@ ..@ ..@ 
204009a0:	0998 2040 0998 2040 09a0 2040 09a0 2040     ..@ ..@ ..@ ..@ 
204009b0:	09a8 2040 09a8 2040 09b0 2040 09b0 2040     ..@ ..@ ..@ ..@ 
204009c0:	09b8 2040 09b8 2040 09c0 2040 09c0 2040     ..@ ..@ ..@ ..@ 

204009d0 <__malloc_sbrk_base>:
204009d0:	ffff ffff                                   ....

204009d4 <__malloc_trim_threshold>:
204009d4:	0000 0002                                   ....
